 zoomsdk

 Timestamp is 5f32e08d (Tue Aug 11 20:16:45 2020)

 Preferred load address is 10000000

 Start         Length     Name                   Class
 0001:00000000 000004e0H .text$di                CODE
 0001:000004e0 000826e7H .text$mn                CODE
 0001:00082bc7 00001049H .text$x                 CODE
 0001:00083c10 0000030eH .text$yd                CODE
 0002:00000000 000001d0H .idata$5                DATA
 0002:000001d0 00000004H .00cfg                  DATA
 0002:000001d4 00000004H .CRT$XCA                DATA
 0002:000001d8 00000008H .CRT$XCC                DATA
 0002:000001e0 000000a8H .CRT$XCU                DATA
 0002:00000288 00000004H .CRT$XCZ                DATA
 0002:0000028c 00000004H .CRT$XIA                DATA
 0002:00000290 00000014H .CRT$XIC                DATA
 0002:000002a4 00000004H .CRT$XIZ                DATA
 0002:000002a8 00000004H .CRT$XLA                DATA
 0002:000002ac 00000004H .CRT$XLZ                DATA
 0002:000002b0 00000004H .CRT$XPA                DATA
 0002:000002b4 00000004H .CRT$XPB                DATA
 0002:000002b8 00000008H .CRT$XPX                DATA
 0002:000002c0 00000004H .CRT$XPXA               DATA
 0002:000002c4 00000004H .CRT$XPZ                DATA
 0002:000002c8 00000004H .CRT$XTA                DATA
 0002:000002cc 00000004H .CRT$XTZ                DATA
 0002:000002d0 0000bc70H .rdata                  DATA
 0002:0000bf40 00000018H .rdata$T                DATA
 0002:0000bf58 00001c88H .rdata$r                DATA
 0002:0000dbe0 00000190H .rdata$sxdata           DATA
 0002:0000dd70 00000464H .rdata$zzzdbg           DATA
 0002:0000e1d4 00000004H .rtc$IAA                DATA
 0002:0000e1d8 00000004H .rtc$IZZ                DATA
 0002:0000e1dc 00000004H .rtc$TAA                DATA
 0002:0000e1e0 00000008H .rtc$TZZ                DATA
 0002:0000e1e8 00001f14H .xdata$x                DATA
 0002:000100fc 00000020H .didat$2                DATA
 0002:0001011c 00000020H .didat$3                DATA
 0002:0001013c 00000130H .didat$4                DATA
 0002:0001026c 00000e50H .didat$6                DATA
 0002:000110bc 00000134H .didat$7                DATA
 0002:000111f0 00000054H .edata                  DATA
 0002:00011244 00000028H .idata$2                DATA
 0002:0001126c 00000014H .idata$3                DATA
 0002:00011280 000001d0H .idata$4                DATA
 0002:00011450 000008baH .idata$6                DATA
 0003:00000000 00000bb0H .data                   DATA
 0003:00000bb0 00001388H .data$r                 DATA
 0003:00001f38 00000130H .didat$5                DATA
 0003:00002068 00002844H .bss                    DATA
 0004:00000000 00000090H .gfids$x                DATA
 0004:00000090 000009e4H .gfids$y                DATA
 0005:00000000 00000004H .tls                    DATA
 0005:00000004 00000004H .tls$                   DATA
 0005:00000008 00000001H .tls$ZZZ                DATA
 0006:00000000 00000390H .rsrc$01                DATA
 0006:00000390 00038f60H .rsrc$02                DATA

  Address         Publics by Value              Rva+Base       Lib:Object

 0000:00000000       ___guard_fids_count        00000000     <absolute>
 0000:00000000       ___guard_longjmp_table     00000000     <absolute>
 0000:00000000       ___guard_iat_table         00000000     <absolute>
 0000:00000000       ___guard_iat_count         00000000     <absolute>
 0000:00000000       ___guard_longjmp_count     00000000     <absolute>
 0000:00000000       __except_list              00000000     <absolute>
 0000:00000000       ___guard_fids_table        00000000     <absolute>
 0000:00000000       ___dynamic_value_reloc_table 00000000     <absolute>
 0000:0000002c       __tls_array                0000002c     <absolute>
 0000:00000064       ___safe_se_handler_count   00000064     <absolute>
 0000:00000100       ___guard_flags             00000100     <absolute>
 0000:00000000       ___ImageBase               10000000     <linker-defined>
 0001:000004e0       ___local_stdio_printf_options 100014e0 f i zoom_native_sdk_wrap_core.obj
 0001:000004f0       _printf                    100014f0 f i zoom_native_sdk_wrap_core.obj
 0001:00000530       ??0tagInitParam@ZOOMSDK@@QAE@XZ 10001530 f i zoom_native_sdk_wrap_core.obj
 0001:000005a0       ??_G?$IVector@_K@@UAEPAXI@Z 100015a0 f i zoom_node_video_raw_data.obj
 0001:000005a0       ??_GIAudioRawDataReceiver@ZOOMSDKRAWDATA@@UAEPAXI@Z 100015a0 f i zoom_native_sdk_wrap_core.obj
 0001:000005a0       ??_EIAudioRawDataReceiver@ZOOMSDKRAWDATA@@UAEPAXI@Z 100015a0 f i * CIL library *:* CIL module *
 0001:000005a0       ??_E?$IVector@_K@@UAEPAXI@Z 100015a0 f i * CIL library *:* CIL module *
 0001:000005d0       ??_EIShareRawDataReceiver@ZOOMSDKRAWDATA@@UAEPAXI@Z 100015d0 f i * CIL library *:* CIL module *
 0001:000005d0       ??_GIShareRawDataReceiver@ZOOMSDKRAWDATA@@UAEPAXI@Z 100015d0 f i zoom_native_sdk_wrap_core.obj
 0001:00000600       ??_GIVideoRawDataReceiver@ZOOMSDKRAWDATA@@UAEPAXI@Z 10001600 f i zoom_native_sdk_wrap_core.obj
 0001:00000600       ??_EIVideoRawDataReceiver@ZOOMSDKRAWDATA@@UAEPAXI@Z 10001600 f i * CIL library *:* CIL module *
 0001:00000630       ??_GIZoomRealNameAuthMeetingEvent@@UAEPAXI@Z 10001630 f i zoom_native_sdk_wrap_core.obj
 0001:00000630       ??_EIZoomRealNameAuthMeetingEvent@@UAEPAXI@Z 10001630 f i * CIL library *:* CIL module *
 0001:00000660       ?myOutputDebugString@@YAXPBDZZ 10001660 f i zoom_native_sdk_wrap_core.obj
 0001:000006e0       ?myOutputDebugStringW@@YAXPB_WZZ 100016e0 f i zoom_native_sdk_wrap_core.obj
 0001:00000760       ?SetEvent@IMeetingUIControllerWrap@ZOOMSDK@@UAE?AW4SDKError@2@PAVIMeetingUIControllerEvent@2@@Z 10001760 f i zoom_native_sdk_wrap_core.obj
 0001:00000760       ?SetEvent@IMeetingRecordingControllerWrap@ZOOMSDK@@UAE?AW4SDKError@2@PAVIMeetingRecordingCtrlEvent@2@@Z 10001760 f i zoom_native_sdk_wrap_core.obj
 0001:00000760       ?SetRecordingSettingEvent@IRecordingSettingContextWrap@ZOOMSDK@@UAE?AW4SDKError@2@PAVIRecordingSettingContextEvent@2@@Z 10001760 f i zoom_native_sdk_wrap_core.obj
 0001:00000760       ?SetEvent@IAnnotationControllerWrap@ZOOMSDK@@UAE?AW4SDKError@2@PAVIMeetingAnnotationSupportEvent@2@@Z 10001760 f i zoom_native_sdk_wrap_core.obj
 0001:00000760       ?SetEvent@IMeetingServiceWrap@ZOOMSDK@@UAE?AW4SDKError@2@PAVIMeetingServiceEvent@2@@Z 10001760 f i zoom_native_sdk_wrap_core.obj
 0001:00000760       ?SetEvent@IMeetingWaitingRoomControllerWrap@ZOOMSDK@@UAE?AW4SDKError@2@PAVIMeetingWaitingRoomEvent@2@@Z 10001760 f i zoom_native_sdk_wrap_core.obj
 0001:00000760       ?SetEvent@IMeetingBreakoutRoomsControllerWrap@ZOOMSDK@@UAE?AW4SDKError@2@PAVIMeetingBreakoutRoomsEvent@2@@Z 10001760 f i zoom_native_sdk_wrap_core.obj
 0001:00000760       ?SetAudioDeviceEvent@IAudioSettingContextWrap@ZOOMSDK@@UAE?AW4SDKError@2@PAVIAudioSettingContextEvent@2@@Z 10001760 f i zoom_native_sdk_wrap_core.obj
 0001:00000760       ?SetEvent@ICameraControllerWrap@ZOOMSDK@@UAE?AW4SDKError@2@PAVICameraControllerEvent@2@@Z 10001760 f i zoom_native_sdk_wrap_core.obj
 0001:00000760       ?SetEvent@IMeetingParticipantsControllerWrap@ZOOMSDK@@UAE?AW4SDKError@2@PAVIMeetingParticipantsCtrlEvent@2@@Z 10001760 f i zoom_native_sdk_wrap_core.obj
 0001:00000760       ?SetVideoDeviceEvent@IVideoSettingContextWrap@ZOOMSDK@@UAE?AW4SDKError@2@PAVIVideoSettingContextEvent@2@@Z 10001760 f i zoom_native_sdk_wrap_core.obj
 0001:00000760       ?SetEvent@IMeetingRemoteControllerWrap@ZOOMSDK@@UAE?AW4SDKError@2@PAVIMeetingRemoteCtrlEvent@2@@Z 10001760 f i zoom_native_sdk_wrap_core.obj
 0001:00000760       ?SetEvent@IAuthServiceWrap@ZOOMSDK@@UAE?AW4SDKError@2@PAVIAuthServiceEvent@2@@Z 10001760 f i zoom_native_sdk_wrap_core.obj
 0001:00000760       ?SetEvent@IMeetingShareControllerWrap@ZOOMSDK@@UAE?AW4SDKError@2@PAVIMeetingShareCtrlEvent@2@@Z 10001760 f i zoom_native_sdk_wrap_core.obj
 0001:00000760       ?SetEvent@IOutlookPluginIntegrationHelperWrap@ZOOMSDK@@UAE?AW4SDKError@2@PAVIOutlookPluginIntegrationHelperEvent@2@@Z 10001760 f i zoom_native_sdk_wrap_core.obj
 0001:00000760       ?SetEvent@IMeetingChatControllerWrap@ZOOMSDK@@UAE?AW4SDKError@2@PAVIMeetingChatCtrlEvent@2@@Z 10001760 f i zoom_native_sdk_wrap_core.obj
 0001:00000760       ?SetEvent@IDirectShareServiceHelperWrap@ZOOMSDK@@UAE?AW4SDKError@2@PAVIDirectShareServiceHelperEvent@2@@Z 10001760 f i zoom_native_sdk_wrap_core.obj
 0001:00000760       ?SetEvent@IMeetingWebinarControllerWrap@ZOOMSDK@@UAE?AW4SDKError@2@PAVIMeetingWebinarCtrlEvent@2@@Z 10001760 f i zoom_native_sdk_wrap_core.obj
 0001:00000760       ?SetEvent@IClosedCaptionControllerWrap@ZOOMSDK@@UAE?AW4SDKError@2@PAVIClosedCaptionControllerEvent@2@@Z 10001760 f i zoom_native_sdk_wrap_core.obj
 0001:00000760       ?SetEvent@IMeetingVideoControllerWrap@ZOOMSDK@@UAE?AW4SDKError@2@PAVIMeetingVideoCtrlEvent@2@@Z 10001760 f i zoom_native_sdk_wrap_core.obj
 0001:00000760       ?SetEvent@IMeetingLiveStreamControllerWrap@ZOOMSDK@@UAE?AW4SDKError@2@PAVIMeetingLiveStreamCtrlEvent@2@@Z 10001760 f i zoom_native_sdk_wrap_core.obj
 0001:00000760       ?SetEvent@IMeetingPhoneHelperWrap@ZOOMSDK@@UAE?AW4SDKError@2@PAVIMeetingPhoneHelperEvent@2@@Z 10001760 f i zoom_native_sdk_wrap_core.obj
 0001:00000760       ?SetEvent@IPreMeetingServiceWrap@ZOOMSDK@@UAE?AW4SDKError@2@PAVIPreMeetingServiceEvent@2@@Z 10001760 f i zoom_native_sdk_wrap_core.obj
 0001:00000760       ?SetEvent@IMeetingAudioControllerWrap@ZOOMSDK@@UAE?AW4SDKError@2@PAVIMeetingAudioCtrlEvent@2@@Z 10001760 f i zoom_native_sdk_wrap_core.obj
 0001:00000770       ?onSharingStatus@IMeetingShareControllerWrap@ZOOMSDK@@UAEXW4SharingStatus@2@I@Z 10001770 f i zoom_native_sdk_wrap_core.obj
 0001:00000770       ?onListMeeting@IPreMeetingServiceWrap@ZOOMSDK@@UAEXW4PremeetingAPIResult@2@PAV?$IList@_K@2@@Z 10001770 f i zoom_native_sdk_wrap_core.obj
 0001:00000770       ?onChatMsgNotifcation@IMeetingChatControllerWrap@ZOOMSDK@@UAEXPAVIChatMsgInfo@2@PB_W@Z 10001770 f i zoom_native_sdk_wrap_core.obj
 0001:00000770       ?OnDirectShareStatusUpdate@IDirectShareServiceHelperWrap@ZOOMSDK@@UAEXW4DirectShareStatusStatus_Enum@2@PAVIDirectShareViaMeetingIDOrPairingCodeHandler@2@@Z 10001770 f i zoom_native_sdk_wrap_core.obj
 0001:00000770       ?onUserJoin@IMeetingParticipantsControllerWrap@ZOOMSDK@@UAEXPAV?$IList@I@2@PB_W@Z 10001770 f i zoom_native_sdk_wrap_core.obj
 0001:00000770       ?onInviteCallOutUserStatus@IMeetingPhoneHelperWrap@ZOOMSDK@@UAEXW4PhoneStatus@2@W4PhoneFailedReason@2@@Z 10001770 f i zoom_native_sdk_wrap_core.obj
 0001:00000770       ?onUserAudioStatusChange@IMeetingAudioControllerWrap@ZOOMSDK@@UAEXPAV?$IList@PAVIUserAudioStatus@ZOOMSDK@@@2@PB_W@Z 10001770 f i zoom_native_sdk_wrap_core.obj
 0001:00000770       ?onRemoteControlStatus@IMeetingRemoteControllerWrap@ZOOMSDK@@UAEXW4RemoteControlStatus@2@I@Z 10001770 f i zoom_native_sdk_wrap_core.obj
 0001:000007c0       ?onSharingShareAnnotationStatusChanged@ICustomizedAnnotationControllerWrap@ZOOMSDK@@UAEXPAVICustomizedShareRender@2@W4CustomizedShareAnnotationStatus@2@@Z 100017c0 f i zoom_native_sdk_wrap_core.obj
 0001:000007c0       ?onRetrieveSMSVerificationCodeResultNotification@IZoomRealNameAuthMeetingHelperWrap@ZOOMSDK@@UAEXW4SMSVerificationCodeErr@@PAVIZoomVerifySMSVerificationCodeHandler@@@Z 100017c0 f i zoom_native_sdk_wrap_core.obj
 0001:000007c0       ?onDefaultCamDeviceChanged@IVideoSettingContextWrap@ZOOMSDK@@UAEXPB_W0@Z 100017c0 f i zoom_native_sdk_wrap_core.obj
 0001:000007c0       ?onUserLeft@IMeetingParticipantsControllerWrap@ZOOMSDK@@UAEXPAV?$IList@I@2@PB_W@Z 100017c0 f i zoom_native_sdk_wrap_core.obj
 0001:000007c0       ?onCallMeStatus@IMeetingPhoneHelperWrap@ZOOMSDK@@UAEXW4PhoneStatus@2@W4PhoneFailedReason@2@@Z 100017c0 f i zoom_native_sdk_wrap_core.obj
 0001:00000810       ?onVerifySMSVerificationCodeResultNotification@IZoomRealNameAuthMeetingHelperWrap@ZOOMSDK@@UAEXW4SMSVerificationCodeErr@@@Z 10001810 f i zoom_native_sdk_wrap_core.obj
 0001:00000810       ?onHostChangeNotification@IMeetingParticipantsControllerWrap@ZOOMSDK@@UAEXI@Z 10001810 f i zoom_native_sdk_wrap_core.obj
 0001:00000810       ?onHostRequestStartAudio@IMeetingAudioControllerWrap@ZOOMSDK@@UAEXPAVIRequestStartAudioHandler@2@@Z 10001810 f i zoom_native_sdk_wrap_core.obj
 0001:00000810       ?onRecordingStatus@IMeetingRecordingControllerWrap@ZOOMSDK@@UAEXW4RecordingStatus@2@@Z 10001810 f i zoom_native_sdk_wrap_core.obj
 0001:00000810       ?onDeleteMeeting@IPreMeetingServiceWrap@ZOOMSDK@@UAEXW4PremeetingAPIResult@2@@Z 10001810 f i zoom_native_sdk_wrap_core.obj
 0001:00000850       ?onLowOrRaiseHandStatusChanged@IMeetingParticipantsControllerWrap@ZOOMSDK@@UAEX_NI@Z 10001850 f i zoom_native_sdk_wrap_core.obj
 0001:000008b0       ?onUserNameChanged@IMeetingParticipantsControllerWrap@ZOOMSDK@@UAEXIPB_W@Z 100018b0 f i zoom_native_sdk_wrap_core.obj
 0001:00000910       ?onCoHostChangeNotification@IMeetingParticipantsControllerWrap@ZOOMSDK@@UAEXI_N@Z 10001910 f i zoom_native_sdk_wrap_core.obj
 0001:00000970       ?onOutlookPluginNeedLoginRequestNotification@IOutlookPluginIntegrationHelperWrap@ZOOMSDK@@UAEXXZ 10001970 f i zoom_native_sdk_wrap_core.obj
 0001:000009a0       ?onStartShareBtnClicked@IMeetingUIControllerWrap@ZOOMSDK@@UAEXXZ 100019a0 f i zoom_native_sdk_wrap_core.obj
 0001:000009a0       ?onOutlookPluginScheduleMeetingRequestNotification@IOutlookPluginIntegrationHelperWrap@ZOOMSDK@@UAEXXZ 100019a0 f i zoom_native_sdk_wrap_core.obj
 0001:000009d0       ?onOutlookPluginDefaultMeetingTopicRequestNotification@IOutlookPluginIntegrationHelperWrap@ZOOMSDK@@UAEXPB_WPAPA_W@Z 100019d0 f i zoom_native_sdk_wrap_core.obj
 0001:000009d0       ?onDefaultMicDeviceChanged@IAudioSettingContextWrap@ZOOMSDK@@UAEXPB_W0@Z 100019d0 f i zoom_native_sdk_wrap_core.obj
 0001:00000a20       ??0IAuthServiceWrap@ZOOMSDK@@AAE@XZ 10001a20 f i zoom_native_sdk_wrap_core.obj
 0001:00000ae0       ?onAuthenticationReturn@IAuthServiceWrap@ZOOMSDK@@UAEXW4AuthResult@2@@Z 10001ae0 f i zoom_native_sdk_wrap_core.obj
 0001:00000b20       ?onLoginRet@IAuthServiceWrap@ZOOMSDK@@UAEXW4LOGINSTATUS@2@PAVIAccountInfo@2@@Z 10001b20 f i zoom_native_sdk_wrap_core.obj
 0001:00000b80       ?onLogout@IAuthServiceWrap@ZOOMSDK@@UAEXXZ 10001b80 f i zoom_native_sdk_wrap_core.obj
 0001:00000bb0       ?onZoomIdentityExpired@IAuthServiceWrap@ZOOMSDK@@UAEXXZ 10001bb0 f i zoom_native_sdk_wrap_core.obj
 0001:00000be0       ?onZoomAuthIdentityExpired@IAuthServiceWrap@ZOOMSDK@@UAEXXZ 10001be0 f i zoom_native_sdk_wrap_core.obj
 0001:00000c10       ??1IMeetingAudioControllerWrap@ZOOMSDK@@QAE@XZ 10001c10 f i zoom_native_sdk_wrap_core.obj
 0001:00000c10       ??1IOutlookPluginIntegrationHelperWrap@ZOOMSDK@@QAE@XZ 10001c10 f i zoom_native_sdk_wrap_core.obj
 0001:00000c80       ??1IAuthServiceWrap@ZOOMSDK@@QAE@XZ 10001c80 f i zoom_native_sdk_wrap_core.obj
 0001:00000d70       ??0IMeetingConfigurationWrap@ZOOMSDK@@QAE@XZ 10001d70 f i zoom_native_sdk_wrap_core.obj
 0001:00000df0       ?SetEvent@IMeetingConfigurationWrap@ZOOMSDK@@UAEXPAVIMeetingConfigurationEvent@2@@Z 10001df0 f i zoom_native_sdk_wrap_core.obj
 0001:00000df0       ?SetDeviceType@CustomizedH323Device@ZOOMSDK@@UAEXW4H323DeviceType@2@@Z 10001df0 f i meeting_h323_wrap_core.obj
 0001:00000df0       ?SetEvent@IMeetingH323HelperWrap@ZOOMSDK@@UAEXPAVIMeetingH323HelperEvent@2@@Z 10001df0 f i zoom_native_sdk_wrap_core.obj
 0001:00000e00       ?onInputMeetingPasswordAndScreenNameNotification@IMeetingConfigurationWrap@ZOOMSDK@@UAEXPAVIMeetingPasswordAndScreenNameHandler@2@@Z 10001e00 f i zoom_native_sdk_wrap_core.obj
 0001:00000e40       ?onAirPlayInstructionWndNotification@IMeetingConfigurationWrap@ZOOMSDK@@UAEX_NPB_W@Z 10001e40 f i zoom_native_sdk_wrap_core.obj
 0001:00000e90       ?onWebinarNeedRegisterNotification@IMeetingConfigurationWrap@ZOOMSDK@@UAEXPAVIWebinarNeedRegisterHandler@2@@Z 10001e90 f i zoom_native_sdk_wrap_core.obj
 0001:00000ed0       ?onEndOtherMeetingToJoinMeetingNotification@IMeetingConfigurationWrap@ZOOMSDK@@UAEXPAVIEndOtherMeetingToJoinMeetingHandler@2@@Z 10001ed0 f i zoom_native_sdk_wrap_core.obj
 0001:00000f20       ?onFreeMeetingEndingReminderNotification@IMeetingConfigurationWrap@ZOOMSDK@@UAEXPAVIFreeMeetingEndingReminderHandler@2@@Z 10001f20 f i zoom_native_sdk_wrap_core.obj
 0001:00000f70       ?onFreeMeetingRemainTime@IMeetingConfigurationWrap@ZOOMSDK@@UAEXI@Z 10001f70 f i zoom_native_sdk_wrap_core.obj
 0001:00000fb0       ?onFreeMeetingRemainTimeStopCountDown@IMeetingConfigurationWrap@ZOOMSDK@@UAEXXZ 10001fb0 f i zoom_native_sdk_wrap_core.obj
 0001:00000fe0       ?onFreeMeetingNeedToUpgrade@IMeetingConfigurationWrap@ZOOMSDK@@UAEXW4FreeMeetingNeedUpgradeType@IMeetingConfigurationFreeMeetingEvent@2@PB_W@Z 10001fe0 f i zoom_native_sdk_wrap_core.obj
 0001:00001040       ?onFreeMeetingUpgradeToGiftFreeTrialStart@IMeetingConfigurationWrap@ZOOMSDK@@UAEXXZ 10002040 f i zoom_native_sdk_wrap_core.obj
 0001:00001070       ?onFreeMeetingUpgradeToGiftFreeTrialStop@IMeetingConfigurationWrap@ZOOMSDK@@UAEXXZ 10002070 f i zoom_native_sdk_wrap_core.obj
 0001:000010a0       ?onFreeMeetingUpgradeToProMeeting@IMeetingConfigurationWrap@ZOOMSDK@@UAEXXZ 100020a0 f i zoom_native_sdk_wrap_core.obj
 0001:000010d0       ??0IMeetingUIControllerWrap@ZOOMSDK@@QAE@XZ 100020d0 f i zoom_native_sdk_wrap_core.obj
 0001:00001150       ?onInviteBtnClicked@IMeetingUIControllerWrap@ZOOMSDK@@UAEXAA_N@Z 10002150 f i zoom_native_sdk_wrap_core.obj
 0001:00001180       ?onEndMeetingBtnClicked@IMeetingUIControllerWrap@ZOOMSDK@@UAEXXZ 10002180 f i zoom_native_sdk_wrap_core.obj
 0001:00001180       ?onAllowPanelistStartVideoNotification@IMeetingWebinarControllerWrap@ZOOMSDK@@UAEXXZ 10002180 f i zoom_native_sdk_wrap_core.obj
 0001:000011b0       ?onDisallowPanelistStartVideoNotification@IMeetingWebinarControllerWrap@ZOOMSDK@@UAEXXZ 100021b0 f i zoom_native_sdk_wrap_core.obj
 0001:000011b0       ?onParticipantListBtnClicked@IMeetingUIControllerWrap@ZOOMSDK@@UAEXXZ 100021b0 f i zoom_native_sdk_wrap_core.obj
 0001:000011e0       ?onCustomLiveStreamMenuClicked@IMeetingUIControllerWrap@ZOOMSDK@@UAEXXZ 100021e0 f i zoom_native_sdk_wrap_core.obj
 0001:000011e0       ?onSelfAllowTalkNotification@IMeetingWebinarControllerWrap@ZOOMSDK@@UAEXXZ 100021e0 f i zoom_native_sdk_wrap_core.obj
 0001:00001210       ?onZoomInviteDialogFailed@IMeetingUIControllerWrap@ZOOMSDK@@UAEXXZ 10002210 f i zoom_native_sdk_wrap_core.obj
 0001:00001210       ?onSelfDisallowTalkNotification@IMeetingWebinarControllerWrap@ZOOMSDK@@UAEXXZ 10002210 f i zoom_native_sdk_wrap_core.obj
 0001:00001240       ?onCCBTNClicked@IMeetingUIControllerWrap@ZOOMSDK@@UAEXXZ 10002240 f i zoom_native_sdk_wrap_core.obj
 0001:00001240       ?onAllowAttendeeChatNotification@IMeetingWebinarControllerWrap@ZOOMSDK@@UAEXXZ 10002240 f i zoom_native_sdk_wrap_core.obj
 0001:00001270       ?onAudioBtnClicked@IMeetingUIControllerWrap@ZOOMSDK@@UAEXUtagAudioBtnClickedCallbackInfo@2@@Z 10002270 f i zoom_native_sdk_wrap_core.obj
 0001:000012d0       ?onAudioMenuBtnClicked@IMeetingUIControllerWrap@ZOOMSDK@@UAEXXZ 100022d0 f i zoom_native_sdk_wrap_core.obj
 0001:00001300       ?onBreakoutRoomBtnClicked@IMeetingUIControllerWrap@ZOOMSDK@@UAEXXZ 10002300 f i zoom_native_sdk_wrap_core.obj
 0001:00001330       ?onComputerCamDeviceChanged@IVideoSettingContextWrap@ZOOMSDK@@UAEXPAV?$IList@PAVICameraInfo@ZOOMSDK@@@2@@Z 10002330 f i zoom_native_sdk_wrap_core.obj
 0001:00001330       ?onPromptAttendee2PanelistResult@IMeetingWebinarControllerWrap@ZOOMSDK@@UAEXH@Z 10002330 f i zoom_native_sdk_wrap_core.obj
 0001:00001330       ?onComputerMicDeviceChanged@IAudioSettingContextWrap@ZOOMSDK@@UAEXPAV?$IList@PAVIMicInfo@ZOOMSDK@@@2@@Z 10002330 f i zoom_native_sdk_wrap_core.obj
 0001:00001330       ?onCustomizedAnnotationObjDestroyed@ICustomizedAnnotationControllerWrap@ZOOMSDK@@UAEXPAVICustomizedAnnotationObj@2@@Z 10002330 f i zoom_native_sdk_wrap_core.obj
 0001:00001330       ?onLiveStreamStatusChange@IMeetingLiveStreamControllerWrap@ZOOMSDK@@UAEXW4LiveStreamStatus@2@@Z 10002330 f i zoom_native_sdk_wrap_core.obj
 0001:00001330       ?onWatingRoomUserJoin@IMeetingWaitingRoomControllerWrap@ZOOMSDK@@UAEXI@Z 10002330 f i zoom_native_sdk_wrap_core.obj
 0001:00001330       ?OnBreakoutRoomsStartedNotification@IMeetingBreakoutRoomsControllerWrap@ZOOMSDK@@UAEXPB_W@Z 10002330 f i zoom_native_sdk_wrap_core.obj
 0001:00001330       ?onCalloutStatusNotify@IMeetingH323HelperWrap@ZOOMSDK@@UAEXW4H323CalloutStatus@2@@Z 10002330 f i zoom_native_sdk_wrap_core.obj
 0001:00001370       ?onSupportAnnotationStatus@IAnnotationControllerWrap@ZOOMSDK@@UAEXI_N@Z 10002370 f i zoom_native_sdk_wrap_core.obj
 0001:000013c0       ?onControllerStatusChanged@ICameraControllerWrap@ZOOMSDK@@UAEX_N@Z 100023c0 f i zoom_native_sdk_wrap_core.obj
 0001:000013c0       ?onAssignedToSendCC@IClosedCaptionControllerWrap@ZOOMSDK@@UAEX_N@Z 100023c0 f i zoom_native_sdk_wrap_core.obj
 0001:00001400       ??0IMeetingVideoControllerWrap@ZOOMSDK@@QAE@XZ 10002400 f i zoom_native_sdk_wrap_core.obj
 0001:00001470       ?onUserVideoStatusChange@IMeetingVideoControllerWrap@ZOOMSDK@@UAEXIW4VideoStatus@2@@Z 10002470 f i zoom_native_sdk_wrap_core.obj
 0001:000014c0       ?onSpotlightVideoChangeNotification@IMeetingVideoControllerWrap@ZOOMSDK@@UAEX_NI@Z 100024c0 f i zoom_native_sdk_wrap_core.obj
 0001:00001520       ?onHostRequestStartVideo@IMeetingVideoControllerWrap@ZOOMSDK@@UAEXPAVIRequestStartVideoHandler@2@@Z 10002520 f i zoom_native_sdk_wrap_core.obj
 0001:00001570       ?onActiveSpeakerVideoUserChanged@IMeetingVideoControllerWrap@ZOOMSDK@@UAEXI@Z 10002570 f i zoom_native_sdk_wrap_core.obj
 0001:000015c0       ?onActiveVideoUserChanged@IMeetingVideoControllerWrap@ZOOMSDK@@UAEXI@Z 100025c0 f i zoom_native_sdk_wrap_core.obj
 0001:00001610       ?onLockShareStatus@IMeetingShareControllerWrap@ZOOMSDK@@UAEX_N@Z 10002610 f i zoom_native_sdk_wrap_core.obj
 0001:00001650       ?onShareContentNotification@IMeetingShareControllerWrap@ZOOMSDK@@UAEXAAUtagShareInfo@2@@Z 10002650 f i zoom_native_sdk_wrap_core.obj
 0001:00001680       ?onMultiShareSwitchToSingleShareNeedConfirm@IMeetingShareControllerWrap@ZOOMSDK@@UAEXPAVIShareSwitchMultiToSingleConfirmHandler@2@@Z 10002680 f i zoom_native_sdk_wrap_core.obj
 0001:00001680       ?onCloudRecordingStatus@IMeetingRecordingControllerWrap@ZOOMSDK@@UAEXW4RecordingStatus@2@@Z 10002680 f i zoom_native_sdk_wrap_core.obj
 0001:000016d0       ?onDepromptPanelist2AttendeeResult@IMeetingWebinarControllerWrap@ZOOMSDK@@UAEXH@Z 100026d0 f i zoom_native_sdk_wrap_core.obj
 0001:000016d0       ?onUserActiveAudioChange@IMeetingAudioControllerWrap@ZOOMSDK@@UAEXPAV?$IList@I@2@@Z 100026d0 f i zoom_native_sdk_wrap_core.obj
 0001:000016d0       ?onComputerSpeakerDeviceChanged@IAudioSettingContextWrap@ZOOMSDK@@UAEXPAV?$IList@PAVISpeakerInfo@ZOOMSDK@@@2@@Z 100026d0 f i zoom_native_sdk_wrap_core.obj
 0001:000016d0       ?onWatingRoomUserLeft@IMeetingWaitingRoomControllerWrap@ZOOMSDK@@UAEXI@Z 100026d0 f i zoom_native_sdk_wrap_core.obj
 0001:000016d0       ?onChatStautsChangedNotification@IMeetingChatControllerWrap@ZOOMSDK@@UAEXPAUtagChatStatus@2@@Z 100026d0 f i zoom_native_sdk_wrap_core.obj
 0001:000016d0       ?onRecording2MP4Processing@IMeetingRecordingControllerWrap@ZOOMSDK@@UAEXH@Z 100026d0 f i zoom_native_sdk_wrap_core.obj
 0001:00001710       ?onRecording2MP4Done@IMeetingRecordingControllerWrap@ZOOMSDK@@UAEX_NHPB_W@Z 10002710 f i zoom_native_sdk_wrap_core.obj
 0001:00001770       ?onRecordPriviligeChanged@IMeetingRecordingControllerWrap@ZOOMSDK@@UAEX_N@Z 10002770 f i zoom_native_sdk_wrap_core.obj
 0001:000017c0       ?onCustomizedLocalRecordingSourceNotification@IMeetingRecordingControllerWrap@ZOOMSDK@@UAEXPAVICustomizedLocalRecordingLayoutHelper@2@@Z 100027c0 f i zoom_native_sdk_wrap_core.obj
 0001:00001810       ?onClosedCaptionMsgReceived@IClosedCaptionControllerWrap@ZOOMSDK@@UAEXPB_W_J@Z 10002810 f i zoom_native_sdk_wrap_core.obj
 0001:00001810       ?onParingH323Result@IMeetingH323HelperWrap@ZOOMSDK@@UAEXW4H323ParingResult@2@_K@Z 10002810 f i zoom_native_sdk_wrap_core.obj
 0001:00001810       ?onScheduleOrEditMeeting@IPreMeetingServiceWrap@ZOOMSDK@@UAEXW4PremeetingAPIResult@2@_K@Z 10002810 f i zoom_native_sdk_wrap_core.obj
 0001:00001870       ??0IMeetingWebinarControllerWrap@ZOOMSDK@@QAE@XZ 10002870 f i zoom_native_sdk_wrap_core.obj
 0001:000018e0       ?onDisallowAttendeeChatNotification@IMeetingWebinarControllerWrap@ZOOMSDK@@UAEXXZ 100028e0 f i zoom_native_sdk_wrap_core.obj
 0001:00001910       ?onAttendeeAudioStatusNotification@IMeetingWebinarControllerWrap@ZOOMSDK@@UAEXI_N0@Z 10002910 f i zoom_native_sdk_wrap_core.obj
 0001:00001980       ?onNeedRealNameAuthMeetingNotification@IZoomRealNameAuthMeetingHelperWrap@ZOOMSDK@@UAEXPAV?$IVector@PAVIZoomRealNameAuthCountryInfo@@@@PBDPAVIZoomRetrieveSMSVerificationCodeHandler@@@Z 10002980 f i zoom_native_sdk_wrap_core.obj
 0001:000019e0       ??_EIZoomRealNameAuthMeetingHelperWrap@ZOOMSDK@@UAEPAXI@Z 100029e0 f i * CIL library *:* CIL module *
 0001:000019e0       ??_GIZoomRealNameAuthMeetingHelperWrap@ZOOMSDK@@UAEPAXI@Z 100029e0 f i zoom_native_sdk_wrap_core.obj
 0001:00001a10       ??1IZoomRealNameAuthMeetingHelperWrap@ZOOMSDK@@UAE@XZ 10002a10 f i zoom_native_sdk_wrap_core.obj
 0001:00001a80       ??0IMeetingServiceWrap@ZOOMSDK@@AAE@XZ 10002a80 f i zoom_native_sdk_wrap_core.obj
 0001:00001e40       ?onMeetingStatusChanged@IMeetingServiceWrap@ZOOMSDK@@UAEXW4MeetingStatus@2@H@Z 10002e40 f i zoom_native_sdk_wrap_core.obj
 0001:00001e90       ?onMeetingSecureKeyNotification@IMeetingServiceWrap@ZOOMSDK@@UAEXPBDHPAVIMeetingExternalSecureKeyHandler@2@@Z 10002e90 f i zoom_native_sdk_wrap_core.obj
 0001:00001f00       ?onMeetingStatisticsWarningNotification@IMeetingServiceWrap@ZOOMSDK@@UAEXW4StatisticsWarningType@2@@Z 10002f00 f i zoom_native_sdk_wrap_core.obj
 0001:00001f50       ?onMeetingParameterNotification@IMeetingServiceWrap@ZOOMSDK@@UAEXPBUtagMeetingParameter@2@@Z 10002f50 f i zoom_native_sdk_wrap_core.obj
 0001:00001fa0       ??1IMeetingConfigurationWrap@ZOOMSDK@@QAE@XZ 10002fa0 f i zoom_native_sdk_wrap_core.obj
 0001:00002130       ??1IMeetingUIControllerWrap@ZOOMSDK@@QAE@XZ 10003130 f i zoom_native_sdk_wrap_core.obj
 0001:000022a0       ??1IMeetingVideoControllerWrap@ZOOMSDK@@QAE@XZ 100032a0 f i zoom_native_sdk_wrap_core.obj
 0001:00002380       ??1IAudioSettingContextWrap@ZOOMSDK@@QAE@XZ 10003380 f i zoom_native_sdk_wrap_core.obj
 0001:00002380       ??1IMeetingShareControllerWrap@ZOOMSDK@@QAE@XZ 10003380 f i zoom_native_sdk_wrap_core.obj
 0001:00002410       ??1IMeetingParticipantsControllerWrap@ZOOMSDK@@QAE@XZ 10003410 f i zoom_native_sdk_wrap_core.obj
 0001:00002410       ??1IMeetingRecordingControllerWrap@ZOOMSDK@@QAE@XZ 10003410 f i zoom_native_sdk_wrap_core.obj
 0001:000024f0       ??1IMeetingWebinarControllerWrap@ZOOMSDK@@QAE@XZ 100034f0 f i zoom_native_sdk_wrap_core.obj
 0001:00002640       ??1IMeetingServiceWrap@ZOOMSDK@@QAE@XZ 10003640 f i zoom_native_sdk_wrap_core.obj
 0001:00002950       ?GetInst@IPreMeetingServiceWrap@ZOOMSDK@@CAAAV12@XZ 10003950 f i zoom_native_sdk_wrap_core.obj
 0001:000029e0       ??1IPreMeetingServiceWrap@ZOOMSDK@@QAE@XZ 100039e0 f i zoom_native_sdk_wrap_core.obj
 0001:00002a60       ?onDefaultSpeakerDeviceChanged@IAudioSettingContextWrap@ZOOMSDK@@UAEXPB_W0@Z 10003a60 f i zoom_native_sdk_wrap_core.obj
 0001:00002ac0       ?onCloudRecordingStorageInfo@IRecordingSettingContextWrap@ZOOMSDK@@UAEX_J0_N@Z 10003ac0 f i zoom_native_sdk_wrap_core.obj
 0001:00002b40       ??0ISettingServiceWrap@ZOOMSDK@@AAE@XZ 10003b40 f i zoom_native_sdk_wrap_core.obj
 0001:00002c00       ??1ISettingServiceWrap@ZOOMSDK@@QAE@XZ 10003c00 f i zoom_native_sdk_wrap_core.obj
 0001:00002c80       ??0ICustomizedResourceHelperWrap@ZOOMSDK@@QAE@XZ 10003c80 f i zoom_native_sdk_wrap_core.obj
 0001:00002d60       ??1ICustomizedResourceHelperWrap@ZOOMSDK@@QAE@XZ 10003d60 f i zoom_native_sdk_wrap_core.obj
 0001:00002de0       ?GetInst@CSDKWrap@ZOOMSDK@@SAAAV12@XZ 10003de0 f   zoom_native_sdk_wrap_core.obj
 0001:00002e30       ?InitSDK@CSDKWrap@ZOOMSDK@@QAE?AW4SDKError@2@PB_WAAUtagInitParam@2@@Z 10003e30 f   zoom_native_sdk_wrap_core.obj
 0001:00003040       ?GetAuthServiceWrap@CSDKWrap@ZOOMSDK@@QAEAAVIAuthServiceWrap@2@XZ 10004040 f   zoom_native_sdk_wrap_core.obj
 0001:000030a0       ?GetMeetingServiceWrap@CSDKWrap@ZOOMSDK@@QAEAAVIMeetingServiceWrap@2@XZ 100040a0 f   zoom_native_sdk_wrap_core.obj
 0001:00003100       ??_ECSDKImpl@@UAEPAXI@Z    10004100 f i * CIL library *:* CIL module *
 0001:00003100       ??_GCSDKImpl@@UAEPAXI@Z    10004100 f i zoom_native_sdk_wrap_core.obj
 0001:00003130       ?GetInst@CSDKImpl@@SAAAV1@XZ 10004130 f   zoom_native_sdk_wrap_core.obj
 0001:000031a0       ?Reset@CSDKImpl@@AAEXXZ    100041a0 f   zoom_native_sdk_wrap_core.obj
 0001:00003260       ?dummyproc@@YAXXZ          10004260 f   zoom_native_sdk_wrap_core.obj
 0001:00003280       ?ConfigSDKModule@CSDKImpl@@QAE_NAAV?$basic_string@_WU?$char_traits@_W@std@@V?$allocator@_W@2@@std@@@Z 10004280 f   zoom_native_sdk_wrap_core.obj
 0001:000036b0       ?InitSDK@CSDKImpl@@UAE?AW4SDKError@ZOOMSDK@@AAUtagInitParam@3@@Z 100046b0 f   zoom_native_sdk_wrap_core.obj
 0001:000036d0       ?CreateMeetingService@CSDKImpl@@UAE?AW4SDKError@ZOOMSDK@@PAPAVIMeetingService@3@@Z 100046d0 f   zoom_native_sdk_wrap_core.obj
 0001:000036f0       ?DestroyMeetingService@CSDKImpl@@UAE?AW4SDKError@ZOOMSDK@@PAVIMeetingService@3@@Z 100046f0 f   zoom_native_sdk_wrap_core.obj
 0001:00003710       ?CreateAuthService@CSDKImpl@@UAE?AW4SDKError@ZOOMSDK@@PAPAVIAuthService@3@@Z 10004710 f   zoom_native_sdk_wrap_core.obj
 0001:00003730       ?DestroyAuthService@CSDKImpl@@UAE?AW4SDKError@ZOOMSDK@@PAVIAuthService@3@@Z 10004730 f   zoom_native_sdk_wrap_core.obj
 0001:00003750       ?CreateSettingService@CSDKImpl@@UAE?AW4SDKError@ZOOMSDK@@PAPAVISettingService@3@@Z 10004750 f   zoom_native_sdk_wrap_core.obj
 0001:00003770       ?DestroySettingService@CSDKImpl@@UAE?AW4SDKError@ZOOMSDK@@PAVISettingService@3@@Z 10004770 f   zoom_native_sdk_wrap_core.obj
 0001:00003790       ?CreateCalenderService@CSDKImpl@@UAE?AW4SDKError@ZOOMSDK@@PAPAVICalenderService@3@@Z 10004790 f   zoom_native_sdk_wrap_core.obj
 0001:000037b0       ?DestroyCalenderService@CSDKImpl@@UAE?AW4SDKError@ZOOMSDK@@PAVICalenderService@3@@Z 100047b0 f   zoom_native_sdk_wrap_core.obj
 0001:000037d0       ?CreatePreMeetingService@CSDKImpl@@UAE?AW4SDKError@ZOOMSDK@@PAPAVIPreMeetingService@3@@Z 100047d0 f   zoom_native_sdk_wrap_core.obj
 0001:000037f0       ?DestroyPreMeetingService@CSDKImpl@@UAE?AW4SDKError@ZOOMSDK@@PAVIPreMeetingService@3@@Z 100047f0 f   zoom_native_sdk_wrap_core.obj
 0001:00003810       ?CreateNetworkConnectionHelper@CSDKImpl@@UAE?AW4SDKError@ZOOMSDK@@PAPAVINetworkConnectionHelper@3@@Z 10004810 f   zoom_native_sdk_wrap_core.obj
 0001:00003830       ?DestroyNetworkConnectionHelper@CSDKImpl@@UAE?AW4SDKError@ZOOMSDK@@PAVINetworkConnectionHelper@3@@Z 10004830 f   zoom_native_sdk_wrap_core.obj
 0001:00003850       ?GetVersion@CSDKImpl@@UAEPB_WXZ 10004850 f   zoom_native_sdk_wrap_core.obj
 0001:00003860       ?CleanUPSDK@CSDKImpl@@UAE?AW4SDKError@ZOOMSDK@@XZ 10004860 f   zoom_native_sdk_wrap_core.obj
 0001:00003870       ?CreateEmbeddedBrowser@CSDKImpl@@UAE?AW4SDKError@ZOOMSDK@@PAPAVIEmbeddedBrowser@3@PAUHWND__@@@Z 10004870 f   zoom_native_sdk_wrap_core.obj
 0001:00003890       ?DestroyEmbeddedBrowser@CSDKImpl@@UAE?AW4SDKError@ZOOMSDK@@PAVIEmbeddedBrowser@3@@Z 10004890 f   zoom_native_sdk_wrap_core.obj
 0001:000038b0       ?RetrieveUIHooker@CSDKImpl@@UAE?AW4SDKError@ZOOMSDK@@PAPAVIUIHooker@3@@Z 100048b0 f   zoom_native_sdk_wrap_core.obj
 0001:000038d0       ?RetrieveCustomizedResourceHelper@CSDKImpl@@UAE?AW4SDKError@ZOOMSDK@@PAPAVICustomizedResourceHelper@3@@Z 100048d0 f   zoom_native_sdk_wrap_core.obj
 0001:000038f0       ?CreateCustomizedUIMgr@CSDKImpl@@UAE?AW4SDKError@ZOOMSDK@@PAPAVICustomizedUIMgr@3@@Z 100048f0 f   zoom_native_sdk_wrap_core.obj
 0001:00003910       ?DestroyCustomizedUIMgr@CSDKImpl@@UAE?AW4SDKError@ZOOMSDK@@PAVICustomizedUIMgr@3@@Z 10004910 f   zoom_native_sdk_wrap_core.obj
 0001:00003930       ?RetrieveAudioRawDataChannel@CSDKImpl@@UAE?AW4SDKError@ZOOMSDK@@PAPAVIAudioRawDataChannel@ZOOMSDKRAWDATA@@@Z 10004930 f   zoom_native_sdk_wrap_core.obj
 0001:00003990       ?RetrieveVideoRawDataChannel@CSDKImpl@@UAE?AW4SDKError@ZOOMSDK@@PAPAVIVideoRawDataChannel@ZOOMSDKRAWDATA@@@Z 10004990 f   zoom_native_sdk_wrap_core.obj
 0001:000039f0       ?RetrieveShareRawDataChannel@CSDKImpl@@UAE?AW4SDKError@ZOOMSDK@@PAPAVIShareRawDataChannel@ZOOMSDKRAWDATA@@@Z 100049f0 f   zoom_native_sdk_wrap_core.obj
 0001:00003a50       ?HasRawDataLicense@CSDKImpl@@UAE?AW4SDKError@ZOOMSDK@@XZ 10004a50 f   zoom_native_sdk_wrap_core.obj
 0001:00003aa0       _DllMain@12                10004aa0 f   zoom_native_sdk_wrap_core.obj
 0001:00003ae0       ?AddCustomizedPictureResource@ICustomizedResourceHelperWrap@ZOOMSDK@@UAE?AW4SDKError@2@PB_W0@Z 10004ae0 f   zoom_native_sdk_wrap_core.obj
 0001:00003b20       ?AddCustomizedStringResource@ICustomizedResourceHelperWrap@ZOOMSDK@@UAE?AW4SDKError@2@W4SDKCustomizedStringType@2@PB_W@Z 10004b20 f   zoom_native_sdk_wrap_core.obj
 0001:00003ba0       ?AddCustomizedURLResource@ICustomizedResourceHelperWrap@ZOOMSDK@@UAE?AW4SDKError@2@W4SDKCustomizedURLType@2@PB_W@Z 10004ba0 f   zoom_native_sdk_wrap_core.obj
 0001:00003c20       ?ApplyAll@ICustomizedResourceHelperWrap@ZOOMSDK@@QAEXXZ 10004c20 f   zoom_native_sdk_wrap_core.obj
 0001:00003e00       ??1ICustomizedAnnotationControllerWrap@ZOOMSDK@@QAE@XZ 10004e00 f   zoom_native_sdk_wrap_core.obj
 0001:00003e60       ?wsTOs@@YA?AV?$basic_string@DU?$char_traits@D@std@@V?$allocator@D@2@@std@@ABV?$basic_string@_WU?$char_traits@_W@std@@V?$allocator@_W@2@@2@@Z 10004e60 f   zoom_native_sdk_wrap_core.obj
 0001:00003e60       ?zs2s@@YA?AV?$basic_string@DU?$char_traits@D@std@@V?$allocator@D@2@@std@@ABV?$basic_string@_WU?$char_traits@_W@std@@V?$allocator@_W@2@@2@@Z 10004e60 f   zoom_v8_to_c.obj
 0001:00003ee0       ?DummyFunc@@YAXXZ          10004ee0 f   zoom_native_sdk_wrap_core.obj
 0001:00003f00       ?InitSDK@ZNativeSDKWrap@@QAE?AW4ZNSDKError@@AAU_ZNInitParam@@@Z 10004f00 f   zoom_native_sdk_wrap_core.obj
 0001:000040b0       ?GetVersion@ZNativeSDKWrap@@QAE?AV?$basic_string@_WU?$char_traits@_W@std@@V?$allocator@_W@2@@std@@XZ 100050b0 f   zoom_native_sdk_wrap_core.obj
 0001:00004160       ??0ZNativeSDKWrap@@QAE@XZ  10005160 f   zoom_native_sdk_wrap_core.obj
 0001:00004210       ??_EZNativeSDKWrap@@UAEPAXI@Z 10005210 f i * CIL library *:* CIL module *
 0001:00004210       ??_GZNativeSDKWrap@@UAEPAXI@Z 10005210 f i zoom_native_sdk_wrap_core.obj
 0001:00004240       ??1ZNativeSDKWrap@@UAE@XZ  10005240 f   zoom_native_sdk_wrap_core.obj
 0001:000042c0       ?clear@?$_Tree@V?$_Tmap_traits@V?$basic_string@_WU?$char_traits@_W@std@@V?$allocator@_W@2@@std@@V12@U?$less@V?$basic_string@_WU?$char_traits@_W@std@@V?$allocator@_W@2@@std@@@2@V?$allocator@U?$pair@$$CBV?$basic_string@_WU?$char_traits@_W@std@@V?$allocator@_W@2@@std@@V12@@std@@@2@$0A@@std@@@std@@QAEXXZ 100052c0 f i zoom_native_sdk_wrap_core.obj
 0001:00004310       ??1?$basic_string@_WU?$char_traits@_W@std@@V?$allocator@_W@2@@std@@QAE@XZ 10005310 f i zoom_native_sdk_wrap_core.obj
 0001:00004350       ??0?$basic_string@_WU?$char_traits@_W@std@@V?$allocator@_W@2@@std@@QAE@PB_W@Z 10005350 f i zoom_native_sdk_wrap_core.obj
 0001:000043b0       ??0?$basic_string@_WU?$char_traits@_W@std@@V?$allocator@_W@2@@std@@QAE@ABV01@@Z 100053b0 f i zoom_native_sdk_wrap_core.obj
 0001:000043e0       ??1?$basic_string@DU?$char_traits@D@std@@V?$allocator@D@2@@std@@QAE@XZ 100053e0 f i zoom_native_sdk_wrap_core.obj
 0001:00004420       ?_Erase@?$_Tree@V?$_Tmap_traits@W4SDKCustomizedStringType@ZOOMSDK@@V?$basic_string@_WU?$char_traits@_W@std@@V?$allocator@_W@2@@std@@U?$less@W4SDKCustomizedStringType@ZOOMSDK@@@4@V?$allocator@U?$pair@$$CBW4SDKCustomizedStringType@ZOOMSDK@@V?$basic_string@_WU?$char_traits@_W@std@@V?$allocator@_W@2@@std@@@std@@@4@$0A@@std@@@std@@IAEXPAU?$_Tree_node@U?$pair@$$CBW4SDKCustomizedStringType@ZOOMSDK@@V?$basic_string@_WU?$char_traits@_W@std@@V?$allocator@_W@2@@std@@@std@@PAX@2@@Z 10005420 f i zoom_native_sdk_wrap_core.obj
 0001:00004420       ?_Erase@?$_Tree@V?$_Tmap_traits@W4SDKCustomizedURLType@ZOOMSDK@@V?$basic_string@_WU?$char_traits@_W@std@@V?$allocator@_W@2@@std@@U?$less@W4SDKCustomizedURLType@ZOOMSDK@@@4@V?$allocator@U?$pair@$$CBW4SDKCustomizedURLType@ZOOMSDK@@V?$basic_string@_WU?$char_traits@_W@std@@V?$allocator@_W@2@@std@@@std@@@4@$0A@@std@@@std@@IAEXPAU?$_Tree_node@U?$pair@$$CBW4SDKCustomizedURLType@ZOOMSDK@@V?$basic_string@_WU?$char_traits@_W@std@@V?$allocator@_W@2@@std@@@std@@PAX@2@@Z 10005420 f i zoom_native_sdk_wrap_core.obj
 0001:00004490       ?_Erase@?$_Tree@V?$_Tmap_traits@V?$basic_string@_WU?$char_traits@_W@std@@V?$allocator@_W@2@@std@@V12@U?$less@V?$basic_string@_WU?$char_traits@_W@std@@V?$allocator@_W@2@@std@@@2@V?$allocator@U?$pair@$$CBV?$basic_string@_WU?$char_traits@_W@std@@V?$allocator@_W@2@@std@@V12@@std@@@2@$0A@@std@@@std@@IAEXPAU?$_Tree_node@U?$pair@$$CBV?$basic_string@_WU?$char_traits@_W@std@@V?$allocator@_W@2@@std@@V12@@std@@PAX@2@@Z 10005490 f i zoom_native_sdk_wrap_core.obj
 0001:000044d0       ?assign@?$basic_string@_WU?$char_traits@_W@std@@V?$allocator@_W@2@@std@@QAEAAV12@PB_WI@Z 100054d0 f i zoom_native_sdk_wrap_core.obj
 0001:000045d0       ?assign@?$basic_string@_WU?$char_traits@_W@std@@V?$allocator@_W@2@@std@@QAEAAV12@ABV12@II@Z 100055d0 f i zoom_native_sdk_wrap_core.obj
 0001:000046f0       ?_Assign_rv@?$basic_string@_WU?$char_traits@_W@std@@V?$allocator@_W@2@@std@@QAEX$$QAV12@@Z 100056f0 f i zoom_native_sdk_wrap_core.obj
 0001:00004760       ?_Tidy@?$basic_string@DU?$char_traits@D@std@@V?$allocator@D@2@@std@@QAEX_NI@Z 10005760 f i zoom_native_sdk_wrap_core.obj
 0001:000047c0       ?assign@?$basic_string@DU?$char_traits@D@std@@V?$allocator@D@2@@std@@QAEAAV12@ID@Z 100057c0 f i zoom_native_sdk_wrap_core.obj
 0001:00004880       ?_Assign_rv@?$basic_string@DU?$char_traits@D@std@@V?$allocator@D@2@@std@@QAEX$$QAV12@@Z 10005880 f i zoom_native_sdk_wrap_core.obj
 0001:000048f0       ?erase@?$_Tree@V?$_Tmap_traits@W4SDKCustomizedStringType@ZOOMSDK@@V?$basic_string@_WU?$char_traits@_W@std@@V?$allocator@_W@2@@std@@U?$less@W4SDKCustomizedStringType@ZOOMSDK@@@4@V?$allocator@U?$pair@$$CBW4SDKCustomizedStringType@ZOOMSDK@@V?$basic_string@_WU?$char_traits@_W@std@@V?$allocator@_W@2@@std@@@std@@@4@$0A@@std@@@std@@QAE?AV?$_Tree_iterator@V?$_Tree_val@U?$_Tree_simple_types@U?$pair@$$CBW4SDKCustomizedStringType@ZOOMSDK@@V?$basic_string@_WU?$char_traits@_W@std@@V?$allocator@_W@2@@std@@@std@@@std@@@std@@@2@V?$_Tree_const_iterator@V?$_Tree_val@U?$_Tree_simple_types@U?$pair@$$CBW4SDKCustomizedStringType@ZOOMSDK@@V?$basic_string@_WU?$char_traits@_W@std@@V?$allocator@_W@2@@std@@@std@@@std@@@std@@@2@0@Z 100058f0 f i zoom_native_sdk_wrap_core.obj
 0001:000048f0       ?erase@?$_Tree@V?$_Tmap_traits@W4SDKCustomizedURLType@ZOOMSDK@@V?$basic_string@_WU?$char_traits@_W@std@@V?$allocator@_W@2@@std@@U?$less@W4SDKCustomizedURLType@ZOOMSDK@@@4@V?$allocator@U?$pair@$$CBW4SDKCustomizedURLType@ZOOMSDK@@V?$basic_string@_WU?$char_traits@_W@std@@V?$allocator@_W@2@@std@@@std@@@4@$0A@@std@@@std@@QAE?AV?$_Tree_iterator@V?$_Tree_val@U?$_Tree_simple_types@U?$pair@$$CBW4SDKCustomizedURLType@ZOOMSDK@@V?$basic_string@_WU?$char_traits@_W@std@@V?$allocator@_W@2@@std@@@std@@@std@@@std@@@2@V?$_Tree_const_iterator@V?$_Tree_val@U?$_Tree_simple_types@U?$pair@$$CBW4SDKCustomizedURLType@ZOOMSDK@@V?$basic_string@_WU?$char_traits@_W@std@@V?$allocator@_W@2@@std@@@std@@@std@@@std@@@2@0@Z 100058f0 f i zoom_native_sdk_wrap_core.obj
 0001:000049b0       ?erase@?$_Tree@V?$_Tmap_traits@V?$basic_string@_WU?$char_traits@_W@std@@V?$allocator@_W@2@@std@@V12@U?$less@V?$basic_string@_WU?$char_traits@_W@std@@V?$allocator@_W@2@@std@@@2@V?$allocator@U?$pair@$$CBV?$basic_string@_WU?$char_traits@_W@std@@V?$allocator@_W@2@@std@@V12@@std@@@2@$0A@@std@@@std@@QAE?AV?$_Tree_iterator@V?$_Tree_val@U?$_Tree_simple_types@U?$pair@$$CBV?$basic_string@_WU?$char_traits@_W@std@@V?$allocator@_W@2@@std@@V12@@std@@@std@@@std@@@2@V?$_Tree_const_iterator@V?$_Tree_val@U?$_Tree_simple_types@U?$pair@$$CBV?$basic_string@_WU?$char_traits@_W@std@@V?$allocator@_W@2@@std@@V12@@std@@@std@@@std@@@2@0@Z 100059b0 f i zoom_native_sdk_wrap_core.obj
 0001:00004a60       ?deallocate@?$_Wrap_alloc@V?$allocator@_W@std@@@std@@QAEXPA_WI@Z 10005a60 f i zoom_native_sdk_wrap_core.obj
 0001:00004ac0       ?deallocate@?$_Wrap_alloc@V?$allocator@D@std@@@std@@QAEXPADI@Z 10005ac0 f i zoom_native_sdk_wrap_core.obj
 0001:00004b10       ?_Chassign@?$basic_string@_WU?$char_traits@_W@std@@V?$allocator@_W@2@@std@@QAEXII_W@Z 10005b10 f i zoom_native_sdk_wrap_core.obj
 0001:00004b70       ?erase@?$basic_string@_WU?$char_traits@_W@std@@V?$allocator@_W@2@@std@@QAEAAV12@II@Z 10005b70 f i zoom_native_sdk_wrap_core.obj
 0001:00004c20       ?append@?$basic_string@_WU?$char_traits@_W@std@@V?$allocator@_W@2@@std@@QAEAAV12@I_W@Z 10005c20 f i zoom_native_sdk_wrap_core.obj
 0001:00004cd0       ?_Xlen@?$basic_string@DU?$char_traits@D@std@@V?$allocator@D@2@@std@@QBEXXZ 10005cd0 f i zoom_native_sdk_wrap_core.obj
 0001:00004ce0       ?_Grow@?$basic_string@DU?$char_traits@D@std@@V?$allocator@D@2@@std@@QAE_NI_N@Z 10005ce0 f i zoom_native_sdk_wrap_core.obj
 0001:00004d50       ?_Chassign@?$basic_string@DU?$char_traits@D@std@@V?$allocator@D@2@@std@@QAEXIID@Z 10005d50 f i zoom_native_sdk_wrap_core.obj
 0001:00004d90       ?erase@?$_Tree@V?$_Tmap_traits@W4SDKCustomizedStringType@ZOOMSDK@@V?$basic_string@_WU?$char_traits@_W@std@@V?$allocator@_W@2@@std@@U?$less@W4SDKCustomizedStringType@ZOOMSDK@@@4@V?$allocator@U?$pair@$$CBW4SDKCustomizedStringType@ZOOMSDK@@V?$basic_string@_WU?$char_traits@_W@std@@V?$allocator@_W@2@@std@@@std@@@4@$0A@@std@@@std@@QAE?AV?$_Tree_iterator@V?$_Tree_val@U?$_Tree_simple_types@U?$pair@$$CBW4SDKCustomizedStringType@ZOOMSDK@@V?$basic_string@_WU?$char_traits@_W@std@@V?$allocator@_W@2@@std@@@std@@@std@@@std@@@2@V?$_Tree_const_iterator@V?$_Tree_val@U?$_Tree_simple_types@U?$pair@$$CBW4SDKCustomizedStringType@ZOOMSDK@@V?$basic_string@_WU?$char_traits@_W@std@@V?$allocator@_W@2@@std@@@std@@@std@@@std@@@2@@Z 10005d90 f i zoom_native_sdk_wrap_core.obj
 0001:00004d90       ?erase@?$_Tree@V?$_Tmap_traits@W4SDKCustomizedURLType@ZOOMSDK@@V?$basic_string@_WU?$char_traits@_W@std@@V?$allocator@_W@2@@std@@U?$less@W4SDKCustomizedURLType@ZOOMSDK@@@4@V?$allocator@U?$pair@$$CBW4SDKCustomizedURLType@ZOOMSDK@@V?$basic_string@_WU?$char_traits@_W@std@@V?$allocator@_W@2@@std@@@std@@@4@$0A@@std@@@std@@QAE?AV?$_Tree_iterator@V?$_Tree_val@U?$_Tree_simple_types@U?$pair@$$CBW4SDKCustomizedURLType@ZOOMSDK@@V?$basic_string@_WU?$char_traits@_W@std@@V?$allocator@_W@2@@std@@@std@@@std@@@std@@@2@V?$_Tree_const_iterator@V?$_Tree_val@U?$_Tree_simple_types@U?$pair@$$CBW4SDKCustomizedURLType@ZOOMSDK@@V?$basic_string@_WU?$char_traits@_W@std@@V?$allocator@_W@2@@std@@@std@@@std@@@std@@@2@@Z 10005d90 f i zoom_native_sdk_wrap_core.obj
 0001:000051e0       ?erase@?$_Tree@V?$_Tmap_traits@V?$basic_string@_WU?$char_traits@_W@std@@V?$allocator@_W@2@@std@@V12@U?$less@V?$basic_string@_WU?$char_traits@_W@std@@V?$allocator@_W@2@@std@@@2@V?$allocator@U?$pair@$$CBV?$basic_string@_WU?$char_traits@_W@std@@V?$allocator@_W@2@@std@@V12@@std@@@2@$0A@@std@@@std@@QAE?AV?$_Tree_iterator@V?$_Tree_val@U?$_Tree_simple_types@U?$pair@$$CBV?$basic_string@_WU?$char_traits@_W@std@@V?$allocator@_W@2@@std@@V12@@std@@@std@@@std@@@2@V?$_Tree_const_iterator@V?$_Tree_val@U?$_Tree_simple_types@U?$pair@$$CBV?$basic_string@_WU?$char_traits@_W@std@@V?$allocator@_W@2@@std@@V12@@std@@@std@@@std@@@2@@Z 100061e0 f i zoom_native_sdk_wrap_core.obj
 0001:00005600       ?_Copy@?$basic_string@_WU?$char_traits@_W@std@@V?$allocator@_W@2@@std@@QAEXII@Z 10006600 f i zoom_native_sdk_wrap_core.obj
 0001:000056d0       ?_Copy@?$basic_string@DU?$char_traits@D@std@@V?$allocator@D@2@@std@@QAEXII@Z 100066d0 f i zoom_native_sdk_wrap_core.obj
 0001:000057c0       ?allocate@?$_Wrap_alloc@V?$allocator@_W@std@@@std@@QAEPA_WI@Z 100067c0 f i zoom_native_sdk_wrap_core.obj
 0001:00005820       ??$insert@U?$pair@PB_WPB_W@std@@X@?$map@V?$basic_string@_WU?$char_traits@_W@std@@V?$allocator@_W@2@@std@@V12@U?$less@V?$basic_string@_WU?$char_traits@_W@std@@V?$allocator@_W@2@@std@@@2@V?$allocator@U?$pair@$$CBV?$basic_string@_WU?$char_traits@_W@std@@V?$allocator@_W@2@@std@@V12@@std@@@2@@std@@QAE?AU?$pair@V?$_Tree_iterator@V?$_Tree_val@U?$_Tree_simple_types@U?$pair@$$CBV?$basic_string@_WU?$char_traits@_W@std@@V?$allocator@_W@2@@std@@V12@@std@@@std@@@std@@@std@@_N@1@$$QAU?$pair@PB_WPB_W@1@@Z 10006820 f i zoom_native_sdk_wrap_core.obj
 0001:00005880       ??$_Insert_nohint@AAU?$pair@$$CBV?$basic_string@_WU?$char_traits@_W@std@@V?$allocator@_W@2@@std@@V12@@std@@PAU?$_Tree_node@U?$pair@$$CBV?$basic_string@_WU?$char_traits@_W@std@@V?$allocator@_W@2@@std@@V12@@std@@PAX@2@@?$_Tree@V?$_Tmap_traits@V?$basic_string@_WU?$char_traits@_W@std@@V?$allocator@_W@2@@std@@V12@U?$less@V?$basic_string@_WU?$char_traits@_W@std@@V?$allocator@_W@2@@std@@@2@V?$allocator@U?$pair@$$CBV?$basic_string@_WU?$char_traits@_W@std@@V?$allocator@_W@2@@std@@V12@@std@@@2@$0A@@std@@@std@@IAE?AU?$pair@V?$_Tree_iterator@V?$_Tree_val@U?$_Tree_simple_types@U?$pair@$$CBV?$basic_string@_WU?$char_traits@_W@std@@V?$allocator@_W@2@@std@@V12@@std@@@std@@@std@@@std@@_N@1@_NAAU?$pair@$$CBV?$basic_string@_WU?$char_traits@_W@std@@V?$allocator@_W@2@@std@@V12@@1@PAU?$_Tree_node@U?$pair@$$CBV?$basic_string@_WU?$char_traits@_W@std@@V?$allocator@_W@2@@std@@V12@@std@@PAX@1@@Z 10006880 f i zoom_native_sdk_wrap_core.obj
 0001:00005960       ??$_Insert_nohint@AAU?$pair@$$CBW4SDKCustomizedURLType@ZOOMSDK@@V?$basic_string@_WU?$char_traits@_W@std@@V?$allocator@_W@2@@std@@@std@@PAU?$_Tree_node@U?$pair@$$CBW4SDKCustomizedURLType@ZOOMSDK@@V?$basic_string@_WU?$char_traits@_W@std@@V?$allocator@_W@2@@std@@@std@@PAX@2@@?$_Tree@V?$_Tmap_traits@W4SDKCustomizedURLType@ZOOMSDK@@V?$basic_string@_WU?$char_traits@_W@std@@V?$allocator@_W@2@@std@@U?$less@W4SDKCustomizedURLType@ZOOMSDK@@@4@V?$allocator@U?$pair@$$CBW4SDKCustomizedURLType@ZOOMSDK@@V?$basic_string@_WU?$char_traits@_W@std@@V?$allocator@_W@2@@std@@@std@@@4@$0A@@std@@@std@@IAE?AU?$pair@V?$_Tree_iterator@V?$_Tree_val@U?$_Tree_simple_types@U?$pair@$$CBW4SDKCustomizedURLType@ZOOMSDK@@V?$basic_string@_WU?$char_traits@_W@std@@V?$allocator@_W@2@@std@@@std@@@std@@@std@@@std@@_N@1@_NAAU?$pair@$$CBW4SDKCustomizedURLType@ZOOMSDK@@V?$basic_string@_WU?$char_traits@_W@std@@V?$allocator@_W@2@@std@@@1@PAU?$_Tree_node@U?$pair@$$CBW4SDKCustomizedURLType@ZOOMSDK@@V?$basic_string@_WU?$char_traits@_W@std@@V?$allocator@_W@2@@std@@@std@@PAX@1@@Z 10006960 f i zoom_native_sdk_wrap_core.obj
 0001:00005960       ??$_Insert_nohint@AAU?$pair@$$CBW4SDKCustomizedStringType@ZOOMSDK@@V?$basic_string@_WU?$char_traits@_W@std@@V?$allocator@_W@2@@std@@@std@@PAU?$_Tree_node@U?$pair@$$CBW4SDKCustomizedStringType@ZOOMSDK@@V?$basic_string@_WU?$char_traits@_W@std@@V?$allocator@_W@2@@std@@@std@@PAX@2@@?$_Tree@V?$_Tmap_traits@W4SDKCustomizedStringType@ZOOMSDK@@V?$basic_string@_WU?$char_traits@_W@std@@V?$allocator@_W@2@@std@@U?$less@W4SDKCustomizedStringType@ZOOMSDK@@@4@V?$allocator@U?$pair@$$CBW4SDKCustomizedStringType@ZOOMSDK@@V?$basic_string@_WU?$char_traits@_W@std@@V?$allocator@_W@2@@std@@@std@@@4@$0A@@std@@@std@@IAE?AU?$pair@V?$_Tree_iterator@V?$_Tree_val@U?$_Tree_simple_types@U?$pair@$$CBW4SDKCustomizedStringType@ZOOMSDK@@V?$basic_string@_WU?$char_traits@_W@std@@V?$allocator@_W@2@@std@@@std@@@std@@@std@@@std@@_N@1@_NAAU?$pair@$$CBW4SDKCustomizedStringType@ZOOMSDK@@V?$basic_string@_WU?$char_traits@_W@std@@V?$allocator@_W@2@@std@@@1@PAU?$_Tree_node@U?$pair@$$CBW4SDKCustomizedStringType@ZOOMSDK@@V?$basic_string@_WU?$char_traits@_W@std@@V?$allocator@_W@2@@std@@@std@@PAX@1@@Z 10006960 f i zoom_native_sdk_wrap_core.obj
 0001:00005a20       ??1_ZNAuthParam@@QAE@XZ    10006a20 f i zoom_node_addon.obj
 0001:00005a20       ??1?$pair@$$CBV?$basic_string@_WU?$char_traits@_W@std@@V?$allocator@_W@2@@std@@V12@@std@@QAE@XZ 10006a20 f i zoom_native_sdk_wrap_core.obj
 0001:00005a20       ??1_ZNVideoWallPageInfoParam@@QAE@XZ 10006a20 f i zoom_node_addon.obj
 0001:00005a20       ??1_ZNCustomizedLanguageInfo@@QAE@XZ 10006a20 f i zoom_node_addon.obj
 0001:00005a90       ?_Destroy_if_not_nil@?$_Tree@V?$_Tmap_traits@W4SDKCustomizedStringType@ZOOMSDK@@V?$basic_string@_WU?$char_traits@_W@std@@V?$allocator@_W@2@@std@@U?$less@W4SDKCustomizedStringType@ZOOMSDK@@@4@V?$allocator@U?$pair@$$CBW4SDKCustomizedStringType@ZOOMSDK@@V?$basic_string@_WU?$char_traits@_W@std@@V?$allocator@_W@2@@std@@@std@@@4@$0A@@std@@@std@@IAEXPAU?$_Tree_node@U?$pair@$$CBW4SDKCustomizedStringType@ZOOMSDK@@V?$basic_string@_WU?$char_traits@_W@std@@V?$allocator@_W@2@@std@@@std@@PAX@2@@Z 10006a90 f i zoom_native_sdk_wrap_core.obj
 0001:00005a90       ?_Destroy_if_not_nil@?$_Tree@V?$_Tmap_traits@W4SDKCustomizedURLType@ZOOMSDK@@V?$basic_string@_WU?$char_traits@_W@std@@V?$allocator@_W@2@@std@@U?$less@W4SDKCustomizedURLType@ZOOMSDK@@@4@V?$allocator@U?$pair@$$CBW4SDKCustomizedURLType@ZOOMSDK@@V?$basic_string@_WU?$char_traits@_W@std@@V?$allocator@_W@2@@std@@@std@@@4@$0A@@std@@@std@@IAEXPAU?$_Tree_node@U?$pair@$$CBW4SDKCustomizedURLType@ZOOMSDK@@V?$basic_string@_WU?$char_traits@_W@std@@V?$allocator@_W@2@@std@@@std@@PAX@2@@Z 10006a90 f i zoom_native_sdk_wrap_core.obj
 0001:00005ae0       ??F?$_Tree_unchecked_const_iterator@V?$_Tree_val@U?$_Tree_simple_types@U?$pair@$$CBW4SDKCustomizedStringType@ZOOMSDK@@V?$basic_string@_WU?$char_traits@_W@std@@V?$allocator@_W@2@@std@@@std@@@std@@@std@@U_Iterator_base0@2@@std@@QAEAAV01@XZ 10006ae0 f i zoom_native_sdk_wrap_core.obj
 0001:00005ae0       ??F?$_Tree_unchecked_const_iterator@V?$_Tree_val@U?$_Tree_simple_types@U?$pair@$$CBW4SDKCustomizedURLType@ZOOMSDK@@V?$basic_string@_WU?$char_traits@_W@std@@V?$allocator@_W@2@@std@@@std@@@std@@@std@@U_Iterator_base0@2@@std@@QAEAAV01@XZ 10006ae0 f i zoom_native_sdk_wrap_core.obj
 0001:00005ae0       ??F?$_Tree_unchecked_const_iterator@V?$_Tree_val@U?$_Tree_simple_types@U?$pair@$$CBIH@std@@@std@@@std@@U_Iterator_base0@2@@std@@QAEAAV01@XZ 10006ae0 f i zoom_node_video_raw_data.obj
 0001:00005ae0       ??F?$_Tree_unchecked_const_iterator@V?$_Tree_val@U?$_Tree_simple_types@U?$pair@$$CBIPAVIMainThreadTask@@@std@@@std@@@std@@U_Iterator_base0@2@@std@@QAEAAV01@XZ 10006ae0 f i zoom_node_video_raw_data.obj
 0001:00005ae0       ??F?$_Tree_unchecked_const_iterator@V?$_Tree_val@U?$_Tree_simple_types@U?$pair@QAXPAVUVIPC@@@std@@@std@@@std@@U_Iterator_base0@2@@std@@QAEAAV01@XZ 10006ae0 f i uv_ipc_common.obj
 0001:00005ae0       ??F?$_Tree_unchecked_const_iterator@V?$_Tree_val@U?$_Tree_simple_types@U?$pair@$$CBV?$basic_string@_WU?$char_traits@_W@std@@V?$allocator@_W@2@@std@@V12@@std@@@std@@@std@@U_Iterator_base0@2@@std@@QAEAAV01@XZ 10006ae0 f i zoom_native_sdk_wrap_core.obj
 0001:00005b40       ??$_Insert_at@AAU?$pair@$$CBV?$basic_string@_WU?$char_traits@_W@std@@V?$allocator@_W@2@@std@@V12@@std@@PAU?$_Tree_node@U?$pair@$$CBV?$basic_string@_WU?$char_traits@_W@std@@V?$allocator@_W@2@@std@@V12@@std@@PAX@2@@?$_Tree@V?$_Tmap_traits@V?$basic_string@_WU?$char_traits@_W@std@@V?$allocator@_W@2@@std@@V12@U?$less@V?$basic_string@_WU?$char_traits@_W@std@@V?$allocator@_W@2@@std@@@2@V?$allocator@U?$pair@$$CBV?$basic_string@_WU?$char_traits@_W@std@@V?$allocator@_W@2@@std@@V12@@std@@@2@$0A@@std@@@std@@IAE?AV?$_Tree_iterator@V?$_Tree_val@U?$_Tree_simple_types@U?$pair@$$CBV?$basic_string@_WU?$char_traits@_W@std@@V?$allocator@_W@2@@std@@V12@@std@@@std@@@std@@@1@_NPAU?$_Tree_node@U?$pair@$$CBV?$basic_string@_WU?$char_traits@_W@std@@V?$allocator@_W@2@@std@@V12@@std@@PAX@1@AAU?$pair@$$CBV?$basic_string@_WU?$char_traits@_W@std@@V?$allocator@_W@2@@std@@V12@@1@1@Z 10006b40 f i zoom_native_sdk_wrap_core.obj
 0001:00005d60       ??$_Insert_at@AAU?$pair@$$CBW4SDKCustomizedURLType@ZOOMSDK@@V?$basic_string@_WU?$char_traits@_W@std@@V?$allocator@_W@2@@std@@@std@@PAU?$_Tree_node@U?$pair@$$CBW4SDKCustomizedURLType@ZOOMSDK@@V?$basic_string@_WU?$char_traits@_W@std@@V?$allocator@_W@2@@std@@@std@@PAX@2@@?$_Tree@V?$_Tmap_traits@W4SDKCustomizedURLType@ZOOMSDK@@V?$basic_string@_WU?$char_traits@_W@std@@V?$allocator@_W@2@@std@@U?$less@W4SDKCustomizedURLType@ZOOMSDK@@@4@V?$allocator@U?$pair@$$CBW4SDKCustomizedURLType@ZOOMSDK@@V?$basic_string@_WU?$char_traits@_W@std@@V?$allocator@_W@2@@std@@@std@@@4@$0A@@std@@@std@@IAE?AV?$_Tree_iterator@V?$_Tree_val@U?$_Tree_simple_types@U?$pair@$$CBW4SDKCustomizedURLType@ZOOMSDK@@V?$basic_string@_WU?$char_traits@_W@std@@V?$allocator@_W@2@@std@@@std@@@std@@@std@@@1@_NPAU?$_Tree_node@U?$pair@$$CBW4SDKCustomizedURLType@ZOOMSDK@@V?$basic_string@_WU?$char_traits@_W@std@@V?$allocator@_W@2@@std@@@std@@PAX@1@AAU?$pair@$$CBW4SDKCustomizedURLType@ZOOMSDK@@V?$basic_string@_WU?$char_traits@_W@std@@V?$allocator@_W@2@@std@@@1@1@Z 10006d60 f i zoom_native_sdk_wrap_core.obj
 0001:00005d60       ??$_Insert_at@AAU?$pair@$$CBW4SDKCustomizedStringType@ZOOMSDK@@V?$basic_string@_WU?$char_traits@_W@std@@V?$allocator@_W@2@@std@@@std@@PAU?$_Tree_node@U?$pair@$$CBW4SDKCustomizedStringType@ZOOMSDK@@V?$basic_string@_WU?$char_traits@_W@std@@V?$allocator@_W@2@@std@@@std@@PAX@2@@?$_Tree@V?$_Tmap_traits@W4SDKCustomizedStringType@ZOOMSDK@@V?$basic_string@_WU?$char_traits@_W@std@@V?$allocator@_W@2@@std@@U?$less@W4SDKCustomizedStringType@ZOOMSDK@@@4@V?$allocator@U?$pair@$$CBW4SDKCustomizedStringType@ZOOMSDK@@V?$basic_string@_WU?$char_traits@_W@std@@V?$allocator@_W@2@@std@@@std@@@4@$0A@@std@@@std@@IAE?AV?$_Tree_iterator@V?$_Tree_val@U?$_Tree_simple_types@U?$pair@$$CBW4SDKCustomizedStringType@ZOOMSDK@@V?$basic_string@_WU?$char_traits@_W@std@@V?$allocator@_W@2@@std@@@std@@@std@@@std@@@1@_NPAU?$_Tree_node@U?$pair@$$CBW4SDKCustomizedStringType@ZOOMSDK@@V?$basic_string@_WU?$char_traits@_W@std@@V?$allocator@_W@2@@std@@@std@@PAX@1@AAU?$pair@$$CBW4SDKCustomizedStringType@ZOOMSDK@@V?$basic_string@_WU?$char_traits@_W@std@@V?$allocator@_W@2@@std@@@1@1@Z 10006d60 f i zoom_native_sdk_wrap_core.obj
 0001:00005fb0       ?compare@?$basic_string@_WU?$char_traits@_W@std@@V?$allocator@_W@2@@std@@QBEHABV12@@Z 10006fb0 f i zoom_native_sdk_wrap_core.obj
 0001:00006020       ??$?0PB_WPB_WX$0A@@?$pair@$$CBV?$basic_string@_WU?$char_traits@_W@std@@V?$allocator@_W@2@@std@@V12@@std@@QAE@$$QAU?$pair@PB_WPB_W@1@@Z 10007020 f i zoom_native_sdk_wrap_core.obj
 0001:000060d0       ??$?0W4SDKCustomizedStringType@ZOOMSDK@@PB_WX$0A@@?$pair@$$CBW4SDKCustomizedStringType@ZOOMSDK@@V?$basic_string@_WU?$char_traits@_W@std@@V?$allocator@_W@2@@std@@@std@@QAE@$$QAU?$pair@W4SDKCustomizedStringType@ZOOMSDK@@PB_W@1@@Z 100070d0 f i zoom_native_sdk_wrap_core.obj
 0001:000060d0       ??$?0W4SDKCustomizedURLType@ZOOMSDK@@PB_WX$0A@@?$pair@$$CBW4SDKCustomizedURLType@ZOOMSDK@@V?$basic_string@_WU?$char_traits@_W@std@@V?$allocator@_W@2@@std@@@std@@QAE@$$QAU?$pair@W4SDKCustomizedURLType@ZOOMSDK@@PB_W@1@@Z 100070d0 f i zoom_native_sdk_wrap_core.obj
 0001:00006140       ?onAuthenticationReturn@ZAuthServiceWrapEvent@@UAEXW4AuthResult@ZOOMSDK@@@Z 10007140 f i auth_service_wrap_core.obj
 0001:000061b0       ?onLoginRet@ZAuthServiceWrapEvent@@UAEXW4LOGINSTATUS@ZOOMSDK@@PAVIAccountInfo@3@@Z 100071b0 f i auth_service_wrap_core.obj
 0001:00006220       ?onLogout@ZAuthServiceWrapEvent@@UAEXXZ 10007220 f i auth_service_wrap_core.obj
 0001:00006220       ?onFreeMeetingUpgradeToGiftFreeTrialStop@ZMeetingConfigCtrlWrapFreeMeetingEvent@@UAEXXZ 10007220 f i auth_service_wrap_core.obj
 0001:00006220       ?onEndMeetingBtnClicked@ZMeetingUIControllerWrapEvent@@UAEXXZ 10007220 f i auth_service_wrap_core.obj
 0001:00006240       ?onZoomIdentityExpired@ZAuthServiceWrapEvent@@UAEXXZ 10007240 f i auth_service_wrap_core.obj
 0001:00006240       ?onParticipantListBtnClicked@ZMeetingUIControllerWrapEvent@@UAEXXZ 10007240 f i auth_service_wrap_core.obj
 0001:00006240       ?onFreeMeetingUpgradeToProMeeting@ZMeetingConfigCtrlWrapFreeMeetingEvent@@UAEXXZ 10007240 f i auth_service_wrap_core.obj
 0001:00006260       ?onZoomAuthIdentityExpired@ZAuthServiceWrapEvent@@UAEXXZ 10007260 f i auth_service_wrap_core.obj
 0001:00006260       ?onCustomLiveStreamMenuClicked@ZMeetingUIControllerWrapEvent@@UAEXXZ 10007260 f i auth_service_wrap_core.obj
 0001:00006280       ?onMeetingStatusChanged@ZMeetingServiceWrapEvent@@UAEXW4MeetingStatus@ZOOMSDK@@H@Z 10007280 f i auth_service_wrap_core.obj
 0001:000062b0       ?onDeviceRunning@VideoRawDataHelper@@UAEXPAX@Z 100072b0 f i zoom_node_video_raw_data.obj
 0001:000062b0       ?onDeviceStop@ShareRawDataHelper@@UAEXPAX@Z 100072b0 f i zoom_node_share_raw_data.obj
 0001:000062b0       ?onDeviceStop@VideoRawDataHelper@@UAEXPAX@Z 100072b0 f i zoom_node_video_raw_data.obj
 0001:000062b0       ?onHostRequestStartVideo@ZMeetingVideoCtrlWrapEvent@@UAEXPAVIRequestStartVideoHandler@ZOOMSDK@@@Z 100072b0 f i auth_service_wrap_core.obj
 0001:000062b0       ?onDeviceRunning@ShareRawDataHelper@@UAEXPAX@Z 100072b0 f i zoom_node_share_raw_data.obj
 0001:000062b0       ?onMeetingParameterNotification@ZMeetingServiceWrapEvent@@UAEXPBUtagMeetingParameter@ZOOMSDK@@@Z 100072b0 f i auth_service_wrap_core.obj
 0001:000062b0       ?onLockShareStatus@ZMeetingShareCtrlWrapEvent@@UAEX_N@Z 100072b0 f i auth_service_wrap_core.obj
 0001:000062b0       ?onMeetingStatisticsWarningNotification@ZMeetingServiceWrapEvent@@UAEXW4StatisticsWarningType@ZOOMSDK@@@Z 100072b0 f i auth_service_wrap_core.obj
 0001:000062b0       ?onShareContentNotification@ZMeetingShareCtrlWrapEvent@@UAEXAAUtagShareInfo@ZOOMSDK@@@Z 100072b0 f i auth_service_wrap_core.obj
 0001:000062b0       ??$destroy@PAU?$_Tree_node@U?$pair@QAXPAVUVIPC@@@std@@PAX@std@@@?$_Wrap_alloc@V?$allocator@U?$_Tree_node@U?$pair@QAXPAVUVIPC@@@std@@PAX@std@@@std@@@std@@QAEXPAPAU?$_Tree_node@U?$pair@QAXPAVUVIPC@@@std@@PAX@1@@Z 100072b0 f i uv_ipc_common.obj
 0001:000062b0       ?onHostRequestStartAudio@ZMeetingAudioCtrlWrapEvent@@UAEXPAVIRequestStartAudioHandler@ZOOMSDK@@@Z 100072b0 f i auth_service_wrap_core.obj
 0001:000062b0       ?onMultiShareSwitchToSingleShareNeedConfirm@ZMeetingShareCtrlWrapEvent@@UAEXPAVIShareSwitchMultiToSingleConfirmHandler@ZOOMSDK@@@Z 100072b0 f i auth_service_wrap_core.obj
 0001:000062c0       ?onMeetingSecureKeyNotification@ZMeetingServiceWrapEvent@@UAEXPBDHPAVIMeetingExternalSecureKeyHandler@ZOOMSDK@@@Z 100072c0 f i auth_service_wrap_core.obj
 0001:000062c0       ?onParingH323Result@ZMeetingH323CtrlWrapEvent@@UAEXW4H323ParingResult@ZOOMSDK@@_K@Z 100072c0 f i auth_service_wrap_core.obj
 0001:000062d0       ?onScheduleOrEditMeeting@ZPreMeetingServiceWrapEvent@@UAEXW4PremeetingAPIResult@ZOOMSDK@@_K@Z 100072d0 f i auth_service_wrap_core.obj
 0001:00006310       ?onListMeeting@ZPreMeetingServiceWrapEvent@@UAEXW4PremeetingAPIResult@ZOOMSDK@@PAV?$IList@_K@3@@Z 10007310 f i auth_service_wrap_core.obj
 0001:00006420       ?onDeleteMeeting@ZPreMeetingServiceWrapEvent@@UAEXW4PremeetingAPIResult@ZOOMSDK@@@Z 10007420 f i auth_service_wrap_core.obj
 0001:00006460       ?onInviteBtnClicked@ZMeetingUIControllerWrapEvent@@UAEXAA_N@Z 10007460 f i auth_service_wrap_core.obj
 0001:00006480       ?onFreeMeetingUpgradeToGiftFreeTrialStart@ZMeetingConfigCtrlWrapFreeMeetingEvent@@UAEXXZ 10007480 f i auth_service_wrap_core.obj
 0001:00006480       ?onStartShareBtnClicked@ZMeetingUIControllerWrapEvent@@UAEXXZ 10007480 f i auth_service_wrap_core.obj
 0001:000064a0       ?onZoomInviteDialogFailed@ZMeetingUIControllerWrapEvent@@UAEXXZ 100074a0 f i auth_service_wrap_core.obj
 0001:000064c0       ?onCCBTNClicked@ZMeetingUIControllerWrapEvent@@UAEXXZ 100074c0 f i auth_service_wrap_core.obj
 0001:000064e0       ?onAudioBtnClicked@ZMeetingUIControllerWrapEvent@@UAEXUtagAudioBtnClickedCallbackInfo@ZOOMSDK@@@Z 100074e0 f i auth_service_wrap_core.obj
 0001:00006510       ?onAudioMenuBtnClicked@ZMeetingUIControllerWrapEvent@@UAEXXZ 10007510 f i auth_service_wrap_core.obj
 0001:00006530       ??1critical_section@Concurrency@@QAE@XZ 10007530 f i libconcrt:rtlocks.obj
 0001:00006530       ?onDisconnect@ShareRawDataHelper@@UAEXXZ 10007530 f i zoom_node_share_raw_data.obj
 0001:00006530       ?destroy@stl_critical_section_win7@details@Concurrency@@UAEXXZ 10007530 f i libcpmt:mutex.obj
 0001:00006530       ?NotifyAffinitizedWork@FairScheduleGroupSegment@details@Concurrency@@UAEXXZ 10007530 f i libconcrt:SchedulerBase.obj
 0001:00006530       ?onConnect@VideoRawDataHelper@@UAEXXZ 10007530 f i zoom_node_video_raw_data.obj
 0001:00006530       ?onIdle@VideoRawDataHelper@@UAEXXZ 10007530 f i zoom_node_video_raw_data.obj
 0001:00006530       @_guard_check_icall_nop@4  10007530 f i LIBCMT:guard_support.obj
 0001:00006530       ?Destroy@WaitAnyBlock@details@Concurrency@@UAEXXZ 10007530 f i libconcrt:event.obj
 0001:00006530       ??3@YAXPAX0@Z              10007530 f i libcpmt:mutex.obj
 0001:00006530       ?onDisconnect@VideoRawDataHelper@@UAEXXZ 10007530 f i zoom_node_video_raw_data.obj
 0001:00006530       ?destroy@stl_condition_variable_win7@details@Concurrency@@UAEXXZ 10007530 f i libcpmt:cond.obj
 0001:00006530       ___except_validate_jump_buffer 10007530 f i libvcruntime:jbcxrval.obj
 0001:00006530       ?onIdle@ShareRawDataHelper@@UAEXXZ 10007530 f i zoom_node_share_raw_data.obj
 0001:00006530       ?destroy@stl_condition_variable_vista@details@Concurrency@@UAEXXZ 10007530 f i libcpmt:cond.obj
 0001:00006530       ___except_validate_context_record 10007530 f i libvcruntime:jbcxrval.obj
 0001:00006530       ?RMAwaken@InternalContextBase@details@Concurrency@@EAEXXZ 10007530 f i libconcrt:InternalContextBase.obj
 0001:00006530       ?onConnect@ShareRawDataHelper@@UAEXXZ 10007530 f i zoom_node_share_raw_data.obj
 0001:00006530       ?onBreakoutRoomBtnClicked@ZMeetingUIControllerWrapEvent@@UAEXXZ 10007530 f i auth_service_wrap_core.obj
 0001:00006540       ?onUserAudioStatusChange@ZMeetingAudioCtrlWrapEvent@@UAEXPAV?$IList@PAVIUserAudioStatus@ZOOMSDK@@@ZOOMSDK@@PB_W@Z 10007540 f i auth_service_wrap_core.obj
 0001:000066a0       ?onUserActiveAudioChange@ZMeetingAudioCtrlWrapEvent@@UAEXPAV?$IList@I@ZOOMSDK@@@Z 100076a0 f i auth_service_wrap_core.obj
 0001:00006790       ?onUserVideoStatusChange@ZMeetingVideoCtrlWrapEvent@@UAEXIW4VideoStatus@ZOOMSDK@@@Z 10007790 f i auth_service_wrap_core.obj
 0001:000067d0       ?onPreProcessRawData@VideoRawDataHelper@@UAEXPAVYUVProcessDataI420@ZOOMSDKRAWDATA@@PAV?$IVector@_K@@@Z 100077d0 f i zoom_node_video_raw_data.obj
 0001:000067d0       ?onCoHostChangeNotification@ZMeetingParticipantsCtrlEvent@@UAEXI_N@Z 100077d0 f i auth_service_wrap_core.obj
 0001:000067d0       ?NotifyResourcesExternallyIdle@ThreadScheduler@details@Concurrency@@UAEXPAPAUIVirtualProcessorRoot@3@I@Z 100077d0 f i libconcrt:ThreadScheduler.obj
 0001:000067d0       ?UpdateData@IMainThreadTask@@UAEXPAX0@Z 100077d0 f i zoom_node_video_raw_data.obj
 0001:000067d0       ?NotifyResourcesExternallyBusy@ThreadScheduler@details@Concurrency@@UAEXPAPAUIVirtualProcessorRoot@3@I@Z 100077d0 f i libconcrt:ThreadScheduler.obj
 0001:000067d0       ?VirtualProcessorActiveNotification@SchedulerBase@details@Concurrency@@MAEX_NJ@Z 100077d0 f i libconcrt:SchedulerBase.obj
 0001:000067d0       ?onUserNameChanged@ZMeetingParticipantsCtrlEvent@@UAEXIPB_W@Z 100077d0 f i auth_service_wrap_core.obj
 0001:000067d0       ?onSpotlightVideoChangeNotification@ZMeetingVideoCtrlWrapEvent@@UAEX_NI@Z 100077d0 f i auth_service_wrap_core.obj
 0001:000067e0       ?onActiveSpeakerVideoUserChanged@ZMeetingVideoCtrlWrapEvent@@UAEXI@Z 100077e0 f i auth_service_wrap_core.obj
 0001:00006800       ?onActiveVideoUserChanged@ZMeetingVideoCtrlWrapEvent@@UAEXI@Z 10007800 f i auth_service_wrap_core.obj
 0001:00006800       ?onHostChangeNotification@ZMeetingParticipantsCtrlEvent@@UAEXI@Z 10007800 f i auth_service_wrap_core.obj
 0001:00006820       ?onSharingStatus@ZMeetingShareCtrlWrapEvent@@UAEXW4SharingStatus@ZOOMSDK@@I@Z 10007820 f i auth_service_wrap_core.obj
 0001:00006850       ?onUserJoin@ZMeetingParticipantsCtrlEvent@@UAEXPAV?$IList@I@ZOOMSDK@@PB_W@Z 10007850 f i auth_service_wrap_core.obj
 0001:000069b0       ?onUserLeft@ZMeetingParticipantsCtrlEvent@@UAEXPAV?$IList@I@ZOOMSDK@@PB_W@Z 100079b0 f i auth_service_wrap_core.obj
 0001:00006b10       ?onLowOrRaiseHandStatusChanged@ZMeetingParticipantsCtrlEvent@@UAEX_NI@Z 10007b10 f i auth_service_wrap_core.obj
 0001:00006b40       ?onCalloutStatusNotify@ZMeetingH323CtrlWrapEvent@@UAEXW4H323CalloutStatus@ZOOMSDK@@@Z 10007b40 f i auth_service_wrap_core.obj
 0001:00006b70       ?GetInst@ZMeetingPasswordAndScreenNameHandler@@SAAAV1@XZ 10007b70 f i auth_service_wrap_core.obj
 0001:00006bc0       ?GetInst@ZWebinarNeedRegisterHandler@@SAAAV1@XZ 10007bc0 f i auth_service_wrap_core.obj
 0001:00006c10       ?GetInst@ZEndOtherMeetingToJoinMeetingHandler@@SAAAV1@XZ 10007c10 f i auth_service_wrap_core.obj
 0001:00006c60       ?onFreeMeetingRemainTime@ZMeetingConfigCtrlWrapFreeMeetingEvent@@UAEXI@Z 10007c60 f i auth_service_wrap_core.obj
 0001:00006c80       ?onFreeMeetingRemainTimeStopCountDown@ZMeetingConfigCtrlWrapFreeMeetingEvent@@UAEXXZ 10007c80 f i auth_service_wrap_core.obj
 0001:00006ca0       ?onFreeMeetingEndingReminderNotification@ZMeetingConfigCtrlWrapFreeMeetingEvent@@UAEXPAVIFreeMeetingEndingReminderHandler@ZOOMSDK@@@Z 10007ca0 f i auth_service_wrap_core.obj
 0001:00006cf0       ?onFreeMeetingNeedToUpgrade@ZMeetingConfigCtrlWrapFreeMeetingEvent@@UAEXW4FreeMeetingNeedUpgradeType@IMeetingConfigurationFreeMeetingEvent@ZOOMSDK@@PB_W@Z 10007cf0 f i auth_service_wrap_core.obj
 0001:00006e40       ?onInputMeetingPasswordAndScreenNameNotification@ZMeetingConfigCtrlWrapFreeMeetingEvent@@UAEXPAVIMeetingPasswordAndScreenNameHandler@ZOOMSDK@@@Z 10007e40 f i auth_service_wrap_core.obj
 0001:00006e70       ?onAirPlayInstructionWndNotification@ZMeetingConfigCtrlWrapFreeMeetingEvent@@UAEX_NPB_W@Z 10007e70 f i auth_service_wrap_core.obj
 0001:00006f90       ?onWebinarNeedRegisterNotification@ZMeetingConfigCtrlWrapFreeMeetingEvent@@UAEXPAVIWebinarNeedRegisterHandler@ZOOMSDK@@@Z 10007f90 f i auth_service_wrap_core.obj
 0001:00006fc0       ?onEndOtherMeetingToJoinMeetingNotification@ZMeetingConfigCtrlWrapFreeMeetingEvent@@UAEXPAVIEndOtherMeetingToJoinMeetingHandler@ZOOMSDK@@@Z 10007fc0 f i auth_service_wrap_core.obj
 0001:00006ff0       ?GetInst@ZDirectShareViaMeetingIDOrPairingCodeHandler@@SAAAV1@XZ 10007ff0 f i auth_service_wrap_core.obj
 0001:00007040       ?OnDirectShareStatusUpdate@ZDirectShareHelperWrapEvent@@UAEXW4DirectShareStatusStatus_Enum@ZOOMSDK@@PAVIDirectShareViaMeetingIDOrPairingCodeHandler@3@@Z 10008040 f i auth_service_wrap_core.obj
 0001:00007080       ?GetInst@ZoomRetrieveSMSVerificationCodeHandler@@SAAAV1@XZ 10008080 f i auth_service_wrap_core.obj
 0001:000070d0       ?GetInst@ZoomVerifySMSVerificationCodeHandler@@SAAAV1@XZ 100080d0 f i auth_service_wrap_core.obj
 0001:00007120       ?onNeedRealNameAuthMeetingNotification@ZZoomRealNameAuthMeetingWrapEvent@@UAEXPAV?$IVector@PAVIZoomRealNameAuthCountryInfo@@@@PBDPAVIZoomRetrieveSMSVerificationCodeHandler@@@Z 10008120 f i auth_service_wrap_core.obj
 0001:00007390       ?onRetrieveSMSVerificationCodeResultNotification@ZZoomRealNameAuthMeetingWrapEvent@@UAEXW4SMSVerificationCodeErr@@PAVIZoomVerifySMSVerificationCodeHandler@@@Z 10008390 f i auth_service_wrap_core.obj
 0001:000073d0       ?onVerifySMSVerificationCodeResultNotification@ZZoomRealNameAuthMeetingWrapEvent@@UAEXW4SMSVerificationCodeErr@@@Z 100083d0 f i auth_service_wrap_core.obj
 0001:00007400       ??1_ZNZoomRealNameAuthCountryInfo@@QAE@XZ 10008400 f i auth_service_wrap_core.obj
 0001:00007400       ??1_ZNLoginParam@@QAE@XZ   10008400 f i zoom_node_addon.obj
 0001:00007400       ??1_ZNH323DeviecInfo@@QAE@XZ 10008400 f i meeting_h323_wrap_core.obj
 0001:000074a0       ?onComputerMicDeviceChanged@ZAudioSettingContextWrapEvent@@UAEXPAV?$IList@PAVIMicInfo@ZOOMSDK@@@ZOOMSDK@@@Z 100084a0 f i auth_service_wrap_core.obj
 0001:000074a0       ?onComputerCamDeviceChanged@ZVideoSettingContextWrapEvent@@UAEXPAV?$IList@PAVICameraInfo@ZOOMSDK@@@ZOOMSDK@@@Z 100084a0 f i auth_service_wrap_core.obj
 0001:000076f0       ?onComputerSpeakerDeviceChanged@ZAudioSettingContextWrapEvent@@UAEXPAV?$IList@PAVISpeakerInfo@ZOOMSDK@@@ZOOMSDK@@@Z 100086f0 f i auth_service_wrap_core.obj
 0001:00007940       ?onDefaultMicDeviceChanged@ZAudioSettingContextWrapEvent@@UAEXPB_W0@Z 10008940 f i auth_service_wrap_core.obj
 0001:00007aa0       ?onDefaultSpeakerDeviceChanged@ZAudioSettingContextWrapEvent@@UAEXPB_W0@Z 10008aa0 f i auth_service_wrap_core.obj
 0001:00007c00       ?onDefaultCamDeviceChanged@ZVideoSettingContextWrapEvent@@UAEXPB_W0@Z 10008c00 f i auth_service_wrap_core.obj
 0001:00007d60       ?onCloudRecordingStorageInfo@ZRecordingSettingContextWrapEvent@@UAEX_J0_N@Z 10008d60 f i auth_service_wrap_core.obj
 0001:00007d90       ??0SDKEventWrapMgr@@AAE@XZ 10008d90 f i auth_service_wrap_core.obj
 0001:00007e30       ??_GZZoomRealNameAuthMeetingWrapEvent@@UAEPAXI@Z 10008e30 f i auth_service_wrap_core.obj
 0001:00007e30       ??_EZZoomRealNameAuthMeetingWrapEvent@@UAEPAXI@Z 10008e30 f i * CIL library *:* CIL module *
 0001:00007e60       ??0ZAuthServiceWrap@@QAE@XZ 10008e60 f   auth_service_wrap_core.obj
 0001:00007f30       ??_EZAuthServiceWrap@@UAEPAXI@Z 10008f30 f i * CIL library *:* CIL module *
 0001:00007f30       ??_GZAuthServiceWrap@@UAEPAXI@Z 10008f30 f i auth_service_wrap_core.obj
 0001:00007f50       ??1ZAuthServiceWrap@@UAE@XZ 10008f50 f   auth_service_wrap_core.obj
 0001:00007ff0       ?Init@ZAuthServiceWrap@@QAEXXZ 10008ff0 f   auth_service_wrap_core.obj
 0001:00008170       ?Uninit@ZAuthServiceWrap@@QAEXXZ 10009170 f   auth_service_wrap_core.obj
 0001:00008290       ?AuthSDK@ZAuthServiceWrap@@QAE?AW4ZNSDKError@@AAU_ZNAuthParam@@@Z 10009290 f   auth_service_wrap_core.obj
 0001:00008370       ?AuthSDK@ZAuthServiceWrap@@QAE?AW4ZNSDKError@@AAU_ZNAuthContext@@@Z 10009370 f   auth_service_wrap_core.obj
 0001:00008400       ?Login@ZAuthServiceWrap@@QAE?AW4ZNSDKError@@AAU_ZNLoginParam@@@Z 10009400 f   auth_service_wrap_core.obj
 0001:00008500       ?LoginWithSSOToken@ZAuthServiceWrap@@QAE?AW4ZNSDKError@@AAU_ZNLoginParam@@@Z 10009500 f   auth_service_wrap_core.obj
 0001:000085f0       ?Logout@ZAuthServiceWrap@@QAE?AW4ZNSDKError@@XZ 100095f0 f   auth_service_wrap_core.obj
 0001:000086a0       ?GetAuthResult@ZAuthServiceWrap@@QAE?AW4ZNAuthResult@@XZ 100096a0 f   auth_service_wrap_core.obj
 0001:00008750       ?GetLoginStatus@ZAuthServiceWrap@@QAE?AW4ZNLOGINSTATUS@@XZ 10009750 f   auth_service_wrap_core.obj
 0001:00008820       ?push_back@?$vector@U_ZNMicInfo@@V?$allocator@U_ZNMicInfo@@@std@@@std@@QAEXABU_ZNMicInfo@@@Z 10009820 f i auth_service_wrap_core.obj
 0001:00008820       ?push_back@?$vector@U_ZNCameraInfo@@V?$allocator@U_ZNCameraInfo@@@std@@@std@@QAEXABU_ZNCameraInfo@@@Z 10009820 f i auth_service_wrap_core.obj
 0001:00008820       ?push_back@?$vector@U_ZNSpeakerInfo@@V?$allocator@U_ZNSpeakerInfo@@@std@@@std@@QAEXABU_ZNSpeakerInfo@@@Z 10009820 f i auth_service_wrap_core.obj
 0001:00008930       ??0?$vector@U_ZNSpeakerInfo@@V?$allocator@U_ZNSpeakerInfo@@@std@@@std@@QAE@ABV01@@Z 10009930 f i auth_service_wrap_core.obj
 0001:00008930       ??0?$vector@U_ZNCameraInfo@@V?$allocator@U_ZNCameraInfo@@@std@@@std@@QAE@ABV01@@Z 10009930 f i auth_service_wrap_core.obj
 0001:00008930       ??0?$vector@U_ZNMicInfo@@V?$allocator@U_ZNMicInfo@@@std@@@std@@QAE@ABV01@@Z 10009930 f i auth_service_wrap_core.obj
 0001:000089d0       ?push_back@?$vector@U_ZNZoomRealNameAuthCountryInfo@@V?$allocator@U_ZNZoomRealNameAuthCountryInfo@@@std@@@std@@QAEXABU_ZNZoomRealNameAuthCountryInfo@@@Z 100099d0 f i auth_service_wrap_core.obj
 0001:00008b10       ??0?$vector@U_ZNZoomRealNameAuthCountryInfo@@V?$allocator@U_ZNZoomRealNameAuthCountryInfo@@@std@@@std@@QAE@ABV01@@Z 10009b10 f i auth_service_wrap_core.obj
 0001:00008bb0       ?push_back@?$vector@IV?$allocator@I@std@@@std@@QAEXABI@Z 10009bb0 f i auth_service_wrap_core.obj
 0001:00008cb0       ??0?$vector@IV?$allocator@I@std@@@std@@QAE@ABV01@@Z 10009cb0 f i auth_service_wrap_core.obj
 0001:00008d40       ?push_back@?$vector@_KV?$allocator@_K@std@@@std@@QAEXAB_K@Z 10009d40 f i auth_service_wrap_core.obj
 0001:00008d40       ?push_back@?$vector@U_ZNUserAudioStatus@@V?$allocator@U_ZNUserAudioStatus@@@std@@@std@@QAEXABU_ZNUserAudioStatus@@@Z 10009d40 f i auth_service_wrap_core.obj
 0001:00008e50       ??0?$vector@_KV?$allocator@_K@std@@@std@@QAE@ABV01@@Z 10009e50 f i auth_service_wrap_core.obj
 0001:00008e50       ??0?$vector@U_ZNUserAudioStatus@@V?$allocator@U_ZNUserAudioStatus@@@std@@@std@@QAE@ABV01@@Z 10009e50 f i auth_service_wrap_core.obj
 0001:00008ee0       ?_Reserve@?$vector@U_ZNSpeakerInfo@@V?$allocator@U_ZNSpeakerInfo@@@std@@@std@@IAEXI@Z 10009ee0 f i auth_service_wrap_core.obj
 0001:00008ee0       ?_Reserve@?$vector@U_ZNMicInfo@@V?$allocator@U_ZNMicInfo@@@std@@@std@@IAEXI@Z 10009ee0 f i auth_service_wrap_core.obj
 0001:00008ee0       ?_Reserve@?$vector@U_ZNCameraInfo@@V?$allocator@U_ZNCameraInfo@@@std@@@std@@IAEXI@Z 10009ee0 f i auth_service_wrap_core.obj
 0001:00008f70       ?_Tidy@?$vector@U_ZNZoomRealNameAuthCountryInfo@@V?$allocator@U_ZNZoomRealNameAuthCountryInfo@@@std@@@std@@IAEXXZ 10009f70 f i auth_service_wrap_core.obj
 0001:00008fd0       ?_Reserve@?$vector@U_ZNZoomRealNameAuthCountryInfo@@V?$allocator@U_ZNZoomRealNameAuthCountryInfo@@@std@@@std@@IAEXI@Z 10009fd0 f i auth_service_wrap_core.obj
 0001:00009060       ?deallocate@?$_Wrap_alloc@V?$allocator@U_ZNCameraInfo@@@std@@@std@@QAEXPAU_ZNCameraInfo@@I@Z 1000a060 f i auth_service_wrap_core.obj
 0001:00009060       ?deallocate@?$_Wrap_alloc@V?$allocator@U_ZNMicInfo@@@std@@@std@@QAEXPAU_ZNMicInfo@@I@Z 1000a060 f i auth_service_wrap_core.obj
 0001:00009060       ?deallocate@?$_Wrap_alloc@V?$allocator@U_ZNSpeakerInfo@@@std@@@std@@QAEXPAU_ZNSpeakerInfo@@I@Z 1000a060 f i auth_service_wrap_core.obj
 0001:000090c0       ?allocate@?$_Wrap_alloc@V?$allocator@U_ZNCameraInfo@@@std@@@std@@QAEPAU_ZNCameraInfo@@I@Z 1000a0c0 f i auth_service_wrap_core.obj
 0001:000090c0       ?allocate@?$_Wrap_alloc@V?$allocator@U_ZNMicInfo@@@std@@@std@@QAEPAU_ZNMicInfo@@I@Z 1000a0c0 f i auth_service_wrap_core.obj
 0001:000090c0       ?allocate@?$_Wrap_alloc@V?$allocator@U_ZNSpeakerInfo@@@std@@@std@@QAEPAU_ZNSpeakerInfo@@I@Z 1000a0c0 f i auth_service_wrap_core.obj
 0001:00009120       ?_Reallocate@?$vector@U_ZNCameraInfo@@V?$allocator@U_ZNCameraInfo@@@std@@@std@@IAEXI@Z 1000a120 f i auth_service_wrap_core.obj
 0001:00009120       ?_Reallocate@?$vector@U_ZNMicInfo@@V?$allocator@U_ZNMicInfo@@@std@@@std@@IAEXI@Z 1000a120 f i auth_service_wrap_core.obj
 0001:00009120       ?_Reallocate@?$vector@U_ZNSpeakerInfo@@V?$allocator@U_ZNSpeakerInfo@@@std@@@std@@IAEXI@Z 1000a120 f i auth_service_wrap_core.obj
 0001:00009210       ?deallocate@?$_Wrap_alloc@V?$allocator@U_ZNZoomRealNameAuthCountryInfo@@@std@@@std@@QAEXPAU_ZNZoomRealNameAuthCountryInfo@@I@Z 1000a210 f i auth_service_wrap_core.obj
 0001:00009270       ?allocate@?$_Wrap_alloc@V?$allocator@U_ZNZoomRealNameAuthCountryInfo@@@std@@@std@@QAEPAU_ZNZoomRealNameAuthCountryInfo@@I@Z 1000a270 f i auth_service_wrap_core.obj
 0001:000092d0       ?_Reallocate@?$vector@U_ZNZoomRealNameAuthCountryInfo@@V?$allocator@U_ZNZoomRealNameAuthCountryInfo@@@std@@@std@@IAEXI@Z 1000a2d0 f i auth_service_wrap_core.obj
 0001:000093e0       ?deallocate@?$_Wrap_alloc@V?$allocator@I@std@@@std@@QAEXPAII@Z 1000a3e0 f i auth_service_wrap_core.obj
 0001:00009440       ?allocate@?$_Wrap_alloc@V?$allocator@I@std@@@std@@QAEPAII@Z 1000a440 f i auth_service_wrap_core.obj
 0001:000094a0       ?deallocate@?$_Wrap_alloc@V?$allocator@U_ZNUserAudioStatus@@@std@@@std@@QAEXPAU_ZNUserAudioStatus@@I@Z 1000a4a0 f i auth_service_wrap_core.obj
 0001:000094a0       ?deallocate@?$_Wrap_alloc@V?$allocator@_K@std@@@std@@QAEXPA_KI@Z 1000a4a0 f i auth_service_wrap_core.obj
 0001:00009500       ?allocate@?$_Wrap_alloc@V?$allocator@U_ZNUserAudioStatus@@@std@@@std@@QAEPAU_ZNUserAudioStatus@@I@Z 1000a500 f i auth_service_wrap_core.obj
 0001:00009500       ?allocate@?$_Wrap_alloc@V?$allocator@_K@std@@@std@@QAEPA_KI@Z 1000a500 f i auth_service_wrap_core.obj
 0001:00009560       ?_Reallocate@?$vector@IV?$allocator@I@std@@@std@@IAEXI@Z 1000a560 f i auth_service_wrap_core.obj
 0001:00009600       ?_Reallocate@?$vector@_KV?$allocator@_K@std@@@std@@IAEXI@Z 1000a600 f i auth_service_wrap_core.obj
 0001:00009600       ?_Reallocate@?$vector@U_ZNUserAudioStatus@@V?$allocator@U_ZNUserAudioStatus@@@std@@@std@@IAEXI@Z 1000a600 f i auth_service_wrap_core.obj
 0001:000096a0       ??$_Destroy_range1@V?$allocator@U_ZNMicInfo@@@std@@PAU_ZNMicInfo@@@std@@YAXPAU_ZNMicInfo@@0AAU?$_Wrap_alloc@V?$allocator@U_ZNMicInfo@@@std@@@0@U?$integral_constant@_N$0A@@0@@Z 1000a6a0 f i auth_service_wrap_core.obj
 0001:000096a0       ??$_Destroy_range1@V?$allocator@U_ZNSpeakerInfo@@@std@@PAU_ZNSpeakerInfo@@@std@@YAXPAU_ZNSpeakerInfo@@0AAU?$_Wrap_alloc@V?$allocator@U_ZNSpeakerInfo@@@std@@@0@U?$integral_constant@_N$0A@@0@@Z 1000a6a0 f i auth_service_wrap_core.obj
 0001:000096a0       ??$_Destroy_range1@V?$allocator@U_ZNCameraInfo@@@std@@PAU_ZNCameraInfo@@@std@@YAXPAU_ZNCameraInfo@@0AAU?$_Wrap_alloc@V?$allocator@U_ZNCameraInfo@@@std@@@0@U?$integral_constant@_N$0A@@0@@Z 1000a6a0 f i auth_service_wrap_core.obj
 0001:00009730       ??$_Uninitialized_copy_al_unchecked1@PBU_ZNSpeakerInfo@@PAU1@V?$allocator@U_ZNSpeakerInfo@@@std@@@std@@YAPAU_ZNSpeakerInfo@@PBU1@0PAU1@AAU?$_Wrap_alloc@V?$allocator@U_ZNSpeakerInfo@@@std@@@0@U_General_ptr_iterator_tag@0@U_Any_tag@0@@Z 1000a730 f i auth_service_wrap_core.obj
 0001:00009730       ??$_Uninitialized_copy_al_unchecked1@PBU_ZNMicInfo@@PAU1@V?$allocator@U_ZNMicInfo@@@std@@@std@@YAPAU_ZNMicInfo@@PBU1@0PAU1@AAU?$_Wrap_alloc@V?$allocator@U_ZNMicInfo@@@std@@@0@U_General_ptr_iterator_tag@0@U_Any_tag@0@@Z 1000a730 f i auth_service_wrap_core.obj
 0001:00009730       ??$_Uninitialized_copy_al_unchecked1@PBU_ZNCameraInfo@@PAU1@V?$allocator@U_ZNCameraInfo@@@std@@@std@@YAPAU_ZNCameraInfo@@PBU1@0PAU1@AAU?$_Wrap_alloc@V?$allocator@U_ZNCameraInfo@@@std@@@0@U_General_ptr_iterator_tag@0@U_Any_tag@0@@Z 1000a730 f i auth_service_wrap_core.obj
 0001:000097b0       ??$_Uninitialized_copy_al_unchecked1@PBU_ZNZoomRealNameAuthCountryInfo@@PAU1@V?$allocator@U_ZNZoomRealNameAuthCountryInfo@@@std@@@std@@YAPAU_ZNZoomRealNameAuthCountryInfo@@PBU1@0PAU1@AAU?$_Wrap_alloc@V?$allocator@U_ZNZoomRealNameAuthCountryInfo@@@std@@@0@U_General_ptr_iterator_tag@0@U_Any_tag@0@@Z 1000a7b0 f i auth_service_wrap_core.obj
 0001:00009860       ??$_Uninitialized_move_al_unchecked1@PAU_ZNCameraInfo@@PAU1@V?$allocator@U_ZNCameraInfo@@@std@@@std@@YAPAU_ZNCameraInfo@@PAU1@00AAU?$_Wrap_alloc@V?$allocator@U_ZNCameraInfo@@@std@@@0@U_General_ptr_iterator_tag@0@U_Any_tag@0@@Z 1000a860 f i auth_service_wrap_core.obj
 0001:00009860       ??$_Uninitialized_move_al_unchecked1@PAU_ZNMicInfo@@PAU1@V?$allocator@U_ZNMicInfo@@@std@@@std@@YAPAU_ZNMicInfo@@PAU1@00AAU?$_Wrap_alloc@V?$allocator@U_ZNMicInfo@@@std@@@0@U_General_ptr_iterator_tag@0@U_Any_tag@0@@Z 1000a860 f i auth_service_wrap_core.obj
 0001:00009860       ??$_Uninitialized_move_al_unchecked1@PAU_ZNSpeakerInfo@@PAU1@V?$allocator@U_ZNSpeakerInfo@@@std@@@std@@YAPAU_ZNSpeakerInfo@@PAU1@00AAU?$_Wrap_alloc@V?$allocator@U_ZNSpeakerInfo@@@std@@@0@U_General_ptr_iterator_tag@0@U_Any_tag@0@@Z 1000a860 f i auth_service_wrap_core.obj
 0001:000098e0       ??$_Uninitialized_move_al_unchecked1@PAU_ZNZoomRealNameAuthCountryInfo@@PAU1@V?$allocator@U_ZNZoomRealNameAuthCountryInfo@@@std@@@std@@YAPAU_ZNZoomRealNameAuthCountryInfo@@PAU1@00AAU?$_Wrap_alloc@V?$allocator@U_ZNZoomRealNameAuthCountryInfo@@@std@@@0@U_General_ptr_iterator_tag@0@U_Any_tag@0@@Z 1000a8e0 f i auth_service_wrap_core.obj
 0001:00009980       ___local_stdio_scanf_options 1000a980 f i meeting_service_wrap_core.obj
 0001:00009990       _swscanf_s                 1000a990 f i meeting_service_wrap_core.obj
 0001:000099c0       ??_GZMeetingInfoWrap@@UAEPAXI@Z 1000a9c0 f i meeting_service_wrap_core.obj
 0001:000099c0       ??_EZSettingStatisticWrap@@UAEPAXI@Z 1000a9c0 f i * CIL library *:* CIL module *
 0001:000099c0       ??_EZCustomizedResourceWrap@@UAEPAXI@Z 1000a9c0 f i * CIL library *:* CIL module *
 0001:000099c0       ??_GZSettingGeneralWrap@@UAEPAXI@Z 1000a9c0 f i setting_general_wrap_core.obj
 0001:000099c0       ??_EZSettingAccessibilityWrap@@UAEPAXI@Z 1000a9c0 f i * CIL library *:* CIL module *
 0001:000099c0       ??_GZCustomizedResourceWrap@@UAEPAXI@Z 1000a9c0 f i customized_resource_wrap_core.obj
 0001:000099c0       ??_EZMeetingInfoWrap@@UAEPAXI@Z 1000a9c0 f i * CIL library *:* CIL module *
 0001:000099c0       ??_GZSettingStatisticWrap@@UAEPAXI@Z 1000a9c0 f i setting_statistic_wrap_core.obj
 0001:000099c0       ??_GZSettingAccessibilityWrap@@UAEPAXI@Z 1000a9c0 f i setting_accessibility_wrap_core.obj
 0001:000099c0       ??_GZSettingUIStrategyWrap@@UAEPAXI@Z 1000a9c0 f i setting_ui_strategy_wrap_core.obj
 0001:000099c0       ??_EZSettingGeneralWrap@@UAEPAXI@Z 1000a9c0 f i * CIL library *:* CIL module *
 0001:000099c0       ??_EZSettingUIStrategyWrap@@UAEPAXI@Z 1000a9c0 f i * CIL library *:* CIL module *
 0001:000099f0       ??0ZMeetingServiceWrap@@QAE@XZ 1000a9f0 f   meeting_service_wrap_core.obj
 0001:00009cd0       ??_EZMeetingServiceWrap@@UAEPAXI@Z 1000acd0 f i * CIL library *:* CIL module *
 0001:00009cd0       ??_GZMeetingServiceWrap@@UAEPAXI@Z 1000acd0 f i meeting_service_wrap_core.obj
 0001:00009cf0       ??1ZMeetingServiceWrap@@UAE@XZ 1000acf0 f   meeting_service_wrap_core.obj
 0001:00009dc0       ?Init@ZMeetingServiceWrap@@QAEXXZ 1000adc0 f   meeting_service_wrap_core.obj
 0001:00009f50       ?Uninit@ZMeetingServiceWrap@@QAEXXZ 1000af50 f   meeting_service_wrap_core.obj
 0001:0000a070       ?Start@ZMeetingServiceWrap@@QAE?AW4ZNSDKError@@U_ZNStartParam@@@Z 1000b070 f   meeting_service_wrap_core.obj
 0001:0000a1d0       ??1_ZNStartParam@@QAE@XZ   1000b1d0 f i meeting_service_wrap_core.obj
 0001:0000a310       ?Start_WithoutLogin@ZMeetingServiceWrap@@QAE?AW4ZNSDKError@@U_ZNStartParam@@@Z 1000b310 f   meeting_service_wrap_core.obj
 0001:0000a540       ?Join@ZMeetingServiceWrap@@QAE?AW4ZNSDKError@@U_ZNJoinParam@@@Z 1000b540 f   meeting_service_wrap_core.obj
 0001:0000a710       ??1_ZNJoinParam@@QAE@XZ    1000b710 f i meeting_service_wrap_core.obj
 0001:0000a8f0       ?Join_WithoutLogin@ZMeetingServiceWrap@@QAE?AW4ZNSDKError@@U_ZNJoinParam@@@Z 1000b8f0 f   meeting_service_wrap_core.obj
 0001:0000aae0       ?Leave@ZMeetingServiceWrap@@QAE?AW4ZNSDKError@@W4ZNLeaveMeetingCmd@@@Z 1000bae0 f   meeting_service_wrap_core.obj
 0001:0000abb0       ?Lock@ZMeetingServiceWrap@@QAE?AW4ZNSDKError@@XZ 1000bbb0 f   meeting_service_wrap_core.obj
 0001:0000ac60       ?Unlock@ZMeetingServiceWrap@@QAE?AW4ZNSDKError@@XZ 1000bc60 f   meeting_service_wrap_core.obj
 0001:0000ad10       ?HandleZoomWebUriProtocolAction@ZMeetingServiceWrap@@QAE?AW4ZNSDKError@@V?$basic_string@_WU?$char_traits@_W@std@@V?$allocator@_W@2@@std@@@Z 1000bd10 f   meeting_service_wrap_core.obj
 0001:0000adf0       ?GetSharingConnQuality@ZMeetingServiceWrap@@QAE?AW4ZNConnectionQuality@@XZ 1000bdf0 f   meeting_service_wrap_core.obj
 0001:0000aea0       ?GetVideoConnQuality@ZMeetingServiceWrap@@QAE?AW4ZNConnectionQuality@@XZ 1000bea0 f   meeting_service_wrap_core.obj
 0001:0000af50       ?GetAudioConnQuality@ZMeetingServiceWrap@@QAE?AW4ZNConnectionQuality@@XZ 1000bf50 f   meeting_service_wrap_core.obj
 0001:0000b000       ?GetMeetingTopic@ZMeetingInfoWrap@@QAE?AV?$basic_string@_WU?$char_traits@_W@std@@V?$allocator@_W@2@@std@@XZ 1000c000 f   meeting_service_wrap_core.obj
 0001:0000b0f0       ?GetMeetingType@ZMeetingInfoWrap@@QAE?AW4ZNMeetingType@@XZ 1000c0f0 f   meeting_service_wrap_core.obj
 0001:0000b1d0       ?GetMeetingNumber@ZMeetingInfoWrap@@QAE_KXZ 1000c1d0 f   meeting_service_wrap_core.obj
 0001:0000b280       ?GetMeetingID@ZMeetingInfoWrap@@QAE?AV?$basic_string@_WU?$char_traits@_W@std@@V?$allocator@_W@2@@std@@XZ 1000c280 f   meeting_service_wrap_core.obj
 0001:0000b370       ?GetInviteEmailTeamplate@ZMeetingInfoWrap@@QAE?AV?$basic_string@_WU?$char_traits@_W@std@@V?$allocator@_W@2@@std@@XZ 1000c370 f   meeting_service_wrap_core.obj
 0001:0000b460       ?GetInviteEmailTitle@ZMeetingInfoWrap@@QAE?AV?$basic_string@_WU?$char_traits@_W@std@@V?$allocator@_W@2@@std@@XZ 1000c460 f   meeting_service_wrap_core.obj
 0001:0000b550       ?GetJoinMeetingUrl@ZMeetingInfoWrap@@QAE?AV?$basic_string@_WU?$char_traits@_W@std@@V?$allocator@_W@2@@std@@XZ 1000c550 f   meeting_service_wrap_core.obj
 0001:0000b640       ?GetMeetingHostTag@ZMeetingInfoWrap@@QAE?AV?$basic_string@_WU?$char_traits@_W@std@@V?$allocator@_W@2@@std@@XZ 1000c640 f   meeting_service_wrap_core.obj
 0001:0000b730       ?CheckingIsInternalMeeting@ZMeetingInfoWrap@@QAE_NXZ 1000c730 f   meeting_service_wrap_core.obj
 0001:0000b7e0       ??_EZMeetingUICtrlWrap@@UAEPAXI@Z 1000c7e0 f i * CIL library *:* CIL module *
 0001:0000b7e0       ??_GZMeetingUICtrlWrap@@UAEPAXI@Z 1000c7e0 f i meeting_service_wrap_core.obj
 0001:0000b800       ??1ZMeetingUICtrlWrap@@UAE@XZ 1000c800 f   meeting_service_wrap_core.obj
 0001:0000b870       ?Init@ZMeetingUICtrlWrap@@QAEXXZ 1000c870 f   meeting_service_wrap_core.obj
 0001:0000ba40       ?Uninit@ZMeetingUICtrlWrap@@QAEXXZ 1000ca40 f   meeting_service_wrap_core.obj
 0001:0000bbb0       ?ShowChatDlg@ZMeetingUICtrlWrap@@QAE?AW4ZNSDKError@@U_ZNShowChatDlgParam@@@Z 1000cbb0 f   meeting_service_wrap_core.obj
 0001:0000bd80       ??1_ZNShowChatDlgParam@@QAE@XZ 1000cd80 f i meeting_service_wrap_core.obj
 0001:0000bec0       ?HideChatDlg@ZMeetingUICtrlWrap@@QAE?AW4ZNSDKError@@XZ 1000cec0 f   meeting_service_wrap_core.obj
 0001:0000bf90       ?EnterFullScreen@ZMeetingUICtrlWrap@@QAE?AW4ZNSDKError@@_N0@Z 1000cf90 f   meeting_service_wrap_core.obj
 0001:0000c070       ?ExitFullScreen@ZMeetingUICtrlWrap@@QAE?AW4ZNSDKError@@_N0@Z 1000d070 f   meeting_service_wrap_core.obj
 0001:0000c150       ?SwitchToVideoWall@ZMeetingUICtrlWrap@@QAE?AW4ZNSDKError@@XZ 1000d150 f   meeting_service_wrap_core.obj
 0001:0000c220       ?SwtichToAcitveSpeaker@ZMeetingUICtrlWrap@@QAE?AW4ZNSDKError@@XZ 1000d220 f   meeting_service_wrap_core.obj
 0001:0000c2f0       ?MoveFloatVideoWnd@ZMeetingUICtrlWrap@@QAE?AW4ZNSDKError@@V?$basic_string@_WU?$char_traits@_W@std@@V?$allocator@_W@2@@std@@0@Z 1000d2f0 f   meeting_service_wrap_core.obj
 0001:0000c440       ?ShowSharingToolbar@ZMeetingUICtrlWrap@@QAE?AW4ZNSDKError@@_N@Z 1000d440 f   meeting_service_wrap_core.obj
 0001:0000c520       ?SwitchFloatVideoToActiveSpkMod@ZMeetingUICtrlWrap@@QAE?AW4ZNSDKError@@XZ 1000d520 f   meeting_service_wrap_core.obj
 0001:0000c5f0       ?ChangeFloatoActiveSpkVideoSize@ZMeetingUICtrlWrap@@QAE?AW4ZNSDKError@@W4ZNSDKFloatVideoType@@@Z 1000d5f0 f   meeting_service_wrap_core.obj
 0001:0000c710       ?SwitchFloatVideoToGalleryMod@ZMeetingUICtrlWrap@@QAE?AW4ZNSDKError@@XZ 1000d710 f   meeting_service_wrap_core.obj
 0001:0000c7e0       ?ShowParticipantsListWnd@ZMeetingUICtrlWrap@@QAE?AW4ZNSDKError@@_N@Z 1000d7e0 f   meeting_service_wrap_core.obj
 0001:0000c8d0       ?ShowBottomFloatToolbarWnd@ZMeetingUICtrlWrap@@QAE?AW4ZNSDKError@@_N@Z 1000d8d0 f   meeting_service_wrap_core.obj
 0001:0000c9b0       ?ShowJoinAudioDlg@ZMeetingUICtrlWrap@@QAE?AW4ZNSDKError@@XZ 1000d9b0 f   meeting_service_wrap_core.obj
 0001:0000ca80       ?HideJoinAudioDlg@ZMeetingUICtrlWrap@@QAE?AW4ZNSDKError@@XZ 1000da80 f   meeting_service_wrap_core.obj
 0001:0000cb50       ?GetWallViewPageInfo@ZMeetingUICtrlWrap@@QAE?AW4ZNSDKError@@AAU_ZNVideoWallPageInfoParam@@@Z 1000db50 f   meeting_service_wrap_core.obj
 0001:0000cd30       ?ShowPreOrNextPageVideo@ZMeetingUICtrlWrap@@QAE?AW4ZNSDKError@@_N@Z 1000dd30 f   meeting_service_wrap_core.obj
 0001:0000ce10       ?ShowSharingFrameWindows@ZMeetingUICtrlWrap@@QAE?AW4ZNSDKError@@_N@Z 1000de10 f   meeting_service_wrap_core.obj
 0001:0000cef0       ?GetCurrentSplitScreenModeInfo@ZMeetingUICtrlWrap@@QAE?AW4ZNSDKError@@AAU_ZNSplitScreenInfo@@@Z 1000def0 f   meeting_service_wrap_core.obj
 0001:0000cff0       ?SwitchSplitScreenMode@ZMeetingUICtrlWrap@@QAE?AW4ZNSDKError@@_N@Z 1000dff0 f   meeting_service_wrap_core.obj
 0001:0000d0d0       ?BackToMeeting@ZMeetingUICtrlWrap@@QAE?AW4ZNSDKError@@XZ 1000e0d0 f   meeting_service_wrap_core.obj
 0001:0000d1a0       ?GetMeetingUIWnd@ZMeetingUICtrlWrap@@QAE?AW4ZNSDKError@@AAV?$basic_string@_WU?$char_traits@_W@std@@V?$allocator@_W@2@@std@@0@Z 1000e1a0 f   meeting_service_wrap_core.obj
 0001:0000d350       ?SwitchMinimizeUIMode4FristScreenMeetingUIWnd@ZMeetingUICtrlWrap@@QAE?AW4ZNSDKError@@W4ZNSDKMinimizeUIMode@@@Z 1000e350 f   meeting_service_wrap_core.obj
 0001:0000d470       ?IsMinimizeModeOfFristScreenMeetingUIWnd@ZMeetingUICtrlWrap@@QAE_NAAW4ZNSDKMinimizeUIMode@@@Z 1000e470 f   meeting_service_wrap_core.obj
 0001:0000d5d0       ?SwapToShowShareViewOrVideo@ZMeetingUICtrlWrap@@QAE?AW4ZNSDKError@@_N@Z 1000e5d0 f   meeting_service_wrap_core.obj
 0001:0000d6b0       ?IsDisplayingShareViewOrVideo@ZMeetingUICtrlWrap@@QAE?AW4ZNSDKError@@AA_N@Z 1000e6b0 f   meeting_service_wrap_core.obj
 0001:0000d790       ?CanSwapToShowShareViewOrVideo@ZMeetingUICtrlWrap@@QAE?AW4ZNSDKError@@AA_N@Z 1000e790 f   meeting_service_wrap_core.obj
 0001:0000d870       ??0ZSettingServiceWrap@@QAE@XZ 1000e870 f   setting_service_wrap_core.obj
 0001:0000d9b0       ??_EZSettingServiceWrap@@UAEPAXI@Z 1000e9b0 f i * CIL library *:* CIL module *
 0001:0000d9b0       ??_GZSettingServiceWrap@@UAEPAXI@Z 1000e9b0 f i setting_service_wrap_core.obj
 0001:0000da10       ?Init@ZSettingServiceWrap@@QAEXXZ 1000ea10 f   setting_service_wrap_core.obj
 0001:0000dad0       ?Uninit@ZSettingServiceWrap@@QAEXXZ 1000ead0 f   setting_service_wrap_core.obj
 0001:0000db70       ?ShowSettingDlg@ZSettingServiceWrap@@QAE?AW4ZNSDKError@@U_ZNShowSettingDlgParam@@@Z 1000eb70 f   setting_service_wrap_core.obj
 0001:0000dcd0       ??1_ZNShowSettingDlgParam@@QAE@XZ 1000ecd0 f i setting_service_wrap_core.obj
 0001:0000dcd0       ??1_ZNWndPosition@@QAE@XZ  1000ecd0 f i premeeting_service_wrap_core.obj
 0001:0000dda0       ?HideSettingDlg@ZSettingServiceWrap@@QAE?AW4ZNSDKError@@XZ 1000eda0 f   setting_service_wrap_core.obj
 0001:0000de50       ??_GZPremeetingServiceWrap@@UAEPAXI@Z 1000ee50 f i premeeting_service_wrap_core.obj
 0001:0000de50       ??_EZPremeetingServiceWrap@@UAEPAXI@Z 1000ee50 f i * CIL library *:* CIL module *
 0001:0000de70       ??1ZPremeetingServiceWrap@@UAE@XZ 1000ee70 f   premeeting_service_wrap_core.obj
 0001:0000dee0       ?Init@ZPremeetingServiceWrap@@QAEXXZ 1000eee0 f   premeeting_service_wrap_core.obj
 0001:0000dff0       ?Uninit@ZPremeetingServiceWrap@@QAEXXZ 1000eff0 f   premeeting_service_wrap_core.obj
 0001:0000e0a0       ?ScheduleMeeting@ZPremeetingServiceWrap@@QAE?AW4ZNSDKError@@U_ZNWndPosition@@@Z 1000f0a0 f   premeeting_service_wrap_core.obj
 0001:0000e1a0       ?ScheduleMeeting@ZPremeetingServiceWrap@@QAE?AW4ZNSDKError@@XZ 1000f1a0 f   premeeting_service_wrap_core.obj
 0001:0000e260       ?EditMeeting@ZPremeetingServiceWrap@@QAE?AW4ZNSDKError@@_K@Z 1000f260 f   premeeting_service_wrap_core.obj
 0001:0000e340       ?EditMeeting@ZPremeetingServiceWrap@@QAE?AW4ZNSDKError@@U_ZNWndPosition@@_K@Z 1000f340 f   premeeting_service_wrap_core.obj
 0001:0000e450       ?ListMeeting@ZPremeetingServiceWrap@@QAE?AW4ZNSDKError@@XZ 1000f450 f   premeeting_service_wrap_core.obj
 0001:0000e4c0       ?DeleteMeeting@ZPremeetingServiceWrap@@QAE?AW4ZNSDKError@@_K@Z 1000f4c0 f   premeeting_service_wrap_core.obj
 0001:0000e540       ??_EZMeetingAnnotationWrap@@UAEPAXI@Z 1000f540 f i * CIL library *:* CIL module *
 0001:0000e540       ??_GZMeetingAnnotationWrap@@UAEPAXI@Z 1000f540 f i meeting_annotation_wrap_core.obj
 0001:0000e570       ?Init@ZMeetingAnnotationWrap@@QAEXXZ 1000f570 f   meeting_annotation_wrap_core.obj
 0001:0000e660       ?Uninit@ZMeetingAnnotationWrap@@QAEXXZ 1000f660 f   meeting_annotation_wrap_core.obj
 0001:0000e730       ?IsAnnoataionDisable@ZMeetingAnnotationWrap@@QAE_NXZ 1000f730 f   meeting_annotation_wrap_core.obj
 0001:0000e800       ?StartAnnotation@ZMeetingAnnotationWrap@@QAE?AW4ZNSDKError@@W4ZNSDKViewType@@V?$basic_string@_WU?$char_traits@_W@std@@V?$allocator@_W@2@@std@@1@Z 1000f800 f   meeting_annotation_wrap_core.obj
 0001:0000e970       ?StopAnnotation@ZMeetingAnnotationWrap@@QAE?AW4ZNSDKError@@W4ZNSDKViewType@@@Z 1000f970 f   meeting_annotation_wrap_core.obj
 0001:0000ea70       ?SetTool@ZMeetingAnnotationWrap@@QAE?AW4ZNSDKError@@W4ZNSDKViewType@@W4ZNAnnotationToolType@@@Z 1000fa70 f   meeting_annotation_wrap_core.obj
 0001:0000eb80       ?Clear@ZMeetingAnnotationWrap@@QAE?AW4ZNSDKError@@W4ZNSDKViewType@@W4ZNAnnotationClearType@@@Z 1000fb80 f   meeting_annotation_wrap_core.obj
 0001:0000eca0       ?SetColor@ZMeetingAnnotationWrap@@QAE?AW4ZNSDKError@@W4ZNSDKViewType@@V?$basic_string@_WU?$char_traits@_W@std@@V?$allocator@_W@2@@std@@@Z 1000fca0 f   meeting_annotation_wrap_core.obj
 0001:0000ee80       ?SetLineWidth@ZMeetingAnnotationWrap@@QAE?AW4ZNSDKError@@W4ZNSDKViewType@@V?$basic_string@_WU?$char_traits@_W@std@@V?$allocator@_W@2@@std@@@Z 1000fe80 f   meeting_annotation_wrap_core.obj
 0001:0000efb0       ?Undo@ZMeetingAnnotationWrap@@QAE?AW4ZNSDKError@@W4ZNSDKViewType@@@Z 1000ffb0 f   meeting_annotation_wrap_core.obj
 0001:0000f0b0       ?Redo@ZMeetingAnnotationWrap@@QAE?AW4ZNSDKError@@W4ZNSDKViewType@@@Z 100100b0 f   meeting_annotation_wrap_core.obj
 0001:0000f1b0       ??_EZMeetingAudioWrap@@UAEPAXI@Z 100101b0 f i * CIL library *:* CIL module *
 0001:0000f1b0       ??_GZMeetingAudioWrap@@UAEPAXI@Z 100101b0 f i meeting_audio_wrap_core.obj
 0001:0000f1d0       ??1ZMeetingAudioWrap@@UAE@XZ 100101d0 f   meeting_audio_wrap_core.obj
 0001:0000f240       ?Init@ZMeetingAudioWrap@@QAEXXZ 10010240 f   meeting_audio_wrap_core.obj
 0001:0000f410       ?Uninit@ZMeetingAudioWrap@@QAEXXZ 10010410 f   meeting_audio_wrap_core.obj
 0001:0000f580       ?MuteAudio@ZMeetingAudioWrap@@QAE?AW4ZNSDKError@@I_N@Z 10010580 f   meeting_audio_wrap_core.obj
 0001:0000f660       ?UnMuteAudio@ZMeetingAudioWrap@@QAE?AW4ZNSDKError@@I@Z 10010660 f   meeting_audio_wrap_core.obj
 0001:0000f740       ?JoinVoip@ZMeetingAudioWrap@@QAE?AW4ZNSDKError@@XZ 10010740 f   meeting_audio_wrap_core.obj
 0001:0000f810       ?LeaveVoip@ZMeetingAudioWrap@@QAE?AW4ZNSDKError@@XZ 10010810 f   meeting_audio_wrap_core.obj
 0001:0000f8e0       ?EnablePlayChimeWhenEnterOrExit@ZMeetingAudioWrap@@QAE?AW4ZNSDKError@@_N@Z 100108e0 f   meeting_audio_wrap_core.obj
 0001:0000f9c0       ?onUserAudioStatusChange@ZMeetingAudioWrap@@QAEXV?$vector@U_ZNUserAudioStatus@@V?$allocator@U_ZNUserAudioStatus@@@std@@@std@@V?$basic_string@_WU?$char_traits@_W@std@@V?$allocator@_W@2@@3@@Z 100109c0 f   meeting_audio_wrap_core.obj
 0001:0000fa60       ??_GZMeetingVideoWrap@@UAEPAXI@Z 10010a60 f i meeting_video_wrap_core.obj
 0001:0000fa60       ??_EZMeetingVideoWrap@@UAEPAXI@Z 10010a60 f i * CIL library *:* CIL module *
 0001:0000fa80       ??1ZMeetingVideoWrap@@UAE@XZ 10010a80 f   meeting_video_wrap_core.obj
 0001:0000faf0       ?Init@ZMeetingVideoWrap@@QAEXXZ 10010af0 f   meeting_video_wrap_core.obj
 0001:0000fcc0       ?Uninit@ZMeetingVideoWrap@@QAEXXZ 10010cc0 f   meeting_video_wrap_core.obj
 0001:0000fe30       ?MuteVideo@ZMeetingVideoWrap@@QAE?AW4ZNSDKError@@I@Z 10010e30 f   meeting_video_wrap_core.obj
 0001:00010040       ?UnMuteVideo@ZMeetingVideoWrap@@QAE?AW4ZNSDKError@@I@Z 10011040 f   meeting_video_wrap_core.obj
 0001:00010250       ?PinVideo@ZMeetingVideoWrap@@QAE?AW4ZNSDKError@@_N0I@Z 10011250 f   meeting_video_wrap_core.obj
 0001:00010330       ?SpotlightVideo@ZMeetingVideoWrap@@QAE?AW4ZNSDKError@@_NI@Z 10011330 f   meeting_video_wrap_core.obj
 0001:00010410       ?HideOrShowNoVideoUserOnVideoWall@ZMeetingVideoWrap@@QAE?AW4ZNSDKError@@_N@Z 10011410 f   meeting_video_wrap_core.obj
 0001:000104f0       ??_GZMeetingShareWrap@@UAEPAXI@Z 100114f0 f i meeting_share_wrap_core.obj
 0001:000104f0       ??_EZMeetingShareWrap@@UAEPAXI@Z 100114f0 f i * CIL library *:* CIL module *
 0001:00010510       ??1ZMeetingShareWrap@@UAE@XZ 10011510 f   meeting_share_wrap_core.obj
 0001:00010580       ?Init@ZMeetingShareWrap@@QAEXXZ 10011580 f   meeting_share_wrap_core.obj
 0001:00010750       ?Uninit@ZMeetingShareWrap@@QAEXXZ 10011750 f   meeting_share_wrap_core.obj
 0001:000108c0       ?StartAppShare@ZMeetingShareWrap@@QAE?AW4ZNSDKError@@V?$basic_string@_WU?$char_traits@_W@std@@V?$allocator@_W@2@@std@@@Z 100118c0 f   meeting_share_wrap_core.obj
 0001:00010a30       ?StartMonitorShare@ZMeetingShareWrap@@QAE?AW4ZNSDKError@@V?$basic_string@_WU?$char_traits@_W@std@@V?$allocator@_W@2@@std@@@Z 10011a30 f   meeting_share_wrap_core.obj
 0001:00010b70       ?StopShare@ZMeetingShareWrap@@QAE?AW4ZNSDKError@@XZ 10011b70 f   meeting_share_wrap_core.obj
 0001:00010c40       ?GetType@FreeMeetingReminderHandler@@QAE?AW4ZNFreeMeetingEndingReminderType@@XZ 10011c40 f i meeting_config_wrap_core.obj
 0001:00010ca0       ?InputMeetingIDAndScreenName@ZMeetingPasswordAndScreenNameHandler@@QAE_NV?$basic_string@_WU?$char_traits@_W@std@@V?$allocator@_W@2@@std@@0@Z 10011ca0 f i meeting_config_wrap_core.obj
 0001:00010ca0       ?InputMeetingPasswordAndScreenName@ZMeetingPasswordAndScreenNameHandler@@QAE_NV?$basic_string@_WU?$char_traits@_W@std@@V?$allocator@_W@2@@std@@0@Z 10011ca0 f i meeting_config_wrap_core.obj
 0001:00010d30       ?GetWebinarRegisterUrl@ZWebinarNeedRegisterHandler@@QAE?AV?$basic_string@_WU?$char_traits@_W@std@@V?$allocator@_W@2@@std@@XZ 10011d30 f i meeting_config_wrap_core.obj
 0001:00010db0       ?InputWebinarRegisterEmailAndScreenName@ZWebinarNeedRegisterHandler@@QAE?AW4ZNSDKError@@V?$basic_string@_WU?$char_traits@_W@std@@V?$allocator@_W@2@@std@@0@Z 10011db0 f i meeting_config_wrap_core.obj
 0001:00010e40       ??_EZMeetingConfigWrap@@UAEPAXI@Z 10011e40 f i * CIL library *:* CIL module *
 0001:00010e40       ??_GZMeetingConfigWrap@@UAEPAXI@Z 10011e40 f i meeting_config_wrap_core.obj
 0001:00010e60       ??1ZMeetingConfigWrap@@UAE@XZ 10011e60 f   meeting_config_wrap_core.obj
 0001:00010ef0       ?Init@ZMeetingConfigWrap@@QAEXXZ 10011ef0 f   meeting_config_wrap_core.obj
 0001:000110c0       ?Uninit@ZMeetingConfigWrap@@QAEXXZ 100120c0 f   meeting_config_wrap_core.obj
 0001:00011240       ?EnableInviteButtonOnMeetingUI@ZMeetingConfigWrap@@QAE?AW4ZNSDKError@@_N@Z 10012240 f   meeting_config_wrap_core.obj
 0001:00011310       ?SetFloatVideoPos@ZMeetingConfigWrap@@QAEXU_ZNWndPosition@@@Z 10012310 f   meeting_config_wrap_core.obj
 0001:00011470       ?SetBottomFloatToolbarWndVisibility@ZMeetingConfigWrap@@QAEX_N@Z 10012470 f   meeting_config_wrap_core.obj
 0001:00011540       ?SetSharingToolbarVisibility@ZMeetingConfigWrap@@QAEX_N@Z 10012540 f   meeting_config_wrap_core.obj
 0001:00011610       ?SetDirectShareMonitorID@ZMeetingConfigWrap@@QAEXV?$basic_string@_WU?$char_traits@_W@std@@V?$allocator@_W@2@@std@@@Z 10012610 f   meeting_config_wrap_core.obj
 0001:00011700       ?SetMeetingUIPos@ZMeetingConfigWrap@@QAEXU_ZNWndPosition@@@Z 10012700 f   meeting_config_wrap_core.obj
 0001:00011860       ?DisableWaitingForHostDialog@ZMeetingConfigWrap@@QAEX_N@Z 10012860 f   meeting_config_wrap_core.obj
 0001:00011930       ?DisablePopupMeetingWrongPSWDlg@ZMeetingConfigWrap@@QAEX_N@Z 10012930 f   meeting_config_wrap_core.obj
 0001:00011a00       ?EnableAutoEndOtherMeetingWhenStartMeeting@ZMeetingConfigWrap@@QAEX_N@Z 10012a00 f   meeting_config_wrap_core.obj
 0001:00011ad0       ?EnableLButtonDBClick4SwitchFullScreenMode@ZMeetingConfigWrap@@QAEX_N@Z 10012ad0 f   meeting_config_wrap_core.obj
 0001:00011ba0       ?SetFloatVideoWndVisibility@ZMeetingConfigWrap@@QAEX_N@Z 10012ba0 f   meeting_config_wrap_core.obj
 0001:00011c70       ?PrePopulateWebinarRegistrationInfo@ZMeetingConfigWrap@@QAEXV?$basic_string@_WU?$char_traits@_W@std@@V?$allocator@_W@2@@std@@0@Z 10012c70 f   meeting_config_wrap_core.obj
 0001:00011da0       ?Reset@ZMeetingConfigWrap@@QAEXXZ 10012da0 f   meeting_config_wrap_core.obj
 0001:00011e70       ?EnableAutoAdjustSpeakerVolumeWhenJoinAudio@ZMeetingConfigWrap@@QAEX_N@Z 10012e70 f   meeting_config_wrap_core.obj
 0001:00011f40       ?EnableAutoAdjustMicVolumeWhenJoinAudio@ZMeetingConfigWrap@@QAEX_N@Z 10012f40 f   meeting_config_wrap_core.obj
 0001:00012010       ?ConfigDSCP@ZMeetingConfigWrap@@QAEXHH_N@Z 10013010 f   meeting_config_wrap_core.obj
 0001:000120f0       ?EnableHideFullPhoneNumber4PureCallinUser@ZMeetingConfigWrap@@QAEX_N@Z 100130f0 f   meeting_config_wrap_core.obj
 0001:000121c0       ?EnableLengthLimitationOfMeetingNumber@ZMeetingConfigWrap@@QAEX_N@Z 100131c0 f   meeting_config_wrap_core.obj
 0001:00012290       ?EnableShareIOSDevice@ZMeetingConfigWrap@@QAEX_N@Z 10013290 f   meeting_config_wrap_core.obj
 0001:00012360       ?EnableShareWhiteBoard@ZMeetingConfigWrap@@QAEX_N@Z 10013360 f   meeting_config_wrap_core.obj
 0001:00012430       ?ForceDisableMultiShare@ZMeetingConfigWrap@@QAEX_N@Z 10013430 f   meeting_config_wrap_core.obj
 0001:00012500       ?SetMaxDurationForOnlyHostInMeeting@ZMeetingConfigWrap@@QAEXH@Z 10013500 f   meeting_config_wrap_core.obj
 0001:000125d0       ?EnableLocalRecordingConvertProgressBarDialog@ZMeetingConfigWrap@@QAEX_N@Z 100135d0 f   meeting_config_wrap_core.obj
 0001:000126a0       ?EnableApproveRemoteControlDlg@ZMeetingConfigWrap@@QAEX_N@Z 100136a0 f   meeting_config_wrap_core.obj
 0001:00012770       ?EnableDeclineRemoteControlResponseDlg@ZMeetingConfigWrap@@QAEX_N@Z 10013770 f   meeting_config_wrap_core.obj
 0001:00012840       ?EnableLeaveMeetingOptionForHost@ZMeetingConfigWrap@@QAEX_N@Z 10013840 f   meeting_config_wrap_core.obj
 0001:00012910       ?EnableVideoButtonOnMeetingUI@ZMeetingConfigWrap@@QAEX_N@Z 10013910 f   meeting_config_wrap_core.obj
 0001:000129e0       ?EnableAudioButtonOnMeetingUI@ZMeetingConfigWrap@@QAEX_N@Z 100139e0 f   meeting_config_wrap_core.obj
 0001:00012ab0       ?EnableEnterAndExitFullScreenButtonOnMeetingUI@ZMeetingConfigWrap@@QAEX_N@Z 10013ab0 f   meeting_config_wrap_core.obj
 0001:00012b80       ?RedirectClickShareBTNEvent@ZMeetingConfigWrap@@QAEX_N@Z 10013b80 f   meeting_config_wrap_core.obj
 0001:00012c50       ?RedirectClickEndMeetingBTNEvent@ZMeetingConfigWrap@@QAEX_N@Z 10013c50 f   meeting_config_wrap_core.obj
 0001:00012d20       ?RedirectFreeMeetingEndingReminderDlg@ZMeetingConfigWrap@@QAEX_N@Z 10013d20 f   meeting_config_wrap_core.obj
 0001:00012df0       ?RedirectClickCustomLiveStreamMenuEvent@ZMeetingConfigWrap@@QAEX_N@Z 10013df0 f   meeting_config_wrap_core.obj
 0001:00012ec0       ?RedirectClickParticipantListBTNEvent@ZMeetingConfigWrap@@QAEX_N@Z 10013ec0 f   meeting_config_wrap_core.obj
 0001:00012f90       ?RedirectClickCCBTNEvent@ZMeetingConfigWrap@@QAEX_N@Z 10013f90 f   meeting_config_wrap_core.obj
 0001:00013060       ?RedirectClickAudioBTNEvent@ZMeetingConfigWrap@@QAEX_N@Z 10014060 f   meeting_config_wrap_core.obj
 0001:00013130       ?RedirectClickAudioMenuBTNEvent@ZMeetingConfigWrap@@QAEX_N@Z 10014130 f   meeting_config_wrap_core.obj
 0001:00013200       ?RedirectMeetingWarningMsg@ZMeetingConfigWrap@@QAEXU_ZNZoomRedirectWarningMsgOption@@@Z 10014200 f   meeting_config_wrap_core.obj
 0001:000132e0       ?EnableToolTipsShow@ZMeetingConfigWrap@@QAEX_N@Z 100142e0 f   meeting_config_wrap_core.obj
 0001:000133b0       ?EnableAirplayInstructionWindow@ZMeetingConfigWrap@@QAEX_N@Z 100143b0 f   meeting_config_wrap_core.obj
 0001:00013480       ?EnableClaimHostFeature@ZMeetingConfigWrap@@QAEX_N@Z 10014480 f   meeting_config_wrap_core.obj
 0001:00013550       ?EnableAutoHideJoinAudioDialog@ZMeetingConfigWrap@@QAEX_N@Z 10014550 f   meeting_config_wrap_core.obj
 0001:00013620       ?AlwaysShowIconOnTaskBar@ZMeetingConfigWrap@@QAEX_N@Z 10014620 f   meeting_config_wrap_core.obj
 0001:000136f0       ?DisableSplitScreenModeUIElements@ZMeetingConfigWrap@@QAEX_N@Z 100146f0 f   meeting_config_wrap_core.obj
 0001:000137c0       ?SetShowAudioUseComputerSoundChkbox@ZMeetingConfigWrap@@QAEX_N@Z 100147c0 f   meeting_config_wrap_core.obj
 0001:00013890       ?SetShowCallInTab@ZMeetingConfigWrap@@QAEX_N@Z 10014890 f   meeting_config_wrap_core.obj
 0001:00013960       ?SetShowCallMeTab@ZMeetingConfigWrap@@QAEX_N@Z 10014960 f   meeting_config_wrap_core.obj
 0001:00013a30       ?DisableTopMostAttr4SettingDialog@ZMeetingConfigWrap@@QAEX_N@Z 10014a30 f   meeting_config_wrap_core.obj
 0001:00013b00       ?EnableGrabShareWithoutReminder@ZMeetingConfigWrap@@QAEX_N@Z 10014b00 f   meeting_config_wrap_core.obj
 0001:00013bd0       ?EnableShowShareSwitchMultiToSingleConfirmDlg@ZMeetingConfigWrap@@QAEX_N@Z 10014bd0 f   meeting_config_wrap_core.obj
 0001:00013ca0       ?DisableFreeMeetingRemainTimeNotify@ZMeetingConfigWrap@@QAEX_N@Z 10014ca0 f   meeting_config_wrap_core.obj
 0001:00013d70       ?HideChatItemOnMeetingUI@ZMeetingConfigWrap@@QAEX_N@Z 10014d70 f   meeting_config_wrap_core.obj
 0001:00013e40       ?HideRecordItemOnMeetingUI@ZMeetingConfigWrap@@QAEX_N@Z 10014e40 f   meeting_config_wrap_core.obj
 0001:00013f10       ?HideUpgradeFreeMeetingButton@ZMeetingConfigWrap@@QAEX_N@Z 10014f10 f   meeting_config_wrap_core.obj
 0001:00013fe0       ?SetShowInviteDlgTabPage@ZMeetingConfigWrap@@QAEXW4ZNSDKInviteDlgTabPage@@_N@Z 10014fe0 f   meeting_config_wrap_core.obj
 0001:000140e0       ?SetShowH323SubTabPage@ZMeetingConfigWrap@@QAEXW4ZNSDKH323TabPage@@_N@Z 100150e0 f   meeting_config_wrap_core.obj
 0001:000141d0       ?HideUpgradeWarningMsgForFreeUserWhenSchedule@ZMeetingConfigWrap@@QAEX_N@Z 100151d0 f   meeting_config_wrap_core.obj
 0001:000142a0       ?HideSwitchCameraButton@ZMeetingConfigWrap@@QAEX_N@Z 100152a0 f   meeting_config_wrap_core.obj
 0001:00014370       ?HideCopyUrlOnInviteWindow@ZMeetingConfigWrap@@QAEX_N@Z 10015370 f   meeting_config_wrap_core.obj
 0001:00014440       ?HideCopyInvitationOnInviteWindow@ZMeetingConfigWrap@@QAEX_N@Z 10015440 f   meeting_config_wrap_core.obj
 0001:00014510       ?HideKeypadButtonOnMeetingWindow@ZMeetingConfigWrap@@QAEX_N@Z 10015510 f   meeting_config_wrap_core.obj
 0001:000145e0       ?HideRemoteControlOnMeetingUI@ZMeetingConfigWrap@@QAEX_N@Z 100155e0 f   meeting_config_wrap_core.obj
 0001:000146b0       ?HideQAOnMeetingUI@ZMeetingConfigWrap@@QAEX_N@Z 100156b0 f   meeting_config_wrap_core.obj
 0001:00014780       ?HidePollOnMeetingUI@ZMeetingConfigWrap@@QAEX_N@Z 10015780 f   meeting_config_wrap_core.obj
 0001:00014850       ?EnableInputMeetingPasswordDlg@ZMeetingConfigWrap@@QAEX_N@Z 10015850 f   meeting_config_wrap_core.obj
 0001:00014920       ?EnableInputMeetingScreenNameDlg@ZMeetingConfigWrap@@QAEX_N@Z 10015920 f   meeting_config_wrap_core.obj
 0001:000149f0       ?RedirectWebinarNeedRegister@ZMeetingConfigWrap@@QAEX_N@Z 100159f0 f   meeting_config_wrap_core.obj
 0001:00014ac0       ?RedirectEndOtherMeeting@ZMeetingConfigWrap@@QAEX_N@Z 10015ac0 f   meeting_config_wrap_core.obj
 0001:00014b90       ?EnableForceAutoStartMyVideoWhenJoinMeeting@ZMeetingConfigWrap@@QAEX_N@Z 10015b90 f   meeting_config_wrap_core.obj
 0001:00014c60       ?EnableForceAutoStopMyVideoWhenJoinMeeting@ZMeetingConfigWrap@@QAEX_N@Z 10015c60 f   meeting_config_wrap_core.obj
 0001:00014d30       ?DisableAutoShowSelectJoinAudioDlgWhenJoinMeeting@ZMeetingConfigWrap@@QAEX_N@Z 10015d30 f   meeting_config_wrap_core.obj
 0001:00014e00       ?DisableShowJoinMeetingWnd@ZMeetingConfigWrap@@QAEX_N@Z 10015e00 f   meeting_config_wrap_core.obj
 0001:00014ed0       ?DisableRemoteCtrlCopyPasteFeature@ZMeetingConfigWrap@@QAEX_N@Z 10015ed0 f   meeting_config_wrap_core.obj
 0001:00014fa0       ?UpgradeMeeting@ZMeetingConfigWrap@@QAE?AW4ZNSDKError@@XZ 10015fa0 f   meeting_config_wrap_core.obj
 0001:00015010       ?UpgradeAccount@ZMeetingConfigWrap@@QAE?AW4ZNSDKError@@XZ 10016010 f   meeting_config_wrap_core.obj
 0001:00015080       ?CancelUpdate@ZMeetingConfigWrap@@QAE?AW4ZNSDKError@@XZ 10016080 f   meeting_config_wrap_core.obj
 0001:000150f0       ?SetShowVideoOptimizeChkbox@ZMeetingConfigWrap@@QAEX_N@Z 100160f0 f   meeting_config_wrap_core.obj
 0001:000151c0       ?GetRequiredInfoType@ZMeetingConfigWrap@@QAE?AW4ZNRequiredInfoType@@XZ 100161c0 f   meeting_config_wrap_core.obj
 0001:00015270       ?InputMeetingIDAndScreenName@ZMeetingConfigWrap@@QAE_NV?$basic_string@_WU?$char_traits@_W@std@@V?$allocator@_W@2@@std@@0@Z 10016270 f   meeting_config_wrap_core.obj
 0001:00015270       ?InputMeetingPasswordAndScreenName@ZMeetingConfigWrap@@QAE_NV?$basic_string@_WU?$char_traits@_W@std@@V?$allocator@_W@2@@std@@0@Z 10016270 f   meeting_config_wrap_core.obj
 0001:00015360       ?InputMeetingScreenName@ZMeetingConfigWrap@@QAE_NV?$basic_string@_WU?$char_traits@_W@std@@V?$allocator@_W@2@@std@@@Z 10016360 f   meeting_config_wrap_core.obj
 0001:00015440       ?MeetingPasswordAndScreenNameHandler_Cancel@ZMeetingConfigWrap@@QAEXXZ 10016440 f   meeting_config_wrap_core.obj
 0001:000154b0       ?GetWebinarNeedRegisterType@ZMeetingConfigWrap@@QAE?AW4ZNWebinarNeedRegisterType@@XZ 100164b0 f   meeting_config_wrap_core.obj
 0001:00015530       ?ReleaseRegisterWebinarByUrl@ZMeetingConfigWrap@@QAEXXZ 10016530 f   meeting_config_wrap_core.obj
 0001:00015530       ?CancelRegisterWebinarByEmail@ZMeetingConfigWrap@@QAEXXZ 10016530 f   meeting_config_wrap_core.obj
 0001:000155a0       ?InputWebinarRegisterEmailAndScreenName@ZMeetingConfigWrap@@QAE?AW4ZNSDKError@@V?$basic_string@_WU?$char_traits@_W@std@@V?$allocator@_W@2@@std@@0@Z 100165a0 f   meeting_config_wrap_core.obj
 0001:00015690       ??_EZUserInfoWrap@@UAEPAXI@Z 10016690 f i * CIL library *:* CIL module *
 0001:00015690       ??_GZUserInfoWrap@@UAEPAXI@Z 10016690 f i meeting_participants_wrap_core.obj
 0001:000156c0       ??0ZMeetingParticipantsWrap@@QAE@XZ 100166c0 f   meeting_participants_wrap_core.obj
 0001:00015740       ??_GZMeetingParticipantsWrap@@UAEPAXI@Z 10016740 f i meeting_participants_wrap_core.obj
 0001:00015740       ??_EZMeetingParticipantsWrap@@UAEPAXI@Z 10016740 f i * CIL library *:* CIL module *
 0001:00015760       ??1ZMeetingParticipantsWrap@@UAE@XZ 10016760 f   meeting_participants_wrap_core.obj
 0001:000157e0       ?Init@ZMeetingParticipantsWrap@@QAEXXZ 100167e0 f   meeting_participants_wrap_core.obj
 0001:000159b0       ?Uninit@ZMeetingParticipantsWrap@@QAEXXZ 100169b0 f   meeting_participants_wrap_core.obj
 0001:00015b20       ?onUserJoin@ZMeetingParticipantsWrap@@QAEXV?$vector@IV?$allocator@I@std@@@std@@V?$basic_string@_WU?$char_traits@_W@std@@V?$allocator@_W@2@@3@@Z 10016b20 f   meeting_participants_wrap_core.obj
 0001:00015bc0       ?onUserLeft@ZMeetingParticipantsWrap@@QAEXV?$vector@IV?$allocator@I@std@@@std@@V?$basic_string@_WU?$char_traits@_W@std@@V?$allocator@_W@2@@3@@Z 10016bc0 f   meeting_participants_wrap_core.obj
 0001:00015c60       ?LowerHand@ZMeetingParticipantsWrap@@QAE?AW4ZNSDKError@@I@Z 10016c60 f   meeting_participants_wrap_core.obj
 0001:00015d40       ?LowerAllHands@ZMeetingParticipantsWrap@@QAE?AW4ZNSDKError@@XZ 10016d40 f   meeting_participants_wrap_core.obj
 0001:00015e10       ?GetParticipantsList@ZMeetingParticipantsWrap@@QAE?AV?$vector@IV?$allocator@I@std@@@std@@XZ 10016e10 f   meeting_participants_wrap_core.obj
 0001:00015f50       ?GetUserInfomationByUserID@ZMeetingParticipantsWrap@@QAE?AU_ZNUserInfomation@@I@Z 10016f50 f   meeting_participants_wrap_core.obj
 0001:000161b0       ??1_ZNUserInfomation@@QAE@XZ 100171b0 f i meeting_participants_wrap_core.obj
 0001:00016220       ?IsValidUserID@ZUserInfoWrap@@QAE_NI@Z 10017220 f   meeting_participants_wrap_core.obj
 0001:00016300       ?GetUserNamme@ZUserInfoWrap@@QAE?AV?$basic_string@_WU?$char_traits@_W@std@@V?$allocator@_W@2@@std@@I@Z 10017300 f   meeting_participants_wrap_core.obj
 0001:00016370       ?GetAudioJoinType@ZUserInfoWrap@@QAE?AW4ZNAudioType@@I@Z 10017370 f   meeting_participants_wrap_core.obj
 0001:000163d0       ?GetUserRole@ZUserInfoWrap@@QAE?AW4ZNUserRole@@I@Z 100173d0 f   meeting_participants_wrap_core.obj
 0001:00016440       ?GetAudioVoiceLevel@ZUserInfoWrap@@QAE?AV?$basic_string@_WU?$char_traits@_W@std@@V?$allocator@_W@2@@std@@I@Z 10017440 f   meeting_participants_wrap_core.obj
 0001:000164e0       ??_GIH323Device@ZOOMSDK@@UAEPAXI@Z 100174e0 f i meeting_h323_wrap_core.obj
 0001:000164e0       ??_EIH323Device@ZOOMSDK@@UAEPAXI@Z 100174e0 f i * CIL library *:* CIL module *
 0001:00016510       ?SetName@CustomizedH323Device@ZOOMSDK@@UAEXPB_W@Z 10017510 f i meeting_h323_wrap_core.obj
 0001:00016560       ?GetName@CustomizedH323Device@ZOOMSDK@@UAEPB_WXZ 10017560 f i meeting_h323_wrap_core.obj
 0001:00016570       ?SetIP@CustomizedH323Device@ZOOMSDK@@UAEXPB_W@Z 10017570 f i meeting_h323_wrap_core.obj
 0001:000165c0       ?GetIP@CustomizedH323Device@ZOOMSDK@@UAEPB_WXZ 100175c0 f i meeting_h323_wrap_core.obj
 0001:000165d0       ?SetE164Num@CustomizedH323Device@ZOOMSDK@@UAEXPB_W@Z 100175d0 f i meeting_h323_wrap_core.obj
 0001:00016620       ?GetE164Num@CustomizedH323Device@ZOOMSDK@@UAEPB_WXZ 10017620 f i meeting_h323_wrap_core.obj
 0001:00016630       ?GetDeviceType@CustomizedH323Device@ZOOMSDK@@UAE?AW4H323DeviceType@2@XZ 10017630 f i meeting_h323_wrap_core.obj
 0001:00016630       ?GetExecutionResourceTls@?$ThreadProxyFactory@VFreeThreadProxy@details@Concurrency@@@details@Concurrency@@UAEKXZ 10017630 f i libconcrt:ThreadProxyFactoryManager.obj
 0001:00016640       ?IsCustomizedH323Device@CustomizedH323Device@ZOOMSDK@@UAE_NXZ 10017640 f i meeting_h323_wrap_core.obj
 0001:00016640       ?SweepWaitNode@SingleWaitBlock@details@Concurrency@@UAE_NXZ 10017640 f i libconcrt:event.obj
 0001:00016640       ___acrt_uninitialize_command_line 10017640 f i libucrt:argv_data.obj
 0001:00016640       ?AllowGeneralFetchOfReservedContexts@SchedulerBase@details@Concurrency@@MAE_NXZ 10017640 f i libconcrt:SchedulerBase.obj
 0001:00016650       ??_GCustomizedH323Device@ZOOMSDK@@UAEPAXI@Z 10017650 f i meeting_h323_wrap_core.obj
 0001:00016650       ??_ECustomizedH323Device@ZOOMSDK@@UAEPAXI@Z 10017650 f i * CIL library *:* CIL module *
 0001:00016670       ??1CustomizedH323Device@ZOOMSDK@@UAE@XZ 10017670 f i meeting_h323_wrap_core.obj
 0001:00016710       ??_GZMeetingH323Wrap@@UAEPAXI@Z 10017710 f i meeting_h323_wrap_core.obj
 0001:00016710       ??_EZMeetingH323Wrap@@UAEPAXI@Z 10017710 f i * CIL library *:* CIL module *
 0001:00016730       ??1ZMeetingH323Wrap@@UAE@XZ 10017730 f   meeting_h323_wrap_core.obj
 0001:000167a0       ?Init@ZMeetingH323Wrap@@QAEXXZ 100177a0 f   meeting_h323_wrap_core.obj
 0001:00016970       ?Uninit@ZMeetingH323Wrap@@QAEXXZ 10017970 f   meeting_h323_wrap_core.obj
 0001:00016ae0       ?CallOutH323@ZMeetingH323Wrap@@QAE?AW4ZNSDKError@@V?$basic_string@_WU?$char_traits@_W@std@@V?$allocator@_W@2@@std@@00W4ZNH323DeviceType@@@Z 10017ae0 f   meeting_h323_wrap_core.obj
 0001:00016cc0       ?CancelCallOutH323@ZMeetingH323Wrap@@QAE?AW4ZNSDKError@@XZ 10017cc0 f   meeting_h323_wrap_core.obj
 0001:00016d90       ?GetH323Address@ZMeetingH323Wrap@@QAE?AV?$vector@V?$basic_string@_WU?$char_traits@_W@std@@V?$allocator@_W@2@@std@@V?$allocator@V?$basic_string@_WU?$char_traits@_W@std@@V?$allocator@_W@2@@std@@@2@@std@@XZ 10017d90 f   meeting_h323_wrap_core.obj
 0001:00016f30       ?GetH323Password@ZMeetingH323Wrap@@QAE?AV?$basic_string@_WU?$char_traits@_W@std@@V?$allocator@_W@2@@std@@XZ 10017f30 f   meeting_h323_wrap_core.obj
 0001:00017050       ?GetCalloutH323DviceList@ZMeetingH323Wrap@@QAE?AV?$vector@U_ZNH323DeviecInfo@@V?$allocator@U_ZNH323DeviecInfo@@@std@@@std@@XZ 10018050 f   meeting_h323_wrap_core.obj
 0001:00017320       ?push_back@?$vector@U_ZNH323DeviecInfo@@V?$allocator@U_ZNH323DeviecInfo@@@std@@@std@@QAEXABU_ZNH323DeviecInfo@@@Z 10018320 f i meeting_h323_wrap_core.obj
 0001:000173e0       ?push_back@?$vector@V?$basic_string@_WU?$char_traits@_W@std@@V?$allocator@_W@2@@std@@V?$allocator@V?$basic_string@_WU?$char_traits@_W@std@@V?$allocator@_W@2@@std@@@2@@std@@QAEXABV?$basic_string@_WU?$char_traits@_W@std@@V?$allocator@_W@2@@2@@Z 100183e0 f i meeting_h323_wrap_core.obj
 0001:00017490       ?_Tidy@?$vector@U_ZNH323DeviecInfo@@V?$allocator@U_ZNH323DeviecInfo@@@std@@@std@@IAEXXZ 10018490 f i meeting_h323_wrap_core.obj
 0001:000174f0       ?_Reserve@?$vector@U_ZNH323DeviecInfo@@V?$allocator@U_ZNH323DeviecInfo@@@std@@@std@@IAEXI@Z 100184f0 f i meeting_h323_wrap_core.obj
 0001:00017580       ?_Reserve@?$vector@V?$basic_string@_WU?$char_traits@_W@std@@V?$allocator@_W@2@@std@@V?$allocator@V?$basic_string@_WU?$char_traits@_W@std@@V?$allocator@_W@2@@std@@@2@@std@@IAEXI@Z 10018580 f i meeting_h323_wrap_core.obj
 0001:00017610       ?deallocate@?$_Wrap_alloc@V?$allocator@U_ZNH323DeviecInfo@@@std@@@std@@QAEXPAU_ZNH323DeviecInfo@@I@Z 10018610 f i meeting_h323_wrap_core.obj
 0001:00017670       ?deallocate@?$_Wrap_alloc@V?$allocator@V?$basic_string@_WU?$char_traits@_W@std@@V?$allocator@_W@2@@std@@@std@@@std@@QAEXPAV?$basic_string@_WU?$char_traits@_W@std@@V?$allocator@_W@2@@2@I@Z 10018670 f i meeting_h323_wrap_core.obj
 0001:000176d0       ?_Reallocate@?$vector@U_ZNH323DeviecInfo@@V?$allocator@U_ZNH323DeviecInfo@@@std@@@std@@IAEXI@Z 100186d0 f i meeting_h323_wrap_core.obj
 0001:000177d0       ?_Reallocate@?$vector@V?$basic_string@_WU?$char_traits@_W@std@@V?$allocator@_W@2@@std@@V?$allocator@V?$basic_string@_WU?$char_traits@_W@std@@V?$allocator@_W@2@@std@@@2@@std@@IAEXI@Z 100187d0 f i meeting_h323_wrap_core.obj
 0001:000178c0       ??$_Destroy_range1@V?$allocator@V?$basic_string@_WU?$char_traits@_W@std@@V?$allocator@_W@2@@std@@@std@@PAV?$basic_string@_WU?$char_traits@_W@std@@V?$allocator@_W@2@@2@@std@@YAXPAV?$basic_string@_WU?$char_traits@_W@std@@V?$allocator@_W@2@@0@0AAU?$_Wrap_alloc@V?$allocator@V?$basic_string@_WU?$char_traits@_W@std@@V?$allocator@_W@2@@std@@@std@@@0@U?$integral_constant@_N$0A@@0@@Z 100188c0 f i meeting_h323_wrap_core.obj
 0001:00017910       ??$_Uninitialized_move_al_unchecked1@PAU_ZNH323DeviecInfo@@PAU1@V?$allocator@U_ZNH323DeviecInfo@@@std@@@std@@YAPAU_ZNH323DeviecInfo@@PAU1@00AAU?$_Wrap_alloc@V?$allocator@U_ZNH323DeviecInfo@@@std@@@0@U_General_ptr_iterator_tag@0@U_Any_tag@0@@Z 10018910 f i meeting_h323_wrap_core.obj
 0001:000179b0       ??$_Uninitialized_move_al_unchecked1@PAV?$basic_string@_WU?$char_traits@_W@std@@V?$allocator@_W@2@@std@@PAV12@V?$allocator@V?$basic_string@_WU?$char_traits@_W@std@@V?$allocator@_W@2@@std@@@2@@std@@YAPAV?$basic_string@_WU?$char_traits@_W@std@@V?$allocator@_W@2@@0@PAV10@00AAU?$_Wrap_alloc@V?$allocator@V?$basic_string@_WU?$char_traits@_W@std@@V?$allocator@_W@2@@std@@@std@@@0@U_General_ptr_iterator_tag@0@U_Any_tag@0@@Z 100189b0 f i meeting_h323_wrap_core.obj
 0001:00017a00       ??_GZSettingVideoWrap@@UAEPAXI@Z 10018a00 f i setting_video_wrap_core.obj
 0001:00017a00       ??_EZSettingVideoWrap@@UAEPAXI@Z 10018a00 f i * CIL library *:* CIL module *
 0001:00017a20       ??1ZSettingVideoWrap@@UAE@XZ 10018a20 f   setting_video_wrap_core.obj
 0001:00017a90       ?Init@ZSettingVideoWrap@@QAEXXZ 10018a90 f   setting_video_wrap_core.obj
 0001:00017c60       ?Uninit@ZSettingVideoWrap@@QAEXXZ 10018c60 f   setting_video_wrap_core.obj
 0001:00017dd0       ?SelectCamera@ZSettingVideoWrap@@QAE?AW4ZNSDKError@@V?$basic_string@_WU?$char_traits@_W@std@@V?$allocator@_W@2@@std@@@Z 10018dd0 f   setting_video_wrap_core.obj
 0001:00017ed0       ?IsVideoMirrorEffectEnable@ZSettingVideoWrap@@QAE_NXZ 10018ed0 f   setting_video_wrap_core.obj
 0001:00017f90       ?GetCameraList@ZSettingVideoWrap@@QAE?AV?$vector@U_ZNCameraInfo@@V?$allocator@U_ZNCameraInfo@@@std@@@std@@XZ 10018f90 f   setting_video_wrap_core.obj
 0001:00018210       ?EnableVideoMirrorEffect@ZSettingVideoWrap@@QAE?AW4ZNSDKError@@_N@Z 10019210 f   setting_video_wrap_core.obj
 0001:000182f0       ?EnableFaceBeautyEffect@ZSettingVideoWrap@@QAE?AW4ZNSDKError@@_N@Z 100192f0 f   setting_video_wrap_core.obj
 0001:000183d0       ?IsFaceBeautyEffectEnabled@ZSettingVideoWrap@@QAE_NXZ 100193d0 f   setting_video_wrap_core.obj
 0001:00018490       ?EnableHDVideo@ZSettingVideoWrap@@QAE?AW4ZNSDKError@@_N@Z 10019490 f   setting_video_wrap_core.obj
 0001:00018570       ?IsHDVideoEnabled@ZSettingVideoWrap@@QAE_NXZ 10019570 f   setting_video_wrap_core.obj
 0001:00018630       ?EnableAlwaysShowNameOnVideo@ZSettingVideoWrap@@QAE?AW4ZNSDKError@@_N@Z 10019630 f   setting_video_wrap_core.obj
 0001:00018710       ?IsAlwaysShowNameOnVideoEnabled@ZSettingVideoWrap@@QAE_NXZ 10019710 f   setting_video_wrap_core.obj
 0001:000187d0       ?EnableVideoPreviewDialog@ZSettingVideoWrap@@QAE?AW4ZNSDKError@@_N@Z 100197d0 f   setting_video_wrap_core.obj
 0001:000188b0       ?IsVideoPreviewDialogEnabled@ZSettingVideoWrap@@QAE_NXZ 100198b0 f   setting_video_wrap_core.obj
 0001:00018970       ?EnableAutoTurnOffVideoWhenJoinMeeting@ZSettingVideoWrap@@QAE?AW4ZNSDKError@@_N@Z 10019970 f   setting_video_wrap_core.obj
 0001:00018a50       ?IsAutoTurnOffVideoWhenJoinMeetingEnabled@ZSettingVideoWrap@@QAE_NXZ 10019a50 f   setting_video_wrap_core.obj
 0001:00018b10       ?EnableAlwaysUse16v9@ZSettingVideoWrap@@QAE?AW4ZNSDKError@@_N@Z 10019b10 f   setting_video_wrap_core.obj
 0001:00018bf0       ?IsAlwaysUse16v9@ZSettingVideoWrap@@QAE_NXZ 10019bf0 f   setting_video_wrap_core.obj
 0001:00018cb0       ?EnableSpotlightSelf@ZSettingVideoWrap@@QAE?AW4ZNSDKError@@_N@Z 10019cb0 f   setting_video_wrap_core.obj
 0001:00018d90       ?IsSpotlightSelfEnabled@ZSettingVideoWrap@@QAE_NXZ 10019d90 f   setting_video_wrap_core.obj
 0001:00018e50       ?EnableHardwareEncode@ZSettingVideoWrap@@QAE?AW4ZNSDKError@@_N@Z 10019e50 f   setting_video_wrap_core.obj
 0001:00018f30       ?IsHardwareEncodeEnabled@ZSettingVideoWrap@@QAE_NXZ 10019f30 f   setting_video_wrap_core.obj
 0001:00018ff0       ?Enable49VideoesInGallaryView@ZSettingVideoWrap@@QAE?AW4ZNSDKError@@_N@Z 10019ff0 f   setting_video_wrap_core.obj
 0001:000190d0       ?Is49VideoesInGallaryViewEnabled@ZSettingVideoWrap@@QAE_NXZ 1001a0d0 f   setting_video_wrap_core.obj
 0001:00019190       ?EnableHideNoVideoUsersOnWallView@ZSettingVideoWrap@@QAE?AW4ZNSDKError@@_N@Z 1001a190 f   setting_video_wrap_core.obj
 0001:00019270       ?IsHideNoVideoUsersOnWallViewEnabled@ZSettingVideoWrap@@QAE_NXZ 1001a270 f   setting_video_wrap_core.obj
 0001:00019330       ?onDefaultCamDeviceChanged@ZSettingVideoWrap@@QAEXV?$basic_string@_WU?$char_traits@_W@std@@V?$allocator@_W@2@@std@@0@Z 1001a330 f   setting_video_wrap_core.obj
 0001:000193e0       ??_GZSettingAudioWrap@@UAEPAXI@Z 1001a3e0 f i setting_audio_wrap_core.obj
 0001:000193e0       ??_EZSettingAudioWrap@@UAEPAXI@Z 1001a3e0 f i * CIL library *:* CIL module *
 0001:00019400       ??1ZSettingAudioWrap@@UAE@XZ 1001a400 f   setting_audio_wrap_core.obj
 0001:00019470       ?Init@ZSettingAudioWrap@@QAEXXZ 1001a470 f   setting_audio_wrap_core.obj
 0001:00019640       ?Uninit@ZSettingAudioWrap@@QAEXXZ 1001a640 f   setting_audio_wrap_core.obj
 0001:000197b0       ?SelectMic@ZSettingAudioWrap@@QAE?AW4ZNSDKError@@V?$basic_string@_WU?$char_traits@_W@std@@V?$allocator@_W@2@@std@@0@Z 1001a7b0 f   setting_audio_wrap_core.obj
 0001:000198f0       ?GetMicList@ZSettingAudioWrap@@QAE?AV?$vector@U_ZNMicInfo@@V?$allocator@U_ZNMicInfo@@@std@@@std@@XZ 1001a8f0 f   setting_audio_wrap_core.obj
 0001:00019b70       ?SelectSpeaker@ZSettingAudioWrap@@QAE?AW4ZNSDKError@@V?$basic_string@_WU?$char_traits@_W@std@@V?$allocator@_W@2@@std@@0@Z 1001ab70 f   setting_audio_wrap_core.obj
 0001:00019cb0       ?GetSpeakerList@ZSettingAudioWrap@@QAE?AV?$vector@U_ZNSpeakerInfo@@V?$allocator@U_ZNSpeakerInfo@@@std@@@std@@XZ 1001acb0 f   setting_audio_wrap_core.obj
 0001:00019f30       ?IsAutoJoinAudioEnabled@ZSettingAudioWrap@@QAE_NXZ 1001af30 f   setting_audio_wrap_core.obj
 0001:00019ff0       ?IsAutoAdjustMicEnabled@ZSettingAudioWrap@@QAE_NXZ 1001aff0 f   setting_audio_wrap_core.obj
 0001:0001a0b0       ?EnableAutoJoinAudio@ZSettingAudioWrap@@QAE?AW4ZNSDKError@@_N@Z 1001b0b0 f   setting_audio_wrap_core.obj
 0001:0001a190       ?EnableAutoAdjustMic@ZSettingAudioWrap@@QAE?AW4ZNSDKError@@_N@Z 1001b190 f   setting_audio_wrap_core.obj
 0001:0001a270       ?EnableStereoAudio@ZSettingAudioWrap@@QAE?AW4ZNSDKError@@_N@Z 1001b270 f   setting_audio_wrap_core.obj
 0001:0001a350       ?IsStereoAudioEnable@ZSettingAudioWrap@@QAE_NXZ 1001b350 f   setting_audio_wrap_core.obj
 0001:0001a410       ?EnableMicOriginalInput@ZSettingAudioWrap@@QAE?AW4ZNSDKError@@_N@Z 1001b410 f   setting_audio_wrap_core.obj
 0001:0001a4f0       ?IsMicOriginalInputEnable@ZSettingAudioWrap@@QAE_NXZ 1001b4f0 f   setting_audio_wrap_core.obj
 0001:0001a5b0       ?EnableHoldSpaceKeyToSpeak@ZSettingAudioWrap@@QAE?AW4ZNSDKError@@_N@Z 1001b5b0 f   setting_audio_wrap_core.obj
 0001:0001a690       ?IsHoldSpaceKeyToSpeakEnabled@ZSettingAudioWrap@@QAE_NXZ 1001b690 f   setting_audio_wrap_core.obj
 0001:0001a750       ?EnableAlwaysMuteMicWhenJoinVoip@ZSettingAudioWrap@@QAE?AW4ZNSDKError@@_N@Z 1001b750 f   setting_audio_wrap_core.obj
 0001:0001a830       ?IsAlwaysMuteMicWhenJoinVoipEnabled@ZSettingAudioWrap@@QAE_NXZ 1001b830 f   setting_audio_wrap_core.obj
 0001:0001a8f0       ?EnableSuppressAudioNotify@ZSettingAudioWrap@@QAE?AW4ZNSDKError@@_N@Z 1001b8f0 f   setting_audio_wrap_core.obj
 0001:0001a9d0       ?IsSuppressAudioNotifyEnabled@ZSettingAudioWrap@@QAE_NXZ 1001b9d0 f   setting_audio_wrap_core.obj
 0001:0001aa90       ?SetMicVol@ZSettingAudioWrap@@QAE?AW4ZNSDKError@@AAM@Z 1001ba90 f   setting_audio_wrap_core.obj
 0001:0001ab70       ?GetMicVol@ZSettingAudioWrap@@QAE?AW4ZNSDKError@@AAM@Z 1001bb70 f   setting_audio_wrap_core.obj
 0001:0001ac50       ?SetSpeakerVol@ZSettingAudioWrap@@QAE?AW4ZNSDKError@@AAM@Z 1001bc50 f   setting_audio_wrap_core.obj
 0001:0001ad30       ?GetSpeakerVol@ZSettingAudioWrap@@QAE?AW4ZNSDKError@@AAM@Z 1001bd30 f   setting_audio_wrap_core.obj
 0001:0001ae10       ?EnableEchoCancellation@ZSettingAudioWrap@@QAE?AW4ZNSDKError@@_N@Z 1001be10 f   setting_audio_wrap_core.obj
 0001:0001aef0       ?IsEchoCancellationEnabled@ZSettingAudioWrap@@QAE_NXZ 1001bef0 f   setting_audio_wrap_core.obj
 0001:0001afb0       ?onDefaultMicDeviceChanged@ZSettingAudioWrap@@QAEXV?$basic_string@_WU?$char_traits@_W@std@@V?$allocator@_W@2@@std@@0@Z 1001bfb0 f   setting_audio_wrap_core.obj
 0001:0001b060       ?onDefaultSpeakerDeviceChanged@ZSettingAudioWrap@@QAEXV?$basic_string@_WU?$char_traits@_W@std@@V?$allocator@_W@2@@std@@0@Z 1001c060 f   setting_audio_wrap_core.obj
 0001:0001b110       ?EnableDualScreenMode@ZSettingGeneralWrap@@QAE?AW4ZNSDKError@@_N@Z 1001c110 f   setting_general_wrap_core.obj
 0001:0001b1c0       ?TurnOffAeroModeInSharing@ZSettingGeneralWrap@@QAE?AW4ZNSDKError@@_N@Z 1001c1c0 f   setting_general_wrap_core.obj
 0001:0001b270       ?EnableAutoFitToWindowWhenViewSharing@ZSettingGeneralWrap@@QAE?AW4ZNSDKError@@_N@Z 1001c270 f   setting_general_wrap_core.obj
 0001:0001b320       ?EnableAutoFullScreenVideoWhenJoinMeeting@ZSettingGeneralWrap@@QAE?AW4ZNSDKError@@_N@Z 1001c320 f   setting_general_wrap_core.obj
 0001:0001b3d0       ?EnableSplitScreenMode@ZSettingGeneralWrap@@QAE?AW4ZNSDKError@@_N@Z 1001c3d0 f   setting_general_wrap_core.obj
 0001:0001b480       ?IsDualScreenModeEnabled@ZSettingGeneralWrap@@QAE_NXZ 1001c480 f   setting_general_wrap_core.obj
 0001:0001b530       ?IsAeroModeInSharingTurnOff@ZSettingGeneralWrap@@QAE_NXZ 1001c530 f   setting_general_wrap_core.obj
 0001:0001b5e0       ?IsAutoFitToWindowWhenViewSharingEnabled@ZSettingGeneralWrap@@QAE_NXZ 1001c5e0 f   setting_general_wrap_core.obj
 0001:0001b690       ?IsAutoFullScreenVideoWhenJoinMeetingEnabled@ZSettingGeneralWrap@@QAE_NXZ 1001c690 f   setting_general_wrap_core.obj
 0001:0001b740       ?IsSplitScreenModeEnabled@ZSettingGeneralWrap@@QAE_NXZ 1001c740 f   setting_general_wrap_core.obj
 0001:0001b7f0       ?EnableAutoFullScreenVideoWhenViewShare@ZSettingGeneralWrap@@QAE?AW4ZNSDKError@@_N@Z 1001c7f0 f   setting_general_wrap_core.obj
 0001:0001b8a0       ?IsAutoFullScreenVideoWhenViewShareEnabled@ZSettingGeneralWrap@@QAE_NXZ 1001c8a0 f   setting_general_wrap_core.obj
 0001:0001b950       ?EnableDisplayReminderWindowWhenExit@ZSettingGeneralWrap@@QAE?AW4ZNSDKError@@_N@Z 1001c950 f   setting_general_wrap_core.obj
 0001:0001ba00       ?IsDisplayReminderWindowWhenExitEnabled@ZSettingGeneralWrap@@QAE_NXZ 1001ca00 f   setting_general_wrap_core.obj
 0001:0001bab0       ?EnableShowMyMeetingElapseTime@ZSettingGeneralWrap@@QAE?AW4ZNSDKError@@_N@Z 1001cab0 f   setting_general_wrap_core.obj
 0001:0001bb60       ?IsShowMyMeetingElapseTimeEnabled@ZSettingGeneralWrap@@QAE_NXZ 1001cb60 f   setting_general_wrap_core.obj
 0001:0001bc10       ?IsCurrentOSSupportAccelerateGPUWhenShare@ZSettingGeneralWrap@@QAE_NXZ 1001cc10 f   setting_general_wrap_core.obj
 0001:0001bcc0       ?EnableAccelerateGPUWhenShare@ZSettingGeneralWrap@@QAE?AW4ZNSDKError@@_N@Z 1001ccc0 f   setting_general_wrap_core.obj
 0001:0001bd70       ?IsAccelerateGPUWhenShareEnabled@ZSettingGeneralWrap@@QAE?AW4ZNSDKError@@AA_N@Z 1001cd70 f   setting_general_wrap_core.obj
 0001:0001be20       ?EnableRemoteControlAllApplications@ZSettingGeneralWrap@@QAE?AW4ZNSDKError@@_N@Z 1001ce20 f   setting_general_wrap_core.obj
 0001:0001bed0       ?IsRemoteControlAllApplicationsEnabled@ZSettingGeneralWrap@@QAE_NXZ 1001ced0 f   setting_general_wrap_core.obj
 0001:0001bf80       ?DisableAdvancedFeatures4GeneralSetting@ZSettingUIStrategyWrap@@QAEX_N@Z 1001cf80 f   setting_ui_strategy_wrap_core.obj
 0001:0001c020       ?DisableAccountSettingTabPage@ZSettingUIStrategyWrap@@QAEX_N@Z 1001d020 f   setting_ui_strategy_wrap_core.obj
 0001:0001c0c0       ?ConfSettingDialogShownTabPage@ZSettingUIStrategyWrap@@QAEXK@Z 1001d0c0 f   setting_ui_strategy_wrap_core.obj
 0001:0001c1f0       ?QueryOverallStatisticInfo@ZSettingStatisticWrap@@QAE?AW4ZNSDKError@@AAU_ZNOverallStatisticInfo@@@Z 1001d1f0 f   setting_statistic_wrap_core.obj
 0001:0001c3b0       ?QueryAudioStatisticInfo@ZSettingStatisticWrap@@QAE?AW4ZNSDKError@@AAU_ZNAudioSessionStatisticInfo@@@Z 1001d3b0 f   setting_statistic_wrap_core.obj
 0001:0001c4c0       ?QueryVideoStatisticInfo@ZSettingStatisticWrap@@QAE?AW4ZNSDKError@@AAUZNASVSessionStatisticInfo@@@Z 1001d4c0 f   setting_statistic_wrap_core.obj
 0001:0001c5e0       ?QueryShareStatisticInfo@ZSettingStatisticWrap@@QAE?AW4ZNSDKError@@AAUZNASVSessionStatisticInfo@@@Z 1001d5e0 f   setting_statistic_wrap_core.obj
 0001:0001c700       ?EnableAlwaysShowMeetingControls@ZSettingAccessibilityWrap@@QAE?AW4ZNSDKError@@_N@Z 1001d700 f   setting_accessibility_wrap_core.obj
 0001:0001c7b0       ?IsAlwaysShowMeetingControlsEnable@ZSettingAccessibilityWrap@@QAE?AW4ZNSDKError@@AA_N@Z 1001d7b0 f   setting_accessibility_wrap_core.obj
 0001:0001c860       ?GetInst@ZoomNodeSinkHelper@@SAAAV1@XZ 1001d860 f i setting_recording_wrap_core.obj
 0001:0001c8c0       ??1ZoomNodeSinkHelper@@QAE@XZ 1001d8c0 f i setting_recording_wrap_core.obj
 0001:0001cdb0       ??0ZoomNodeSinkHelper@@AAE@XZ 1001ddb0 f i setting_recording_wrap_core.obj
 0001:0001ce30       ?onCloudRecordingStorageInfo@ZNativeSDKRecordingSettingContextWrapSink@@QAEX_J0_N@Z 1001de30 f i setting_recording_wrap_core.obj
 0001:0001cf70       ??_GZSettingRecordingWrap@@UAEPAXI@Z 1001df70 f i setting_recording_wrap_core.obj
 0001:0001cf70       ??_EZSettingRecordingWrap@@UAEPAXI@Z 1001df70 f i * CIL library *:* CIL module *
 0001:0001cf90       ??1ZSettingRecordingWrap@@UAE@XZ 1001df90 f   setting_recording_wrap_core.obj
 0001:0001d000       ?Init@ZSettingRecordingWrap@@QAEXXZ 1001e000 f   setting_recording_wrap_core.obj
 0001:0001d1d0       ?Uninit@ZSettingRecordingWrap@@QAEXXZ 1001e1d0 f   setting_recording_wrap_core.obj
 0001:0001d340       ?SetRecordingPath@ZSettingRecordingWrap@@QAE?AW4ZNSDKError@@V?$basic_string@_WU?$char_traits@_W@std@@V?$allocator@_W@2@@std@@@Z 1001e340 f   setting_recording_wrap_core.obj
 0001:0001d440       ?GetRecordingPath@ZSettingRecordingWrap@@QAE?AV?$basic_string@_WU?$char_traits@_W@std@@V?$allocator@_W@2@@std@@XZ 1001e440 f   setting_recording_wrap_core.obj
 0001:0001d560       ?CanGetCloudRecordingStorageInfo@ZSettingRecordingWrap@@QAE_NXZ 1001e560 f   setting_recording_wrap_core.obj
 0001:0001d620       ?GetCloudRecordingStorageInfo@ZSettingRecordingWrap@@QAE?AW4ZNSDKError@@XZ 1001e620 f   setting_recording_wrap_core.obj
 0001:0001d6f0       ?GetRecordingManagementURL@ZSettingRecordingWrap@@QAE?AV?$basic_string@_WU?$char_traits@_W@std@@V?$allocator@_W@2@@std@@XZ 1001e6f0 f   setting_recording_wrap_core.obj
 0001:0001d810       ?CanGetRecordingManagementURL@ZSettingRecordingWrap@@QAE?AW4ZNSDKError@@AA_N@Z 1001e810 f   setting_recording_wrap_core.obj
 0001:0001d8f0       ?EnableSelectRecordFileLocationAfterMeeting@ZSettingRecordingWrap@@QAE?AW4ZNSDKError@@_N@Z 1001e8f0 f   setting_recording_wrap_core.obj
 0001:0001d9d0       ?IsSelectRecordFileLocationAfterMeetingEnabled@ZSettingRecordingWrap@@QAE_NXZ 1001e9d0 f   setting_recording_wrap_core.obj
 0001:0001da90       ?EnableMultiAudioStreamRecord@ZSettingRecordingWrap@@QAE?AW4ZNSDKError@@_N@Z 1001ea90 f   setting_recording_wrap_core.obj
 0001:0001db70       ?IsMultiAudioStreamRecordEnabled@ZSettingRecordingWrap@@QAE_NXZ 1001eb70 f   setting_recording_wrap_core.obj
 0001:0001dc30       ?EnableAddTimestampWatermark@ZSettingRecordingWrap@@QAE?AW4ZNSDKError@@_N@Z 1001ec30 f   setting_recording_wrap_core.obj
 0001:0001dd10       ?IsAddTimestampWatermarkEnabled@ZSettingRecordingWrap@@QAE_NXZ 1001ed10 f   setting_recording_wrap_core.obj
 0001:0001ddd0       ?EnableOptimizeFor3rdPartyVideoEditor@ZSettingRecordingWrap@@QAE?AW4ZNSDKError@@_N@Z 1001edd0 f   setting_recording_wrap_core.obj
 0001:0001deb0       ?IsOptimizeFor3rdPartyVideoEditorEnabled@ZSettingRecordingWrap@@QAE_NXZ 1001eeb0 f   setting_recording_wrap_core.obj
 0001:0001df70       ?EnableShowVideoThumbnailWhenShare@ZSettingRecordingWrap@@QAE?AW4ZNSDKError@@_N@Z 1001ef70 f   setting_recording_wrap_core.obj
 0001:0001e050       ?IsShowVideoThumbnailWhenShareEnabled@ZSettingRecordingWrap@@QAE_NXZ 1001f050 f   setting_recording_wrap_core.obj
 0001:0001e110       ?EnablePlaceVideoNextToShareInRecord@ZSettingRecordingWrap@@QAE?AW4ZNSDKError@@_N@Z 1001f110 f   setting_recording_wrap_core.obj
 0001:0001e1f0       ?IsPlaceVideoNextToShareInRecordEnabled@ZSettingRecordingWrap@@QAE_NXZ 1001f1f0 f   setting_recording_wrap_core.obj
 0001:0001e2b0       ??_GZDirectShareHelperWrap@@UAEPAXI@Z 1001f2b0 f i directshare_helper_wrap_core.obj
 0001:0001e2b0       ??_EZDirectShareHelperWrap@@UAEPAXI@Z 1001f2b0 f i * CIL library *:* CIL module *
 0001:0001e2d0       ??1ZDirectShareHelperWrap@@UAE@XZ 1001f2d0 f   directshare_helper_wrap_core.obj
 0001:0001e340       ?Init@ZDirectShareHelperWrap@@QAEXXZ 1001f340 f   directshare_helper_wrap_core.obj
 0001:0001e510       ?Uninit@ZDirectShareHelperWrap@@QAEXXZ 1001f510 f   directshare_helper_wrap_core.obj
 0001:0001e680       ?CanStartDirectShare@ZDirectShareHelperWrap@@QAE?AW4ZNSDKError@@XZ 1001f680 f   directshare_helper_wrap_core.obj
 0001:0001e750       ?IsDirectShareInProgress@ZDirectShareHelperWrap@@QAE_NXZ 1001f750 f   directshare_helper_wrap_core.obj
 0001:0001e810       ?StartDirectShare@ZDirectShareHelperWrap@@QAE?AW4ZNSDKError@@XZ 1001f810 f   directshare_helper_wrap_core.obj
 0001:0001e8e0       ?StopDirectShare@ZDirectShareHelperWrap@@QAE?AW4ZNSDKError@@XZ 1001f8e0 f   directshare_helper_wrap_core.obj
 0001:0001e9b0       ?TryWithMeetingNumber@ZDirectShareHelperWrap@@QAE?AW4ZNSDKError@@_K@Z 1001f9b0 f   directshare_helper_wrap_core.obj
 0001:0001ea30       ?TryWithPairingCode@ZDirectShareHelperWrap@@QAE?AW4ZNSDKError@@V?$basic_string@_WU?$char_traits@_W@std@@V?$allocator@_W@2@@std@@@Z 1001fa30 f   directshare_helper_wrap_core.obj
 0001:0001eb20       ?Cancel@ZDirectShareHelperWrap@@QAE?AW4ZNSDKError@@XZ 1001fb20 f   directshare_helper_wrap_core.obj
 0001:0001eb90       ?AddCustomizedPictureResource@ZCustomizedResourceWrap@@QAE?AW4ZNSDKError@@V?$basic_string@_WU?$char_traits@_W@std@@V?$allocator@_W@2@@std@@0@Z 1001fb90 f   customized_resource_wrap_core.obj
 0001:0001ecd0       ?AddCustomizedStringResource@ZCustomizedResourceWrap@@QAE?AW4ZNSDKError@@W4ZNSDKCustomizedStringType@@V?$basic_string@_WU?$char_traits@_W@std@@V?$allocator@_W@2@@std@@@Z 1001fcd0 f   customized_resource_wrap_core.obj
 0001:0001edf0       ?AddCustomizedURLResource@ZCustomizedResourceWrap@@QAE?AW4ZNSDKError@@W4ZNSDKCustomizedURLType@@V?$basic_string@_WU?$char_traits@_W@std@@V?$allocator@_W@2@@std@@@Z 1001fdf0 f   customized_resource_wrap_core.obj
 0001:0001ef20       ??_GZSDKSMSHelperWrap@@UAEPAXI@Z 1001ff20 f i zoom_sdk_sms_helper_wrap_core.obj
 0001:0001ef20       ??_EZSDKSMSHelperWrap@@UAEPAXI@Z 1001ff20 f i * CIL library *:* CIL module *
 0001:0001ef40       ??1ZSDKSMSHelperWrap@@UAE@XZ 1001ff40 f   zoom_sdk_sms_helper_wrap_core.obj
 0001:0001efc0       ?Init@ZSDKSMSHelperWrap@@QAEXXZ 1001ffc0 f   zoom_sdk_sms_helper_wrap_core.obj
 0001:0001f180       ?Uninit@ZSDKSMSHelperWrap@@QAEXXZ 10020180 f   zoom_sdk_sms_helper_wrap_core.obj
 0001:0001f2f0       ?EnableZoomAuthRealNameMeetingUIShown@ZSDKSMSHelperWrap@@QAE_N_N@Z 100202f0 f   zoom_sdk_sms_helper_wrap_core.obj
 0001:0001f3c0       ?SetDefaultCellPhoneInfo@ZSDKSMSHelperWrap@@QAE_NV?$basic_string@_WU?$char_traits@_W@std@@V?$allocator@_W@2@@std@@0@Z 100203c0 f   zoom_sdk_sms_helper_wrap_core.obj
 0001:0001f4f0       ?Retrieve@ZSDKSMSHelperWrap@@QAE_NV?$basic_string@_WU?$char_traits@_W@std@@V?$allocator@_W@2@@std@@0@Z 100204f0 f   zoom_sdk_sms_helper_wrap_core.obj
 0001:0001f5d0       ?Retrieve_CancelAndLeaveMeeting@ZSDKSMSHelperWrap@@QAE_NXZ 100205d0 f   zoom_sdk_sms_helper_wrap_core.obj
 0001:0001f640       ?GetResendSMSVerificationCodeHandler@ZSDKSMSHelperWrap@@QAE_NXZ 10020640 f   zoom_sdk_sms_helper_wrap_core.obj
 0001:0001f750       ?Verify@ZSDKSMSHelperWrap@@QAE_NV?$basic_string@_WU?$char_traits@_W@std@@V?$allocator@_W@2@@std@@00@Z 10020750 f   zoom_sdk_sms_helper_wrap_core.obj
 0001:0001f870       ?Verify_CancelAndLeaveMeeting@ZSDKSMSHelperWrap@@QAE_NXZ 10020870 f   zoom_sdk_sms_helper_wrap_core.obj
 0001:0001f8e0       ?GetReVerifySMSVerificationCodeHandler@ZSDKSMSHelperWrap@@QAE_NXZ 100208e0 f   zoom_sdk_sms_helper_wrap_core.obj
 0001:0001f9f0       ?GetSupportPhoneNumberCountryList@ZSDKSMSHelperWrap@@QAE?AV?$vector@U_ZNZoomRealNameAuthCountryInfo@@V?$allocator@U_ZNZoomRealNameAuthCountryInfo@@@std@@@std@@XZ 100209f0 f   zoom_sdk_sms_helper_wrap_core.obj
 0001:0001fc90       ?onNeedRealNameAuthMeetingNotification@ZSDKSMSHelperWrap@@QAEXV?$vector@U_ZNZoomRealNameAuthCountryInfo@@V?$allocator@U_ZNZoomRealNameAuthCountryInfo@@@std@@@std@@V?$basic_string@_WU?$char_traits@_W@std@@V?$allocator@_W@2@@3@@Z 10020c90 f   zoom_sdk_sms_helper_wrap_core.obj
 0001:0001fd00       ?NODE_SET_METHOD@node@@YAXV?$Local@VObject@v8@@@v8@@PBDP6AXABV?$FunctionCallbackInfo@VValue@v8@@@3@@Z@Z 10020d00 f i zoom_node_addon.obj
 0001:0001fdd0       ?NODE_SET_PROTOTYPE_METHOD@node@@YAXV?$Local@VFunctionTemplate@v8@@@v8@@PBDP6AXABV?$FunctionCallbackInfo@VValue@v8@@@3@@Z@Z 10020dd0 f i zoom_node_addon.obj
 0001:0001fe80       ?Wrap@ObjectWrap@node@@IAEXV?$Local@VObject@v8@@@v8@@@Z 10020e80 f i zoom_node_addon.obj
 0001:0001ff20       ?Ref@ObjectWrap@node@@MAEXXZ 10020f20 f i zoom_node_addon.obj
 0001:0001ff50       ?Unref@ObjectWrap@node@@MAEXXZ 10020f50 f i zoom_node_addon.obj
 0001:0001ffd0       ?WeakCallback@ObjectWrap@node@@CAXABV?$WeakCallbackInfo@VObjectWrap@node@@@v8@@@Z 10020fd0 f i zoom_node_addon.obj
 0001:00020020       ??_GZoomNodeSettingStatisticCtrlWrap@@EAEPAXI@Z 10021020 f i zoom_node_setting_statistic_ctrl.obj
 0001:00020020       ??_EZoomNodeAudioRawDataWrap@@EAEPAXI@Z 10021020 f i * CIL library *:* CIL module *
 0001:00020020       ??_GZoomNodeAudioRawDataWrap@@EAEPAXI@Z 10021020 f i zoom_node_audio_raw_data.obj
 0001:00020020       ??_EZoomNodeSettingUIStrategyCtrlWrap@@EAEPAXI@Z 10021020 f i * CIL library *:* CIL module *
 0001:00020020       ??_GObjectWrap@node@@UAEPAXI@Z 10021020 f i zoom_node_addon.obj
 0001:00020020       ??_EZoomNodeCustomizedResourceWrap@@EAEPAXI@Z 10021020 f i * CIL library *:* CIL module *
 0001:00020020       ??_GZoomNodeShareRawDataWrap@@EAEPAXI@Z 10021020 f i zoom_node_share_raw_data.obj
 0001:00020020       ??_EZoomNodeShareRawDataWrap@@EAEPAXI@Z 10021020 f i * CIL library *:* CIL module *
 0001:00020020       ??_EZoomNodeMeetingAnnotationWrap@@EAEPAXI@Z 10021020 f i * CIL library *:* CIL module *
 0001:00020020       ??_EZoomNodeSettingGeneralCtrlWrap@@EAEPAXI@Z 10021020 f i * CIL library *:* CIL module *
 0001:00020020       ??_GZoomNodeRawDataLicenseWrap@@EAEPAXI@Z 10021020 f i zoom_node_raw_data_license.obj
 0001:00020020       ??_EZoomNodeSettingWrap@@EAEPAXI@Z 10021020 f i * CIL library *:* CIL module *
 0001:00020020       ??_GZoomNodeVideoRawDataWrap@@EAEPAXI@Z 10021020 f i zoom_node_video_raw_data.obj
 0001:00020020       ??_GZoomNodeMeetingParticipantsCtrlWrap@@EAEPAXI@Z 10021020 f i zoom_node_meeting_participants_ctrl.obj
 0001:00020020       ??_GZoomNodeSettingUIStrategyCtrlWrap@@EAEPAXI@Z 10021020 f i zoom_node_setting_ui_strategy_ctrl.obj
 0001:00020020       ??_EObjectWrap@node@@UAEPAXI@Z 10021020 f i * CIL library *:* CIL module *
 0001:00020020       ??_EZoomNodeVideoRawDataWrap@@EAEPAXI@Z 10021020 f i * CIL library *:* CIL module *
 0001:00020020       ??_EZoomNodeMeetingParticipantsCtrlWrap@@EAEPAXI@Z 10021020 f i * CIL library *:* CIL module *
 0001:00020020       ??_EZoomNodeWrap@@EAEPAXI@Z 10021020 f i * CIL library *:* CIL module *
 0001:00020020       ??_GZoomNodeMeetingInfoWrap@@EAEPAXI@Z 10021020 f i zoom_node_addon.obj
 0001:00020020       ??_GZoomNodeCustomizedResourceWrap@@EAEPAXI@Z 10021020 f i zoom_node_customized_resource.obj
 0001:00020020       ??_GZoomNodeMeetingAnnotationWrap@@EAEPAXI@Z 10021020 f i zoom_node_addon.obj
 0001:00020020       ??_GZoomNodeSettingWrap@@EAEPAXI@Z 10021020 f i zoom_node_addon.obj
 0001:00020020       ??_EZoomNodeSettingAccessibilityCtrlWrap@@EAEPAXI@Z 10021020 f i * CIL library *:* CIL module *
 0001:00020020       ??_EZoomNodeMeetingInfoWrap@@EAEPAXI@Z 10021020 f i * CIL library *:* CIL module *
 0001:00020020       ??_GZoomNodeWrap@@EAEPAXI@Z 10021020 f i zoom_node_addon.obj
 0001:00020020       ??_EZoomNodeRawDataLicenseWrap@@EAEPAXI@Z 10021020 f i * CIL library *:* CIL module *
 0001:00020020       ??_GZoomNodeSettingAccessibilityCtrlWrap@@EAEPAXI@Z 10021020 f i zoom_node_setting_accessibility_ctrl.obj
 0001:00020020       ??_EZoomNodeSettingStatisticCtrlWrap@@EAEPAXI@Z 10021020 f i * CIL library *:* CIL module *
 0001:00020020       ??_GZoomNodeSettingGeneralCtrlWrap@@EAEPAXI@Z 10021020 f i zoom_node_setting_general_ctrl.obj
 0001:00020070       ??0_ZNInitParam@@QAE@XZ    10021070 f i zoom_node_addon.obj
 0001:00020100       ??0_ZNStartParam@@QAE@XZ   10021100 f i zoom_node_addon.obj
 0001:00020180       ??0_ZNJoinParam@@QAE@XZ    10021180 f i zoom_node_addon.obj
 0001:00020240       ??0_ZNShowSettingDlgParam@@QAE@XZ 10021240 f i zoom_node_addon.obj
 0001:00020290       ?onAuthenticationReturn@ZNativeSDKAuthWrapSink@@UAEXW4ZNAuthResult@@@Z 10021290 f i zoom_node_addon.obj
 0001:00020390       ?onLoginRet@ZNativeSDKAuthWrapSink@@UAEXW4ZNLOGINSTATUS@@@Z 10021390 f i zoom_node_addon.obj
 0001:00020490       ?onLogout@ZNativeSDKAuthWrapSink@@UAEXXZ 10021490 f i zoom_node_addon.obj
 0001:00020560       ?onZoomIdentityExpired@ZNativeSDKAuthWrapSink@@UAEXXZ 10021560 f i zoom_node_addon.obj
 0001:00020630       ?onZoomAuthIdentityExpired@ZNativeSDKAuthWrapSink@@UAEXXZ 10021630 f i zoom_node_addon.obj
 0001:00020700       ?onMeetingStatusChanged@ZNativeSDKMeetingWrapSink@@UAEXW4ZNMeetingStatus@@H@Z 10021700 f i zoom_node_addon.obj
 0001:00020810       ?onScheduleOrEditMeeting@ZNativeSDKPreMeetingWrapSink@@UAEXW4ZNPremeetingAPIResult@@_K@Z 10021810 f i zoom_node_addon.obj
 0001:000209d0       ?onListMeeting@ZNativeSDKPreMeetingWrapSink@@UAEXW4ZNPremeetingAPIResult@@V?$vector@_KV?$allocator@_K@std@@@std@@@Z 100219d0 f i zoom_node_addon.obj
 0001:00020cd0       ?onDeleteMeeting@ZNativeSDKPreMeetingWrapSink@@UAEXW4ZNPremeetingAPIResult@@@Z 10021cd0 f i zoom_node_addon.obj
 0001:00020e20       ?onInviteBtnClicked@ZNativeSDKMeetingUICtrlWrapSink@@UAEXAA_N@Z 10021e20 f i zoom_node_addon.obj
 0001:00020f30       ?onStartShareBtnClicked@ZNativeSDKMeetingUICtrlWrapSink@@UAEXXZ 10021f30 f i zoom_node_addon.obj
 0001:00021000       ?onEndMeetingBtnClicked@ZNativeSDKMeetingUICtrlWrapSink@@UAEXXZ 10022000 f i zoom_node_addon.obj
 0001:000210d0       ?onParticipantListBtnClicked@ZNativeSDKMeetingUICtrlWrapSink@@UAEXXZ 100220d0 f i zoom_node_addon.obj
 0001:000211a0       ?onCustomLiveStreamMenuClicked@ZNativeSDKMeetingUICtrlWrapSink@@UAEXXZ 100221a0 f i zoom_node_addon.obj
 0001:00021270       ?onZoomInviteDialogFailed@ZNativeSDKMeetingUICtrlWrapSink@@UAEXXZ 10022270 f i zoom_node_addon.obj
 0001:00021340       ?onCCBTNClicked@ZNativeSDKMeetingUICtrlWrapSink@@UAEXXZ 10022340 f i zoom_node_addon.obj
 0001:00021410       ?onAudioBtnClicked@ZNativeSDKMeetingUICtrlWrapSink@@UAEXUtagZNAudioBtnClickedCallbackInfo@@@Z 10022410 f i zoom_node_addon.obj
 0001:00021520       ?onAudioMenuBtnClicked@ZNativeSDKMeetingUICtrlWrapSink@@UAEXXZ 10022520 f i zoom_node_addon.obj
 0001:000215f0       ?onUserAudioStatusChange@ZNativeSDKMeetingAudioWrapSink@@UAEXV?$vector@U_ZNUserAudioStatus@@V?$allocator@U_ZNUserAudioStatus@@@std@@@std@@V?$basic_string@_WU?$char_traits@_W@std@@V?$allocator@_W@2@@3@@Z 100225f0 f i zoom_node_addon.obj
 0001:000218a0       ?onUserActiveAudioChange@ZNativeSDKMeetingAudioWrapSink@@UAEXV?$vector@IV?$allocator@I@std@@@std@@@Z 100228a0 f i zoom_node_addon.obj
 0001:00021ac0       ?onUserVideoStatusChange@ZNativeSDKMeetingVideoWrapSink@@UAEXIW4ZNVideoStatus@@@Z 10022ac0 f i zoom_node_addon.obj
 0001:00021c60       ?onActiveSpeakerVideoUserChanged@ZNativeSDKMeetingVideoWrapSink@@UAEXI@Z 10022c60 f i zoom_node_addon.obj
 0001:00021d60       ?onActiveVideoUserChanged@ZNativeSDKMeetingVideoWrapSink@@UAEXI@Z 10022d60 f i zoom_node_addon.obj
 0001:00021e60       ?onSharingStatus@ZNativeSDKMeetingShareWrapSink@@UAEXW4ZNShareStatus@@I@Z 10022e60 f i zoom_node_addon.obj
 0001:00022000       ?onUserJoin@ZNativeSDKMeetingParticipantsWrapSink@@UAEXV?$vector@IV?$allocator@I@std@@@std@@V?$basic_string@_WU?$char_traits@_W@std@@V?$allocator@_W@2@@3@@Z 10023000 f i zoom_node_addon.obj
 0001:00022250       ?onUserLeft@ZNativeSDKMeetingParticipantsWrapSink@@UAEXV?$vector@IV?$allocator@I@std@@@std@@V?$basic_string@_WU?$char_traits@_W@std@@V?$allocator@_W@2@@3@@Z 10023250 f i zoom_node_addon.obj
 0001:000224a0       ?onHostChangeNotification@ZNativeSDKMeetingParticipantsWrapSink@@UAEXI@Z 100234a0 f i zoom_node_addon.obj
 0001:000225a0       ?onLowOrRaiseHandStatusChange@ZNativeSDKMeetingParticipantsWrapSink@@UAEXI_N@Z 100235a0 f i zoom_node_addon.obj
 0001:00022740       ?onH323CalloutStatusNotify@ZNativeSDKMeetingH323WrapSink@@UAEXW4ZNH323CalloutStatus@@@Z 10023740 f i zoom_node_addon.obj
 0001:00022840       ?onFreeMeetingNeedToUpgrade@ZNativeSDKMeetingConfigWrapFreemeetingSink@@UAEXW4ZNFreeMeetingNeedUpgradeType@@V?$basic_string@_WU?$char_traits@_W@std@@V?$allocator@_W@2@@std@@@Z 10023840 f i zoom_node_addon.obj
 0001:00022a50       ?onFreeMeetingUpgradeToGiftFreeTrialStart@ZNativeSDKMeetingConfigWrapFreemeetingSink@@UAEXXZ 10023a50 f i zoom_node_addon.obj
 0001:00022b20       ?onFreeMeetingUpgradeToGiftFreeTrialStop@ZNativeSDKMeetingConfigWrapFreemeetingSink@@UAEXXZ 10023b20 f i zoom_node_addon.obj
 0001:00022bf0       ?onFreeMeetingUpgradeToProMeeting@ZNativeSDKMeetingConfigWrapFreemeetingSink@@UAEXXZ 10023bf0 f i zoom_node_addon.obj
 0001:00022cd0       ?onInputMeetingPasswordAndScreenNameNotification@ZNativeSDKMeetingConfigWrapFreemeetingSink@@UAEXXZ 10023cd0 f i zoom_node_addon.obj
 0001:00022db0       ?onAirPlayInstructionWndNotification@ZNativeSDKMeetingConfigWrapFreemeetingSink@@UAEX_NV?$basic_string@_WU?$char_traits@_W@std@@V?$allocator@_W@2@@std@@@Z 10023db0 f i zoom_node_addon.obj
 0001:00022f30       ?onWebinarNeedRegisterNotification@ZNativeSDKMeetingConfigWrapFreemeetingSink@@UAEXXZ 10023f30 f i zoom_node_addon.obj
 0001:00023010       ?onEndOtherMeetingToJoinMeetingNotification@ZNativeSDKMeetingConfigWrapFreemeetingSink@@UAEXXZ 10024010 f i zoom_node_addon.obj
 0001:000230f0       ?onFreeMeetingRemainTime@ZNativeSDKMeetingConfigWrapFreemeetingSink@@UAEXI@Z 100240f0 f i zoom_node_addon.obj
 0001:000231f0       ?onFreeMeetingRemainTimeStopCountDown@ZNativeSDKMeetingConfigWrapFreemeetingSink@@UAEXXZ 100241f0 f i zoom_node_addon.obj
 0001:000232d0       ?OnDirectShareStatusUpdate@ZNativeSDKDirectShareHelperWrapSink@@UAEXW4ZNDirectShareStatus@@@Z 100242d0 f i zoom_node_addon.obj
 0001:00023420       ?onNeedRealNameAuthMeetingNotification@ZNativeSDKSMSHelperWrapSink@@UAEXV?$vector@U_ZNZoomRealNameAuthCountryInfo@@V?$allocator@U_ZNZoomRealNameAuthCountryInfo@@@std@@@std@@V?$basic_string@_WU?$char_traits@_W@std@@V?$allocator@_W@2@@3@@Z 10024420 f i zoom_node_addon.obj
 0001:000238f0       ?onRetrieveSMSVerificationCodeResultNotification@ZNativeSDKSMSHelperWrapSink@@UAEXW4ZNSMSVerificationCodeErr@@@Z 100248f0 f i zoom_node_addon.obj
 0001:000239f0       ?onVerifySMSVerificationCodeResultNotification@ZNativeSDKSMSHelperWrapSink@@UAEXW4ZNSMSVerificationCodeErr@@@Z 100249f0 f i zoom_node_addon.obj
 0001:00023af0       ?onComputerMicDeviceChanged@ZNativeSDKAudioSettingContextWrapSink@@UAEXV?$vector@U_ZNMicInfo@@V?$allocator@U_ZNMicInfo@@@std@@@std@@@Z 10024af0 f i zoom_node_addon.obj
 0001:00023ec0       ?onComputerSpeakerDeviceChanged@ZNativeSDKAudioSettingContextWrapSink@@UAEXV?$vector@U_ZNSpeakerInfo@@V?$allocator@U_ZNSpeakerInfo@@@std@@@std@@@Z 10024ec0 f i zoom_node_addon.obj
 0001:00024280       ?onDefaultMicDeviceChanged@ZNativeSDKAudioSettingContextWrapSink@@UAEXV?$basic_string@_WU?$char_traits@_W@std@@V?$allocator@_W@2@@std@@0@Z 10025280 f i zoom_node_addon.obj
 0001:00024470       ?onDefaultSpeakerDeviceChanged@ZNativeSDKAudioSettingContextWrapSink@@UAEXV?$basic_string@_WU?$char_traits@_W@std@@V?$allocator@_W@2@@std@@0@Z 10025470 f i zoom_node_addon.obj
 0001:00024660       ?onComputerCamDeviceChanged@ZNativeSDKVideoSettingContextWrapSink@@UAEXV?$vector@U_ZNCameraInfo@@V?$allocator@U_ZNCameraInfo@@@std@@@std@@@Z 10025660 f i zoom_node_addon.obj
 0001:00024a20       ?onDefaultCamDeviceChanged@ZNativeSDKVideoSettingContextWrapSink@@UAEXV?$basic_string@_WU?$char_traits@_W@std@@V?$allocator@_W@2@@std@@0@Z 10025a20 f i zoom_node_addon.obj
 0001:00024c10       ??0ZoomNodeSinkWrapMgr@@AAE@XZ 10025c10 f i zoom_node_addon.obj
 0001:00027100       ?CreateObject@@YAXABV?$FunctionCallbackInfo@VValue@v8@@@v8@@@Z 10028100 f   zoom_node_addon.obj
 0001:00027110       ?InitAll@@YAXV?$Local@VObject@v8@@@v8@@0@Z 10028110 f   zoom_node_addon.obj
 0001:000272b0       ?InitSDK@ZoomNodeWrap@@SAXABV?$FunctionCallbackInfo@VValue@v8@@@v8@@@Z 100282b0 f   zoom_node_addon.obj
 0001:00027720       ??1_ZNInitParam@@QAE@XZ    10028720 f i zoom_node_addon.obj
 0001:00027800       ?CleanUPSDK@ZoomNodeWrap@@SAXABV?$FunctionCallbackInfo@VValue@v8@@@v8@@@Z 10028800 f   zoom_node_addon.obj
 0001:000278b0       ?GetZoomSDKVersion@ZoomNodeWrap@@SAXABV?$FunctionCallbackInfo@VValue@v8@@@v8@@@Z 100288b0 f   zoom_node_addon.obj
 0001:00027980       ?GetAuthObj@ZoomNodeWrap@@SAXABV?$FunctionCallbackInfo@VValue@v8@@@v8@@@Z 10028980 f   zoom_node_addon.obj
 0001:00027990       ?GetMeetingObj@ZoomNodeWrap@@SAXABV?$FunctionCallbackInfo@VValue@v8@@@v8@@@Z 10028990 f   zoom_node_addon.obj
 0001:000279a0       ?GetSetObj@ZoomNodeWrap@@SAXABV?$FunctionCallbackInfo@VValue@v8@@@v8@@@Z 100289a0 f   zoom_node_addon.obj
 0001:000279b0       ?GetPremeetingObj@ZoomNodeWrap@@SAXABV?$FunctionCallbackInfo@VValue@v8@@@v8@@@Z 100289b0 f   zoom_node_addon.obj
 0001:000279c0       ?GetCustomizedResourceObj@ZoomNodeWrap@@SAXABV?$FunctionCallbackInfo@VValue@v8@@@v8@@@Z 100289c0 f   zoom_node_addon.obj
 0001:000279d0       ?GetVideoRawDataObj@ZoomNodeWrap@@SAXABV?$FunctionCallbackInfo@VValue@v8@@@v8@@@Z 100289d0 f   zoom_node_addon.obj
 0001:000279e0       ?GetAudioRawDataObj@ZoomNodeWrap@@SAXABV?$FunctionCallbackInfo@VValue@v8@@@v8@@@Z 100289e0 f   zoom_node_addon.obj
 0001:000279f0       ?GetShareRawDataObj@ZoomNodeWrap@@SAXABV?$FunctionCallbackInfo@VValue@v8@@@v8@@@Z 100289f0 f   zoom_node_addon.obj
 0001:00027a00       ?GetRawDataLicenseObj@ZoomNodeWrap@@SAXABV?$FunctionCallbackInfo@VValue@v8@@@v8@@@Z 10028a00 f   zoom_node_addon.obj
 0001:00027a10       ?GetSDKSMSHelperObj@ZoomNodeWrap@@SAXABV?$FunctionCallbackInfo@VValue@v8@@@v8@@@Z 10028a10 f   zoom_node_addon.obj
 0001:00027a20       ??0ZoomNodeAuthWrap@@AAE@XZ 10028a20 f   zoom_node_addon.obj
 0001:00027aa0       ??_GZoomNodeAuthWrap@@EAEPAXI@Z 10028aa0 f i zoom_node_addon.obj
 0001:00027aa0       ??_EZoomNodeAuthWrap@@EAEPAXI@Z 10028aa0 f i * CIL library *:* CIL module *
 0001:00027b00       ?Auth@ZoomNodeAuthWrap@@SAXABV?$FunctionCallbackInfo@VValue@v8@@@v8@@@Z 10028b00 f   zoom_node_addon.obj
 0001:00027cf0       ?AuthWithJwtToken@ZoomNodeAuthWrap@@SAXABV?$FunctionCallbackInfo@VValue@v8@@@v8@@@Z 10028cf0 f   zoom_node_addon.obj
 0001:00027e70       ?Login@ZoomNodeAuthWrap@@SAXABV?$FunctionCallbackInfo@VValue@v8@@@v8@@@Z 10028e70 f   zoom_node_addon.obj
 0001:00028090       ?LoginWithSSOToken@ZoomNodeAuthWrap@@SAXABV?$FunctionCallbackInfo@VValue@v8@@@v8@@@Z 10029090 f   zoom_node_addon.obj
 0001:00028260       ?Logout@ZoomNodeAuthWrap@@SAXABV?$FunctionCallbackInfo@VValue@v8@@@v8@@@Z 10029260 f   zoom_node_addon.obj
 0001:000282a0       ?GetAuthResult@ZoomNodeAuthWrap@@SAXABV?$FunctionCallbackInfo@VValue@v8@@@v8@@@Z 100292a0 f   zoom_node_addon.obj
 0001:000282e0       ?GetLoginStatus@ZoomNodeAuthWrap@@SAXABV?$FunctionCallbackInfo@VValue@v8@@@v8@@@Z 100292e0 f   zoom_node_addon.obj
 0001:00028320       ?SetLoginCB@ZoomNodeAuthWrap@@SAXABV?$FunctionCallbackInfo@VValue@v8@@@v8@@@Z 10029320 f   zoom_node_addon.obj
 0001:000284c0       ?SetLogoutCB@ZoomNodeAuthWrap@@SAXABV?$FunctionCallbackInfo@VValue@v8@@@v8@@@Z 100294c0 f   zoom_node_addon.obj
 0001:00028660       ?SetOnAuthReturnCB@ZoomNodeAuthWrap@@SAXABV?$FunctionCallbackInfo@VValue@v8@@@v8@@@Z 10029660 f   zoom_node_addon.obj
 0001:00028800       ?SetOnZoomIdentityExpiredCB@ZoomNodeAuthWrap@@SAXABV?$FunctionCallbackInfo@VValue@v8@@@v8@@@Z 10029800 f   zoom_node_addon.obj
 0001:000289a0       ?SetOnZoomAuthIdentityExpiredCB@ZoomNodeAuthWrap@@SAXABV?$FunctionCallbackInfo@VValue@v8@@@v8@@@Z 100299a0 f   zoom_node_addon.obj
 0001:00028b40       ?GetDirectShareHelperObj@ZoomNodeAuthWrap@@SAXABV?$FunctionCallbackInfo@VValue@v8@@@v8@@@Z 10029b40 f   zoom_node_addon.obj
 0001:00028b50       ??0ZoomNodeMeetingWrap@@AAE@XZ 10029b50 f   zoom_node_addon.obj
 0001:00028bd0       ??_GZoomNodeMeetingWrap@@EAEPAXI@Z 10029bd0 f i zoom_node_addon.obj
 0001:00028bd0       ??_EZoomNodeMeetingWrap@@EAEPAXI@Z 10029bd0 f i * CIL library *:* CIL module *
 0001:00028c30       ?Start@ZoomNodeMeetingWrap@@SAXABV?$FunctionCallbackInfo@VValue@v8@@@v8@@@Z 10029c30 f   zoom_node_addon.obj
 0001:00028f80       ??0_ZNStartParam@@QAE@ABU0@@Z 10029f80 f i zoom_node_addon.obj
 0001:000290b0       ?Start_WithoutLogin@ZoomNodeMeetingWrap@@SAXABV?$FunctionCallbackInfo@VValue@v8@@@v8@@@Z 1002a0b0 f   zoom_node_addon.obj
 0001:00029600       ?Join@ZoomNodeMeetingWrap@@SAXABV?$FunctionCallbackInfo@VValue@v8@@@v8@@@Z 1002a600 f   zoom_node_addon.obj
 0001:00029ab0       ??0_ZNJoinParam@@QAE@ABU0@@Z 1002aab0 f i zoom_node_addon.obj
 0001:00029c40       ?Join_WithoutLogin@ZoomNodeMeetingWrap@@SAXABV?$FunctionCallbackInfo@VValue@v8@@@v8@@@Z 1002ac40 f   zoom_node_addon.obj
 0001:0002a150       ?Leave@ZoomNodeMeetingWrap@@SAXABV?$FunctionCallbackInfo@VValue@v8@@@v8@@@Z 1002b150 f   zoom_node_addon.obj
 0001:0002a280       ?Lock@ZoomNodeMeetingWrap@@SAXABV?$FunctionCallbackInfo@VValue@v8@@@v8@@@Z 1002b280 f   zoom_node_addon.obj
 0001:0002a2c0       ?Unlock@ZoomNodeMeetingWrap@@SAXABV?$FunctionCallbackInfo@VValue@v8@@@v8@@@Z 1002b2c0 f   zoom_node_addon.obj
 0001:0002a300       ?HandleZoomWebUriProtocolAction@ZoomNodeMeetingWrap@@SAXABV?$FunctionCallbackInfo@VValue@v8@@@v8@@@Z 1002b300 f   zoom_node_addon.obj
 0001:0002a490       ?SetMeetingStatusCB@ZoomNodeMeetingWrap@@SAXABV?$FunctionCallbackInfo@VValue@v8@@@v8@@@Z 1002b490 f   zoom_node_addon.obj
 0001:0002a630       ?GetMeetingInfo@ZoomNodeMeetingWrap@@SAXABV?$FunctionCallbackInfo@VValue@v8@@@v8@@@Z 1002b630 f   zoom_node_addon.obj
 0001:0002a640       ?GetMeetingUICtrl@ZoomNodeMeetingWrap@@SAXABV?$FunctionCallbackInfo@VValue@v8@@@v8@@@Z 1002b640 f   zoom_node_addon.obj
 0001:0002a650       ?GetMeetingAnnotation@ZoomNodeMeetingWrap@@SAXABV?$FunctionCallbackInfo@VValue@v8@@@v8@@@Z 1002b650 f   zoom_node_addon.obj
 0001:0002a660       ?GetMeetingAudioCtrl@ZoomNodeMeetingWrap@@SAXABV?$FunctionCallbackInfo@VValue@v8@@@v8@@@Z 1002b660 f   zoom_node_addon.obj
 0001:0002a670       ?GetMeetingVideoCtrl@ZoomNodeMeetingWrap@@SAXABV?$FunctionCallbackInfo@VValue@v8@@@v8@@@Z 1002b670 f   zoom_node_addon.obj
 0001:0002a680       ?GetMeetingParticipantsCtrl@ZoomNodeMeetingWrap@@SAXABV?$FunctionCallbackInfo@VValue@v8@@@v8@@@Z 1002b680 f   zoom_node_addon.obj
 0001:0002a690       ?GetMeetingShareCtrl@ZoomNodeMeetingWrap@@SAXABV?$FunctionCallbackInfo@VValue@v8@@@v8@@@Z 1002b690 f   zoom_node_addon.obj
 0001:0002a6a0       ?GetMeetingH323Ctrl@ZoomNodeMeetingWrap@@SAXABV?$FunctionCallbackInfo@VValue@v8@@@v8@@@Z 1002b6a0 f   zoom_node_addon.obj
 0001:0002a6b0       ?GetMeetingConfigCtrl@ZoomNodeMeetingWrap@@SAXABV?$FunctionCallbackInfo@VValue@v8@@@v8@@@Z 1002b6b0 f   zoom_node_addon.obj
 0001:0002a6c0       ?GetSharingConnQuality@ZoomNodeMeetingWrap@@SAXABV?$FunctionCallbackInfo@VValue@v8@@@v8@@@Z 1002b6c0 f   zoom_node_addon.obj
 0001:0002a700       ?GetVideoConnQuality@ZoomNodeMeetingWrap@@SAXABV?$FunctionCallbackInfo@VValue@v8@@@v8@@@Z 1002b700 f   zoom_node_addon.obj
 0001:0002a740       ?GetAudioConnQuality@ZoomNodeMeetingWrap@@SAXABV?$FunctionCallbackInfo@VValue@v8@@@v8@@@Z 1002b740 f   zoom_node_addon.obj
 0001:0002a780       ?GetMeetingTopic@ZoomNodeMeetingInfoWrap@@SAXABV?$FunctionCallbackInfo@VValue@v8@@@v8@@@Z 1002b780 f   zoom_node_addon.obj
 0001:0002a850       ?GetMeetingType@ZoomNodeMeetingInfoWrap@@SAXABV?$FunctionCallbackInfo@VValue@v8@@@v8@@@Z 1002b850 f   zoom_node_addon.obj
 0001:0002a890       ?GetMeetingNumber@ZoomNodeMeetingInfoWrap@@SAXABV?$FunctionCallbackInfo@VValue@v8@@@v8@@@Z 1002b890 f   zoom_node_addon.obj
 0001:0002a8f0       ?GetMeetingID@ZoomNodeMeetingInfoWrap@@SAXABV?$FunctionCallbackInfo@VValue@v8@@@v8@@@Z 1002b8f0 f   zoom_node_addon.obj
 0001:0002a9c0       ?GetInviteEmailTeamplate@ZoomNodeMeetingInfoWrap@@SAXABV?$FunctionCallbackInfo@VValue@v8@@@v8@@@Z 1002b9c0 f   zoom_node_addon.obj
 0001:0002aa90       ?GetInviteEmailTitle@ZoomNodeMeetingInfoWrap@@SAXABV?$FunctionCallbackInfo@VValue@v8@@@v8@@@Z 1002ba90 f   zoom_node_addon.obj
 0001:0002ab60       ?GetJoinMeetingUrl@ZoomNodeMeetingInfoWrap@@SAXABV?$FunctionCallbackInfo@VValue@v8@@@v8@@@Z 1002bb60 f   zoom_node_addon.obj
 0001:0002ac30       ?GetMeetingHostTag@ZoomNodeMeetingInfoWrap@@SAXABV?$FunctionCallbackInfo@VValue@v8@@@v8@@@Z 1002bc30 f   zoom_node_addon.obj
 0001:0002ad00       ?CheckingIsInternalMeeting@ZoomNodeMeetingInfoWrap@@SAXABV?$FunctionCallbackInfo@VValue@v8@@@v8@@@Z 1002bd00 f   zoom_node_addon.obj
 0001:0002ad30       ??0ZoomNodeMeetingUICtrlWrap@@AAE@XZ 1002bd30 f   zoom_node_addon.obj
 0001:0002adb0       ??_GZoomNodeMeetingUICtrlWrap@@EAEPAXI@Z 1002bdb0 f i zoom_node_addon.obj
 0001:0002adb0       ??_EZoomNodeMeetingUICtrlWrap@@EAEPAXI@Z 1002bdb0 f i * CIL library *:* CIL module *
 0001:0002ae10       ?ShowChatDlg@ZoomNodeMeetingUICtrlWrap@@SAXABV?$FunctionCallbackInfo@VValue@v8@@@v8@@@Z 1002be10 f   zoom_node_addon.obj
 0001:0002b0e0       ??0_ZNShowChatDlgParam@@QAE@XZ 1002c0e0 f i zoom_node_addon.obj
 0001:0002b150       ??0_ZNShowChatDlgParam@@QAE@ABU0@@Z 1002c150 f i zoom_node_addon.obj
 0001:0002b230       ?HideChatDlg@ZoomNodeMeetingUICtrlWrap@@SAXABV?$FunctionCallbackInfo@VValue@v8@@@v8@@@Z 1002c230 f   zoom_node_addon.obj
 0001:0002b270       ?EnterFullScreen@ZoomNodeMeetingUICtrlWrap@@SAXABV?$FunctionCallbackInfo@VValue@v8@@@v8@@@Z 1002c270 f   zoom_node_addon.obj
 0001:0002b3f0       ?ExitFullScreen@ZoomNodeMeetingUICtrlWrap@@SAXABV?$FunctionCallbackInfo@VValue@v8@@@v8@@@Z 1002c3f0 f   zoom_node_addon.obj
 0001:0002b570       ?SwitchToVideoWall@ZoomNodeMeetingUICtrlWrap@@SAXABV?$FunctionCallbackInfo@VValue@v8@@@v8@@@Z 1002c570 f   zoom_node_addon.obj
 0001:0002b5b0       ?SwtichToAcitveSpeaker@ZoomNodeMeetingUICtrlWrap@@SAXABV?$FunctionCallbackInfo@VValue@v8@@@v8@@@Z 1002c5b0 f   zoom_node_addon.obj
 0001:0002b5f0       ?MoveFloatVideoWnd@ZoomNodeMeetingUICtrlWrap@@SAXABV?$FunctionCallbackInfo@VValue@v8@@@v8@@@Z 1002c5f0 f   zoom_node_addon.obj
 0001:0002b810       ?ShowSharingToolbar@ZoomNodeMeetingUICtrlWrap@@SAXABV?$FunctionCallbackInfo@VValue@v8@@@v8@@@Z 1002c810 f   zoom_node_addon.obj
 0001:0002b940       ?SwitchFloatVideoToActiveSpkMod@ZoomNodeMeetingUICtrlWrap@@SAXABV?$FunctionCallbackInfo@VValue@v8@@@v8@@@Z 1002c940 f   zoom_node_addon.obj
 0001:0002b980       ?ChangeFloatoActiveSpkVideoSize@ZoomNodeMeetingUICtrlWrap@@SAXABV?$FunctionCallbackInfo@VValue@v8@@@v8@@@Z 1002c980 f   zoom_node_addon.obj
 0001:0002bad0       ?SwitchFloatVideoToGalleryMod@ZoomNodeMeetingUICtrlWrap@@SAXABV?$FunctionCallbackInfo@VValue@v8@@@v8@@@Z 1002cad0 f   zoom_node_addon.obj
 0001:0002bb10       ?ShowParticipantsListWnd@ZoomNodeMeetingUICtrlWrap@@SAXABV?$FunctionCallbackInfo@VValue@v8@@@v8@@@Z 1002cb10 f   zoom_node_addon.obj
 0001:0002bc40       ?ShowBottomFloatToolbarWnd@ZoomNodeMeetingUICtrlWrap@@SAXABV?$FunctionCallbackInfo@VValue@v8@@@v8@@@Z 1002cc40 f   zoom_node_addon.obj
 0001:0002bd70       ?ShowJoinAudioDlg@ZoomNodeMeetingUICtrlWrap@@SAXABV?$FunctionCallbackInfo@VValue@v8@@@v8@@@Z 1002cd70 f   zoom_node_addon.obj
 0001:0002bdb0       ?HideJoinAudioDlg@ZoomNodeMeetingUICtrlWrap@@SAXABV?$FunctionCallbackInfo@VValue@v8@@@v8@@@Z 1002cdb0 f   zoom_node_addon.obj
 0001:0002bdf0       ?GetWallViewPageInfo@ZoomNodeMeetingUICtrlWrap@@SAXABV?$FunctionCallbackInfo@VValue@v8@@@v8@@@Z 1002cdf0 f   zoom_node_addon.obj
 0001:0002c170       ?ShowPreOrNextPageVideo@ZoomNodeMeetingUICtrlWrap@@SAXABV?$FunctionCallbackInfo@VValue@v8@@@v8@@@Z 1002d170 f   zoom_node_addon.obj
 0001:0002c2a0       ?ShowSharingFrameWindows@ZoomNodeMeetingUICtrlWrap@@SAXABV?$FunctionCallbackInfo@VValue@v8@@@v8@@@Z 1002d2a0 f   zoom_node_addon.obj
 0001:0002c3d0       ?GetCurrentSplitScreenModeInfo@ZoomNodeMeetingUICtrlWrap@@SAXABV?$FunctionCallbackInfo@VValue@v8@@@v8@@@Z 1002d3d0 f   zoom_node_addon.obj
 0001:0002c670       ?SwitchSplitScreenMode@ZoomNodeMeetingUICtrlWrap@@SAXABV?$FunctionCallbackInfo@VValue@v8@@@v8@@@Z 1002d670 f   zoom_node_addon.obj
 0001:0002c7a0       ?BackToMeeting@ZoomNodeMeetingUICtrlWrap@@SAXABV?$FunctionCallbackInfo@VValue@v8@@@v8@@@Z 1002d7a0 f   zoom_node_addon.obj
 0001:0002c7e0       ?GetMeetingUIWnd@ZoomNodeMeetingUICtrlWrap@@SAXABV?$FunctionCallbackInfo@VValue@v8@@@v8@@@Z 1002d7e0 f   zoom_node_addon.obj
 0001:0002ca60       ?SwitchMinimizeUIMode4FristScreenMeetingUIWnd@ZoomNodeMeetingUICtrlWrap@@SAXABV?$FunctionCallbackInfo@VValue@v8@@@v8@@@Z 1002da60 f   zoom_node_addon.obj
 0001:0002cb70       ?IsMinimizeModeOfFristScreenMeetingUIWnd@ZoomNodeMeetingUICtrlWrap@@SAXABV?$FunctionCallbackInfo@VValue@v8@@@v8@@@Z 1002db70 f   zoom_node_addon.obj
 0001:0002cca0       ?SwapToShowShareViewOrVideo@ZoomNodeMeetingUICtrlWrap@@SAXABV?$FunctionCallbackInfo@VValue@v8@@@v8@@@Z 1002dca0 f   zoom_node_addon.obj
 0001:0002cdd0       ?IsDisplayingShareViewOrVideo@ZoomNodeMeetingUICtrlWrap@@SAXABV?$FunctionCallbackInfo@VValue@v8@@@v8@@@Z 1002ddd0 f   zoom_node_addon.obj
 0001:0002cf00       ?CanSwapToShowShareViewOrVideo@ZoomNodeMeetingUICtrlWrap@@SAXABV?$FunctionCallbackInfo@VValue@v8@@@v8@@@Z 1002df00 f   zoom_node_addon.obj
 0001:0002d030       ?SetInviteButtonClickedCB@ZoomNodeMeetingUICtrlWrap@@SAXABV?$FunctionCallbackInfo@VValue@v8@@@v8@@@Z 1002e030 f   zoom_node_addon.obj
 0001:0002d1d0       ?SetonStartShareBtnClickedCB@ZoomNodeMeetingUICtrlWrap@@SAXABV?$FunctionCallbackInfo@VValue@v8@@@v8@@@Z 1002e1d0 f   zoom_node_addon.obj
 0001:0002d370       ?SetonEndMeetingBtnClickedCB@ZoomNodeMeetingUICtrlWrap@@SAXABV?$FunctionCallbackInfo@VValue@v8@@@v8@@@Z 1002e370 f   zoom_node_addon.obj
 0001:0002d510       ?SetonParticipantListBtnClickedCB@ZoomNodeMeetingUICtrlWrap@@SAXABV?$FunctionCallbackInfo@VValue@v8@@@v8@@@Z 1002e510 f   zoom_node_addon.obj
 0001:0002d6b0       ?SetonCustomLiveStreamMenuClickedCB@ZoomNodeMeetingUICtrlWrap@@SAXABV?$FunctionCallbackInfo@VValue@v8@@@v8@@@Z 1002e6b0 f   zoom_node_addon.obj
 0001:0002d850       ?SetonZoomInviteDialogFailedCB@ZoomNodeMeetingUICtrlWrap@@SAXABV?$FunctionCallbackInfo@VValue@v8@@@v8@@@Z 1002e850 f   zoom_node_addon.obj
 0001:0002d9f0       ?SetonCCBTNClickedCB@ZoomNodeMeetingUICtrlWrap@@SAXABV?$FunctionCallbackInfo@VValue@v8@@@v8@@@Z 1002e9f0 f   zoom_node_addon.obj
 0001:0002db90       ?SetonAudioBTNClickedCB@ZoomNodeMeetingUICtrlWrap@@SAXABV?$FunctionCallbackInfo@VValue@v8@@@v8@@@Z 1002eb90 f   zoom_node_addon.obj
 0001:0002dd30       ?SetonAudioMenuBTNClickedCB@ZoomNodeMeetingUICtrlWrap@@SAXABV?$FunctionCallbackInfo@VValue@v8@@@v8@@@Z 1002ed30 f   zoom_node_addon.obj
 0001:0002ded0       ?GetSettingVideoCtrl@ZoomNodeSettingWrap@@SAXABV?$FunctionCallbackInfo@VValue@v8@@@v8@@@Z 1002eed0 f   zoom_node_addon.obj
 0001:0002dee0       ?GetSettingAudioCtrl@ZoomNodeSettingWrap@@SAXABV?$FunctionCallbackInfo@VValue@v8@@@v8@@@Z 1002eee0 f   zoom_node_addon.obj
 0001:0002def0       ?GetSettingGeneralCtrl@ZoomNodeSettingWrap@@SAXABV?$FunctionCallbackInfo@VValue@v8@@@v8@@@Z 1002eef0 f   zoom_node_addon.obj
 0001:0002df00       ?GetSettingRecordingCtrl@ZoomNodeSettingWrap@@SAXABV?$FunctionCallbackInfo@VValue@v8@@@v8@@@Z 1002ef00 f   zoom_node_addon.obj
 0001:0002df10       ?GetSettingUIStrategyCtrl@ZoomNodeSettingWrap@@SAXABV?$FunctionCallbackInfo@VValue@v8@@@v8@@@Z 1002ef10 f   zoom_node_addon.obj
 0001:0002df20       ?GetSettingStatisticCtrl@ZoomNodeSettingWrap@@SAXABV?$FunctionCallbackInfo@VValue@v8@@@v8@@@Z 1002ef20 f   zoom_node_addon.obj
 0001:0002df30       ?GetSettingAccessibilityCtrl@ZoomNodeSettingWrap@@SAXABV?$FunctionCallbackInfo@VValue@v8@@@v8@@@Z 1002ef30 f   zoom_node_addon.obj
 0001:0002df40       ?ShowSettingDlg@ZoomNodeSettingWrap@@SAXABV?$FunctionCallbackInfo@VValue@v8@@@v8@@@Z 1002ef40 f   zoom_node_addon.obj
 0001:0002e1f0       ??0_ZNShowSettingDlgParam@@QAE@ABU0@@Z 1002f1f0 f i zoom_node_addon.obj
 0001:0002e290       ?HideSettingDlg@ZoomNodeSettingWrap@@SAXABV?$FunctionCallbackInfo@VValue@v8@@@v8@@@Z 1002f290 f   zoom_node_addon.obj
 0001:0002e2d0       ??0ZoomNodePremeetingWrap@@AAE@XZ 1002f2d0 f   zoom_node_addon.obj
 0001:0002e350       ??_EZoomNodePremeetingWrap@@EAEPAXI@Z 1002f350 f i * CIL library *:* CIL module *
 0001:0002e350       ??_GZoomNodePremeetingWrap@@EAEPAXI@Z 1002f350 f i zoom_node_addon.obj
 0001:0002e3b0       ?ScheduleMeetingWithWndParams@ZoomNodePremeetingWrap@@SAXABV?$FunctionCallbackInfo@VValue@v8@@@v8@@@Z 1002f3b0 f   zoom_node_addon.obj
 0001:0002e630       ??0_ZNWndPosition@@QAE@XZ  1002f630 f i zoom_node_addon.obj
 0001:0002e670       ??0_ZNWndPosition@@QAE@ABU0@@Z 1002f670 f i zoom_node_addon.obj
 0001:0002e710       ?ScheduleMeeting@ZoomNodePremeetingWrap@@SAXABV?$FunctionCallbackInfo@VValue@v8@@@v8@@@Z 1002f710 f   zoom_node_addon.obj
 0001:0002e750       ?EditMeeting@ZoomNodePremeetingWrap@@SAXABV?$FunctionCallbackInfo@VValue@v8@@@v8@@@Z 1002f750 f   zoom_node_addon.obj
 0001:0002e8c0       ?EditMeetingWithWndParams@ZoomNodePremeetingWrap@@SAXABV?$FunctionCallbackInfo@VValue@v8@@@v8@@@Z 1002f8c0 f   zoom_node_addon.obj
 0001:0002eba0       ?ListMeeting@ZoomNodePremeetingWrap@@SAXABV?$FunctionCallbackInfo@VValue@v8@@@v8@@@Z 1002fba0 f   zoom_node_addon.obj
 0001:0002ebe0       ?DeleteMeeting@ZoomNodePremeetingWrap@@SAXABV?$FunctionCallbackInfo@VValue@v8@@@v8@@@Z 1002fbe0 f   zoom_node_addon.obj
 0001:0002ed50       ?SetOnScheduleOrEditMeetingCB@ZoomNodePremeetingWrap@@SAXABV?$FunctionCallbackInfo@VValue@v8@@@v8@@@Z 1002fd50 f   zoom_node_addon.obj
 0001:0002eef0       ?SetOnListMeetingCB@ZoomNodePremeetingWrap@@SAXABV?$FunctionCallbackInfo@VValue@v8@@@v8@@@Z 1002fef0 f   zoom_node_addon.obj
 0001:0002f090       ?SetOnDeleteMeetingCB@ZoomNodePremeetingWrap@@SAXABV?$FunctionCallbackInfo@VValue@v8@@@v8@@@Z 10030090 f   zoom_node_addon.obj
 0001:0002f230       ?NewInstance@?$ZoomWrapObject@VZoomNodeSettingAccessibilityCtrlWrap@@@@SAXABV?$FunctionCallbackInfo@VValue@v8@@@v8@@@Z 10030230 f i zoom_node_addon.obj
 0001:0002f2c0       ?Init@?$ZoomWrapObject@VZoomNodeSettingAccessibilityCtrlWrap@@@@SAXPAVIsolate@v8@@@Z 100302c0 f i zoom_node_addon.obj
 0001:0002f360       ?NewInstance@?$ZoomWrapObject@VZoomNodeSettingStatisticCtrlWrap@@@@SAXABV?$FunctionCallbackInfo@VValue@v8@@@v8@@@Z 10030360 f i zoom_node_addon.obj
 0001:0002f3f0       ?Init@?$ZoomWrapObject@VZoomNodeSettingStatisticCtrlWrap@@@@SAXPAVIsolate@v8@@@Z 100303f0 f i zoom_node_addon.obj
 0001:0002f490       ?NewInstance@?$ZoomWrapObject@VZoomNodeSDKSMSHelperWrap@@@@SAXABV?$FunctionCallbackInfo@VValue@v8@@@v8@@@Z 10030490 f i zoom_node_addon.obj
 0001:0002f520       ?Init@?$ZoomWrapObject@VZoomNodeSDKSMSHelperWrap@@@@SAXPAVIsolate@v8@@@Z 10030520 f i zoom_node_addon.obj
 0001:0002f5c0       ?NewInstance@?$ZoomWrapObject@VZoomNodeRawDataLicenseWrap@@@@SAXABV?$FunctionCallbackInfo@VValue@v8@@@v8@@@Z 100305c0 f i zoom_node_addon.obj
 0001:0002f650       ?Init@?$ZoomWrapObject@VZoomNodeRawDataLicenseWrap@@@@SAXPAVIsolate@v8@@@Z 10030650 f i zoom_node_addon.obj
 0001:0002f740       ?NewInstance@?$ZoomWrapObject@VZoomNodeShareRawDataWrap@@@@SAXABV?$FunctionCallbackInfo@VValue@v8@@@v8@@@Z 10030740 f i zoom_node_addon.obj
 0001:0002f7d0       ?Init@?$ZoomWrapObject@VZoomNodeShareRawDataWrap@@@@SAXPAVIsolate@v8@@@Z 100307d0 f i zoom_node_addon.obj
 0001:0002f870       ?NewInstance@?$ZoomWrapObject@VZoomNodeAudioRawDataWrap@@@@SAXABV?$FunctionCallbackInfo@VValue@v8@@@v8@@@Z 10030870 f i zoom_node_addon.obj
 0001:0002f900       ?Init@?$ZoomWrapObject@VZoomNodeAudioRawDataWrap@@@@SAXPAVIsolate@v8@@@Z 10030900 f i zoom_node_addon.obj
 0001:0002f9a0       ?NewInstance@?$ZoomWrapObject@VZoomNodeVideoRawDataWrap@@@@SAXABV?$FunctionCallbackInfo@VValue@v8@@@v8@@@Z 100309a0 f i zoom_node_addon.obj
 0001:0002fa30       ?Init@?$ZoomWrapObject@VZoomNodeVideoRawDataWrap@@@@SAXPAVIsolate@v8@@@Z 10030a30 f i zoom_node_addon.obj
 0001:0002fad0       ?NewInstance@?$ZoomWrapObject@VZoomNodeDirectShareHelperWrap@@@@SAXABV?$FunctionCallbackInfo@VValue@v8@@@v8@@@Z 10030ad0 f i zoom_node_addon.obj
 0001:0002fb60       ?Init@?$ZoomWrapObject@VZoomNodeDirectShareHelperWrap@@@@SAXPAVIsolate@v8@@@Z 10030b60 f i zoom_node_addon.obj
 0001:0002fc00       ?NewInstance@?$ZoomWrapObject@VZoomNodeCustomizedResourceWrap@@@@SAXABV?$FunctionCallbackInfo@VValue@v8@@@v8@@@Z 10030c00 f i zoom_node_addon.obj
 0001:0002fc90       ?Init@?$ZoomWrapObject@VZoomNodeCustomizedResourceWrap@@@@SAXPAVIsolate@v8@@@Z 10030c90 f i zoom_node_addon.obj
 0001:0002fd30       ?NewInstance@?$ZoomWrapObject@VZoomNodeSettingRecordingCtrlWrap@@@@SAXABV?$FunctionCallbackInfo@VValue@v8@@@v8@@@Z 10030d30 f i zoom_node_addon.obj
 0001:0002fdc0       ?Init@?$ZoomWrapObject@VZoomNodeSettingRecordingCtrlWrap@@@@SAXPAVIsolate@v8@@@Z 10030dc0 f i zoom_node_addon.obj
 0001:0002fe60       ?NewInstance@?$ZoomWrapObject@VZoomNodeSettingUIStrategyCtrlWrap@@@@SAXABV?$FunctionCallbackInfo@VValue@v8@@@v8@@@Z 10030e60 f i zoom_node_addon.obj
 0001:0002fef0       ?Init@?$ZoomWrapObject@VZoomNodeSettingUIStrategyCtrlWrap@@@@SAXPAVIsolate@v8@@@Z 10030ef0 f i zoom_node_addon.obj
 0001:0002ff90       ?NewInstance@?$ZoomWrapObject@VZoomNodeSettingGeneralCtrlWrap@@@@SAXABV?$FunctionCallbackInfo@VValue@v8@@@v8@@@Z 10030f90 f i zoom_node_addon.obj
 0001:00030020       ?Init@?$ZoomWrapObject@VZoomNodeSettingGeneralCtrlWrap@@@@SAXPAVIsolate@v8@@@Z 10031020 f i zoom_node_addon.obj
 0001:000300c0       ?NewInstance@?$ZoomWrapObject@VZoomNodeSettingAudioCtrlWrap@@@@SAXABV?$FunctionCallbackInfo@VValue@v8@@@v8@@@Z 100310c0 f i zoom_node_addon.obj
 0001:00030150       ?Init@?$ZoomWrapObject@VZoomNodeSettingAudioCtrlWrap@@@@SAXPAVIsolate@v8@@@Z 10031150 f i zoom_node_addon.obj
 0001:000301f0       ?NewInstance@?$ZoomWrapObject@VZoomNodeSettingVideoCtrlWrap@@@@SAXABV?$FunctionCallbackInfo@VValue@v8@@@v8@@@Z 100311f0 f i zoom_node_addon.obj
 0001:00030280       ?Init@?$ZoomWrapObject@VZoomNodeSettingVideoCtrlWrap@@@@SAXPAVIsolate@v8@@@Z 10031280 f i zoom_node_addon.obj
 0001:00030320       ?NewInstance@?$ZoomWrapObject@VZoomNodeMeetingConfigCtrlWrap@@@@SAXABV?$FunctionCallbackInfo@VValue@v8@@@v8@@@Z 10031320 f i zoom_node_addon.obj
 0001:000303b0       ?Init@?$ZoomWrapObject@VZoomNodeMeetingConfigCtrlWrap@@@@SAXPAVIsolate@v8@@@Z 100313b0 f i zoom_node_addon.obj
 0001:00030450       ?NewInstance@?$ZoomWrapObject@VZoomNodeMeetingH323CtrlWrap@@@@SAXABV?$FunctionCallbackInfo@VValue@v8@@@v8@@@Z 10031450 f i zoom_node_addon.obj
 0001:000304e0       ?Init@?$ZoomWrapObject@VZoomNodeMeetingH323CtrlWrap@@@@SAXPAVIsolate@v8@@@Z 100314e0 f i zoom_node_addon.obj
 0001:00030580       ?NewInstance@?$ZoomWrapObject@VZoomNodeMeetingShareCtrlWrap@@@@SAXABV?$FunctionCallbackInfo@VValue@v8@@@v8@@@Z 10031580 f i zoom_node_addon.obj
 0001:00030610       ?Init@?$ZoomWrapObject@VZoomNodeMeetingShareCtrlWrap@@@@SAXPAVIsolate@v8@@@Z 10031610 f i zoom_node_addon.obj
 0001:000306b0       ?NewInstance@?$ZoomWrapObject@VZoomNodeMeetingParticipantsCtrlWrap@@@@SAXABV?$FunctionCallbackInfo@VValue@v8@@@v8@@@Z 100316b0 f i zoom_node_addon.obj
 0001:00030740       ?Init@?$ZoomWrapObject@VZoomNodeMeetingParticipantsCtrlWrap@@@@SAXPAVIsolate@v8@@@Z 10031740 f i zoom_node_addon.obj
 0001:000307e0       ?NewInstance@?$ZoomWrapObject@VZoomNodeMeetingVideoCtrlWrap@@@@SAXABV?$FunctionCallbackInfo@VValue@v8@@@v8@@@Z 100317e0 f i zoom_node_addon.obj
 0001:00030870       ?Init@?$ZoomWrapObject@VZoomNodeMeetingVideoCtrlWrap@@@@SAXPAVIsolate@v8@@@Z 10031870 f i zoom_node_addon.obj
 0001:00030910       ?NewInstance@?$ZoomWrapObject@VZoomNodeMeetingAudioCtrlWrap@@@@SAXABV?$FunctionCallbackInfo@VValue@v8@@@v8@@@Z 10031910 f i zoom_node_addon.obj
 0001:000309a0       ?Init@?$ZoomWrapObject@VZoomNodeMeetingAudioCtrlWrap@@@@SAXPAVIsolate@v8@@@Z 100319a0 f i zoom_node_addon.obj
 0001:00030a40       ?NewInstance@?$ZoomWrapObject@VZoomNodeMeetingAnnotationWrap@@@@SAXABV?$FunctionCallbackInfo@VValue@v8@@@v8@@@Z 10031a40 f i zoom_node_addon.obj
 0001:00030ad0       ?Init@?$ZoomWrapObject@VZoomNodeMeetingAnnotationWrap@@@@SAXPAVIsolate@v8@@@Z 10031ad0 f i zoom_node_addon.obj
 0001:00030b70       ?NewInstance@?$ZoomWrapObject@VZoomNodePremeetingWrap@@@@SAXABV?$FunctionCallbackInfo@VValue@v8@@@v8@@@Z 10031b70 f i zoom_node_addon.obj
 0001:00030c00       ?Init@?$ZoomWrapObject@VZoomNodePremeetingWrap@@@@SAXPAVIsolate@v8@@@Z 10031c00 f i zoom_node_addon.obj
 0001:00030ca0       ?NewInstance@?$ZoomWrapObject@VZoomNodeSettingWrap@@@@SAXABV?$FunctionCallbackInfo@VValue@v8@@@v8@@@Z 10031ca0 f i zoom_node_addon.obj
 0001:00030d30       ?Init@?$ZoomWrapObject@VZoomNodeSettingWrap@@@@SAXPAVIsolate@v8@@@Z 10031d30 f i zoom_node_addon.obj
 0001:00030dd0       ?NewInstance@?$ZoomWrapObject@VZoomNodeMeetingUICtrlWrap@@@@SAXABV?$FunctionCallbackInfo@VValue@v8@@@v8@@@Z 10031dd0 f i zoom_node_addon.obj
 0001:00030e60       ?Init@?$ZoomWrapObject@VZoomNodeMeetingUICtrlWrap@@@@SAXPAVIsolate@v8@@@Z 10031e60 f i zoom_node_addon.obj
 0001:00030f00       ?NewInstance@?$ZoomWrapObject@VZoomNodeMeetingInfoWrap@@@@SAXABV?$FunctionCallbackInfo@VValue@v8@@@v8@@@Z 10031f00 f i zoom_node_addon.obj
 0001:00030f90       ?Init@?$ZoomWrapObject@VZoomNodeMeetingInfoWrap@@@@SAXPAVIsolate@v8@@@Z 10031f90 f i zoom_node_addon.obj
 0001:00031030       ?NewInstance@?$ZoomWrapObject@VZoomNodeMeetingWrap@@@@SAXABV?$FunctionCallbackInfo@VValue@v8@@@v8@@@Z 10032030 f i zoom_node_addon.obj
 0001:000310c0       ?Init@?$ZoomWrapObject@VZoomNodeMeetingWrap@@@@SAXPAVIsolate@v8@@@Z 100320c0 f i zoom_node_addon.obj
 0001:00031160       ?NewInstance@?$ZoomWrapObject@VZoomNodeWrap@@@@SAXABV?$FunctionCallbackInfo@VValue@v8@@@v8@@@Z 10032160 f i zoom_node_addon.obj
 0001:000311f0       ?Init@?$ZoomWrapObject@VZoomNodeWrap@@@@SAXPAVIsolate@v8@@@Z 100321f0 f i zoom_node_addon.obj
 0001:00031290       ?NewInstance@?$ZoomWrapObject@VZoomNodeAuthWrap@@@@SAXABV?$FunctionCallbackInfo@VValue@v8@@@v8@@@Z 10032290 f i zoom_node_addon.obj
 0001:00031320       ?Init@?$ZoomWrapObject@VZoomNodeAuthWrap@@@@SAXPAVIsolate@v8@@@Z 10032320 f i zoom_node_addon.obj
 0001:000313c0       ?New@?$ZoomWrapObject@VZoomNodeSettingAccessibilityCtrlWrap@@@@SAXABV?$FunctionCallbackInfo@VValue@v8@@@v8@@@Z 100323c0 f i zoom_node_addon.obj
 0001:000314d0       ?New@?$ZoomWrapObject@VZoomNodeSettingStatisticCtrlWrap@@@@SAXABV?$FunctionCallbackInfo@VValue@v8@@@v8@@@Z 100324d0 f i zoom_node_addon.obj
 0001:000315e0       ?New@?$ZoomWrapObject@VZoomNodeSDKSMSHelperWrap@@@@SAXABV?$FunctionCallbackInfo@VValue@v8@@@v8@@@Z 100325e0 f i zoom_node_addon.obj
 0001:000316e0       ?New@?$ZoomWrapObject@VZoomNodeRawDataLicenseWrap@@@@SAXABV?$FunctionCallbackInfo@VValue@v8@@@v8@@@Z 100326e0 f i zoom_node_addon.obj
 0001:000317f0       ?New@?$ZoomWrapObject@VZoomNodeShareRawDataWrap@@@@SAXABV?$FunctionCallbackInfo@VValue@v8@@@v8@@@Z 100327f0 f i zoom_node_addon.obj
 0001:00031900       ?New@?$ZoomWrapObject@VZoomNodeAudioRawDataWrap@@@@SAXABV?$FunctionCallbackInfo@VValue@v8@@@v8@@@Z 10032900 f i zoom_node_addon.obj
 0001:00031a10       ?New@?$ZoomWrapObject@VZoomNodeVideoRawDataWrap@@@@SAXABV?$FunctionCallbackInfo@VValue@v8@@@v8@@@Z 10032a10 f i zoom_node_addon.obj
 0001:00031b20       ?New@?$ZoomWrapObject@VZoomNodeDirectShareHelperWrap@@@@SAXABV?$FunctionCallbackInfo@VValue@v8@@@v8@@@Z 10032b20 f i zoom_node_addon.obj
 0001:00031c20       ?New@?$ZoomWrapObject@VZoomNodeCustomizedResourceWrap@@@@SAXABV?$FunctionCallbackInfo@VValue@v8@@@v8@@@Z 10032c20 f i zoom_node_addon.obj
 0001:00031d30       ?New@?$ZoomWrapObject@VZoomNodeSettingRecordingCtrlWrap@@@@SAXABV?$FunctionCallbackInfo@VValue@v8@@@v8@@@Z 10032d30 f i zoom_node_addon.obj
 0001:00031e30       ?New@?$ZoomWrapObject@VZoomNodeSettingUIStrategyCtrlWrap@@@@SAXABV?$FunctionCallbackInfo@VValue@v8@@@v8@@@Z 10032e30 f i zoom_node_addon.obj
 0001:00031f40       ?New@?$ZoomWrapObject@VZoomNodeSettingGeneralCtrlWrap@@@@SAXABV?$FunctionCallbackInfo@VValue@v8@@@v8@@@Z 10032f40 f i zoom_node_addon.obj
 0001:00032050       ?New@?$ZoomWrapObject@VZoomNodeSettingAudioCtrlWrap@@@@SAXABV?$FunctionCallbackInfo@VValue@v8@@@v8@@@Z 10033050 f i zoom_node_addon.obj
 0001:00032150       ?New@?$ZoomWrapObject@VZoomNodeSettingVideoCtrlWrap@@@@SAXABV?$FunctionCallbackInfo@VValue@v8@@@v8@@@Z 10033150 f i zoom_node_addon.obj
 0001:00032250       ?New@?$ZoomWrapObject@VZoomNodeMeetingConfigCtrlWrap@@@@SAXABV?$FunctionCallbackInfo@VValue@v8@@@v8@@@Z 10033250 f i zoom_node_addon.obj
 0001:00032350       ?New@?$ZoomWrapObject@VZoomNodeMeetingH323CtrlWrap@@@@SAXABV?$FunctionCallbackInfo@VValue@v8@@@v8@@@Z 10033350 f i zoom_node_addon.obj
 0001:00032450       ?New@?$ZoomWrapObject@VZoomNodeMeetingShareCtrlWrap@@@@SAXABV?$FunctionCallbackInfo@VValue@v8@@@v8@@@Z 10033450 f i zoom_node_addon.obj
 0001:00032550       ?New@?$ZoomWrapObject@VZoomNodeMeetingParticipantsCtrlWrap@@@@SAXABV?$FunctionCallbackInfo@VValue@v8@@@v8@@@Z 10033550 f i zoom_node_addon.obj
 0001:00032650       ?New@?$ZoomWrapObject@VZoomNodeMeetingVideoCtrlWrap@@@@SAXABV?$FunctionCallbackInfo@VValue@v8@@@v8@@@Z 10033650 f i zoom_node_addon.obj
 0001:00032750       ?New@?$ZoomWrapObject@VZoomNodeMeetingAudioCtrlWrap@@@@SAXABV?$FunctionCallbackInfo@VValue@v8@@@v8@@@Z 10033750 f i zoom_node_addon.obj
 0001:00032850       ?New@?$ZoomWrapObject@VZoomNodeMeetingAnnotationWrap@@@@SAXABV?$FunctionCallbackInfo@VValue@v8@@@v8@@@Z 10033850 f i zoom_node_addon.obj
 0001:00032960       ?New@?$ZoomWrapObject@VZoomNodePremeetingWrap@@@@SAXABV?$FunctionCallbackInfo@VValue@v8@@@v8@@@Z 10033960 f i zoom_node_addon.obj
 0001:00032a60       ?New@?$ZoomWrapObject@VZoomNodeSettingWrap@@@@SAXABV?$FunctionCallbackInfo@VValue@v8@@@v8@@@Z 10033a60 f i zoom_node_addon.obj
 0001:00032b70       ?New@?$ZoomWrapObject@VZoomNodeMeetingUICtrlWrap@@@@SAXABV?$FunctionCallbackInfo@VValue@v8@@@v8@@@Z 10033b70 f i zoom_node_addon.obj
 0001:00032c70       ?New@?$ZoomWrapObject@VZoomNodeMeetingInfoWrap@@@@SAXABV?$FunctionCallbackInfo@VValue@v8@@@v8@@@Z 10033c70 f i zoom_node_addon.obj
 0001:00032d80       ?New@?$ZoomWrapObject@VZoomNodeMeetingWrap@@@@SAXABV?$FunctionCallbackInfo@VValue@v8@@@v8@@@Z 10033d80 f i zoom_node_addon.obj
 0001:00032e80       ?New@?$ZoomWrapObject@VZoomNodeWrap@@@@SAXABV?$FunctionCallbackInfo@VValue@v8@@@v8@@@Z 10033e80 f i zoom_node_addon.obj
 0001:00032f90       ?New@?$ZoomWrapObject@VZoomNodeAuthWrap@@@@SAXABV?$FunctionCallbackInfo@VValue@v8@@@v8@@@Z 10033f90 f i zoom_node_addon.obj
 0001:00033090       ??$Set@VInteger@v8@@@?$ReturnValue@VValue@v8@@@v8@@QAEXV?$Local@VInteger@v8@@@1@@Z 10034090 f i zoom_node_addon.obj
 0001:000330b0       ?length@?$char_traits@D@std@@SAIPBD@Z 100340b0 f i zoom_native_to_wrap.obj
 0001:000330d0       ?Map2WrapDefine@@YA?AW4ZNSDKError@@W4SDKError@ZOOMSDK@@@Z 100340d0 f   zoom_native_to_wrap.obj
 0001:000331e0       ?Map2WrapDefine@@YA?AW4ZNAuthResult@@W4AuthResult@ZOOMSDK@@@Z 100341e0 f   zoom_native_to_wrap.obj
 0001:00033250       ?Map2WrapDefine@@YA?AW4ZNMeetingStatus@@W4MeetingStatus@ZOOMSDK@@@Z 10034250 f   zoom_native_to_wrap.obj
 0001:00033320       ?Map2WrapDefine@@YA?AW4ZNAudioCallbackActionInfo@@W4AudioCallbackActionInfo@ZOOMSDK@@@Z 10034320 f   zoom_native_to_wrap.obj
 0001:00033320       ?Map2WrapDefine@@YA?AW4ZNConnectionQuality@@W4ConnectionQuality@ZOOMSDK@@@Z 10034320 f   zoom_native_to_wrap.obj
 0001:00033320       ?Map2WrapDefine@@YA?AW4ZNAudioStatus@@W4AudioStatus@ZOOMSDK@@@Z 10034320 f   zoom_native_to_wrap.obj
 0001:00033320       ?Map2WrapDefine@@YA?AW4ZNH323CalloutStatus@@W4H323CalloutStatus@ZOOMSDK@@@Z 10034320 f   zoom_native_to_wrap.obj
 0001:00033380       ?Map2WrapDefine@@YA?AW4ZNDirectShareStatus@@W4DirectShareStatusStatus_Enum@ZOOMSDK@@@Z 10034380 f   zoom_native_to_wrap.obj
 0001:000333f0       ?Map2WrapDefine@@YA?AW4ZNShareStatus@@W4SharingStatus@ZOOMSDK@@@Z 100343f0 f   zoom_native_to_wrap.obj
 0001:00033450       ?Map2WrapDefine@@YA?AW4ZNSMSVerificationCodeErr@@W4SMSVerificationCodeErr@@@Z 10034450 f   zoom_native_to_wrap.obj
 0001:000334c0       ?Map2SDKDefine@@YA?AW4SDK_LANGUAGE_ID@ZOOMSDK@@W4ZNSDK_LANGUAGE_ID@@@Z 100344c0 f   zoom_native_to_wrap.obj
 0001:00033540       ?Map2SDKDefine@@YA?AW4AnnotationToolType@ZOOMSDK@@W4ZNAnnotationToolType@@@Z 10034540 f   zoom_native_to_wrap.obj
 0001:00033660       ?Map2SDKDefine@@YA?AW4SDKCustomizedStringType@ZOOMSDK@@W4ZNSDKCustomizedStringType@@@Z 10034660 f   zoom_native_to_wrap.obj
 0001:000336e0       ??0?$basic_string@DU?$char_traits@D@std@@V?$allocator@D@2@@std@@QAE@PBD@Z 100346e0 f i zoom_native_to_wrap.obj
 0001:00033730       ?assign@?$basic_string@DU?$char_traits@D@std@@V?$allocator@D@2@@std@@QAEAAV12@PBDI@Z 10034730 f i zoom_native_to_wrap.obj
 0001:00033830       ?assign@?$basic_string@DU?$char_traits@D@std@@V?$allocator@D@2@@std@@QAEAAV12@ABV12@II@Z 10034830 f i zoom_native_to_wrap.obj
 0001:00033940       ?_Inside@?$basic_string@DU?$char_traits@D@std@@V?$allocator@D@2@@std@@QAE_NPBD@Z 10034940 f i zoom_native_to_wrap.obj
 0001:00033980       ?erase@?$basic_string@DU?$char_traits@D@std@@V?$allocator@D@2@@std@@QAEAAV12@II@Z 10034980 f i zoom_native_to_wrap.obj
 0001:00033a20       ?_Xran@?$basic_string@DU?$char_traits@D@std@@V?$allocator@D@2@@std@@QBEXXZ 10034a20 f i zoom_native_to_wrap.obj
 0001:00033a30       ?IsAnnoataionDisable@ZoomNodeMeetingAnnotationWrap@@SAXABV?$FunctionCallbackInfo@VValue@v8@@@v8@@@Z 10034a30 f   zoom_node_meeting_annotation.obj
 0001:00033a60       ?StartAnnotation@ZoomNodeMeetingAnnotationWrap@@SAXABV?$FunctionCallbackInfo@VValue@v8@@@v8@@@Z 10034a60 f   zoom_node_meeting_annotation.obj
 0001:00033ce0       ?StopAnnotation@ZoomNodeMeetingAnnotationWrap@@SAXABV?$FunctionCallbackInfo@VValue@v8@@@v8@@@Z 10034ce0 f   zoom_node_meeting_annotation.obj
 0001:00033e10       ?SetTool@ZoomNodeMeetingAnnotationWrap@@SAXABV?$FunctionCallbackInfo@VValue@v8@@@v8@@@Z 10034e10 f   zoom_node_meeting_annotation.obj
 0001:00033f80       ?Clear@ZoomNodeMeetingAnnotationWrap@@SAXABV?$FunctionCallbackInfo@VValue@v8@@@v8@@@Z 10034f80 f   zoom_node_meeting_annotation.obj
 0001:000340f0       ?SetColor@ZoomNodeMeetingAnnotationWrap@@SAXABV?$FunctionCallbackInfo@VValue@v8@@@v8@@@Z 100350f0 f   zoom_node_meeting_annotation.obj
 0001:000342f0       ?SetLineWidth@ZoomNodeMeetingAnnotationWrap@@SAXABV?$FunctionCallbackInfo@VValue@v8@@@v8@@@Z 100352f0 f   zoom_node_meeting_annotation.obj
 0001:000344f0       ?Undo@ZoomNodeMeetingAnnotationWrap@@SAXABV?$FunctionCallbackInfo@VValue@v8@@@v8@@@Z 100354f0 f   zoom_node_meeting_annotation.obj
 0001:00034620       ?Redo@ZoomNodeMeetingAnnotationWrap@@SAXABV?$FunctionCallbackInfo@VValue@v8@@@v8@@@Z 10035620 f   zoom_node_meeting_annotation.obj
 0001:00034750       ??0ZoomNodeMeetingAudioCtrlWrap@@AAE@XZ 10035750 f   zoom_node_meeting_audio_ctrl.obj
 0001:000347d0       ??_GZoomNodeMeetingAudioCtrlWrap@@EAEPAXI@Z 100357d0 f i zoom_node_meeting_audio_ctrl.obj
 0001:000347d0       ??_EZoomNodeMeetingAudioCtrlWrap@@EAEPAXI@Z 100357d0 f i * CIL library *:* CIL module *
 0001:00034830       ?MuteAudio@ZoomNodeMeetingAudioCtrlWrap@@SAXABV?$FunctionCallbackInfo@VValue@v8@@@v8@@@Z 10035830 f   zoom_node_meeting_audio_ctrl.obj
 0001:000349a0       ?UnMuteAudio@ZoomNodeMeetingAudioCtrlWrap@@SAXABV?$FunctionCallbackInfo@VValue@v8@@@v8@@@Z 100359a0 f   zoom_node_meeting_audio_ctrl.obj
 0001:00034ab0       ?JoinVoip@ZoomNodeMeetingAudioCtrlWrap@@SAXABV?$FunctionCallbackInfo@VValue@v8@@@v8@@@Z 10035ab0 f   zoom_node_meeting_audio_ctrl.obj
 0001:00034af0       ?LeaveVoip@ZoomNodeMeetingAudioCtrlWrap@@SAXABV?$FunctionCallbackInfo@VValue@v8@@@v8@@@Z 10035af0 f   zoom_node_meeting_audio_ctrl.obj
 0001:00034b30       ?SetMeetingAudioStatusCB@ZoomNodeMeetingAudioCtrlWrap@@SAXABV?$FunctionCallbackInfo@VValue@v8@@@v8@@@Z 10035b30 f   zoom_node_meeting_audio_ctrl.obj
 0001:00034cd0       ?SetUserActiveAudioChangeCB@ZoomNodeMeetingAudioCtrlWrap@@SAXABV?$FunctionCallbackInfo@VValue@v8@@@v8@@@Z 10035cd0 f   zoom_node_meeting_audio_ctrl.obj
 0001:00034e70       ?EnablePlayChimeWhenEnterOrExit@ZoomNodeMeetingAudioCtrlWrap@@SAXABV?$FunctionCallbackInfo@VValue@v8@@@v8@@@Z 10035e70 f   zoom_node_meeting_audio_ctrl.obj
 0001:00034fa0       ??0ZoomNodeMeetingVideoCtrlWrap@@AAE@XZ 10035fa0 f   zoom_node_meeting_video_ctrl.obj
 0001:00035020       ??_GZoomNodeMeetingVideoCtrlWrap@@EAEPAXI@Z 10036020 f i zoom_node_meeting_video_ctrl.obj
 0001:00035020       ??_EZoomNodeMeetingVideoCtrlWrap@@EAEPAXI@Z 10036020 f i * CIL library *:* CIL module *
 0001:00035080       ?MuteVideo@ZoomNodeMeetingVideoCtrlWrap@@SAXABV?$FunctionCallbackInfo@VValue@v8@@@v8@@@Z 10036080 f   zoom_node_meeting_video_ctrl.obj
 0001:00035190       ?UnMuteVideo@ZoomNodeMeetingVideoCtrlWrap@@SAXABV?$FunctionCallbackInfo@VValue@v8@@@v8@@@Z 10036190 f   zoom_node_meeting_video_ctrl.obj
 0001:000352a0       ?PinVideo@ZoomNodeMeetingVideoCtrlWrap@@SAXABV?$FunctionCallbackInfo@VValue@v8@@@v8@@@Z 100362a0 f   zoom_node_meeting_video_ctrl.obj
 0001:00035460       ?SpotlightVideo@ZoomNodeMeetingVideoCtrlWrap@@SAXABV?$FunctionCallbackInfo@VValue@v8@@@v8@@@Z 10036460 f   zoom_node_meeting_video_ctrl.obj
 0001:000355d0       ?HideOrShowNoVideoUserOnVideoWall@ZoomNodeMeetingVideoCtrlWrap@@SAXABV?$FunctionCallbackInfo@VValue@v8@@@v8@@@Z 100365d0 f   zoom_node_meeting_video_ctrl.obj
 0001:00035700       ?SetMeetingVideoStatusCB@ZoomNodeMeetingVideoCtrlWrap@@SAXABV?$FunctionCallbackInfo@VValue@v8@@@v8@@@Z 10036700 f   zoom_node_meeting_video_ctrl.obj
 0001:000358a0       ?SetActiveSpeakerVideoUserChangedCB@ZoomNodeMeetingVideoCtrlWrap@@SAXABV?$FunctionCallbackInfo@VValue@v8@@@v8@@@Z 100368a0 f   zoom_node_meeting_video_ctrl.obj
 0001:00035a40       ?SetActiveVideoUserChangedCB@ZoomNodeMeetingVideoCtrlWrap@@SAXABV?$FunctionCallbackInfo@VValue@v8@@@v8@@@Z 10036a40 f   zoom_node_meeting_video_ctrl.obj
 0001:00035be0       ??0ZoomNodeMeetingParticipantsCtrlWrap@@AAE@XZ 10036be0 f   zoom_node_meeting_participants_ctrl.obj
 0001:00035c60       ?SetMeetingUserJoinCB@ZoomNodeMeetingParticipantsCtrlWrap@@SAXABV?$FunctionCallbackInfo@VValue@v8@@@v8@@@Z 10036c60 f   zoom_node_meeting_participants_ctrl.obj
 0001:00035e00       ?SetMeetingUserLeftCB@ZoomNodeMeetingParticipantsCtrlWrap@@SAXABV?$FunctionCallbackInfo@VValue@v8@@@v8@@@Z 10036e00 f   zoom_node_meeting_participants_ctrl.obj
 0001:00035fa0       ?SetMeetingHostChangeCB@ZoomNodeMeetingParticipantsCtrlWrap@@SAXABV?$FunctionCallbackInfo@VValue@v8@@@v8@@@Z 10036fa0 f   zoom_node_meeting_participants_ctrl.obj
 0001:00036140       ?SetMeetingLowOrRaiseHandStatusChangeCB@ZoomNodeMeetingParticipantsCtrlWrap@@SAXABV?$FunctionCallbackInfo@VValue@v8@@@v8@@@Z 10037140 f   zoom_node_meeting_participants_ctrl.obj
 0001:000362e0       ?GetParticipantsList@ZoomNodeMeetingParticipantsCtrlWrap@@SAXABV?$FunctionCallbackInfo@VValue@v8@@@v8@@@Z 100372e0 f   zoom_node_meeting_participants_ctrl.obj
 0001:00036450       ?GetUserInfoByUserID@ZoomNodeMeetingParticipantsCtrlWrap@@SAXABV?$FunctionCallbackInfo@VValue@v8@@@v8@@@Z 10037450 f   zoom_node_meeting_participants_ctrl.obj
 0001:00036ba0       ??4_ZNUserInfomation@@QAEAAU0@$$QAU0@@Z 10037ba0 f i zoom_node_meeting_participants_ctrl.obj
 0001:00036c90       ?LowerHand@ZoomNodeMeetingParticipantsCtrlWrap@@SAXABV?$FunctionCallbackInfo@VValue@v8@@@v8@@@Z 10037c90 f   zoom_node_meeting_participants_ctrl.obj
 0001:00036dc0       ?LowerAllHands@ZoomNodeMeetingParticipantsCtrlWrap@@SAXABV?$FunctionCallbackInfo@VValue@v8@@@v8@@@Z 10037dc0 f   zoom_node_meeting_participants_ctrl.obj
 0001:00036e10       ??0ZoomNodeMeetingShareCtrlWrap@@AAE@XZ 10037e10 f   zoom_node_meeting_share_ctrl.obj
 0001:00036e90       ??_EZoomNodeMeetingShareCtrlWrap@@EAEPAXI@Z 10037e90 f i * CIL library *:* CIL module *
 0001:00036e90       ??_GZoomNodeMeetingShareCtrlWrap@@EAEPAXI@Z 10037e90 f i zoom_node_meeting_share_ctrl.obj
 0001:00036ef0       ?StartAppShare@ZoomNodeMeetingShareCtrlWrap@@SAXABV?$FunctionCallbackInfo@VValue@v8@@@v8@@@Z 10037ef0 f   zoom_node_meeting_share_ctrl.obj
 0001:00037080       ?StartMonitorShare@ZoomNodeMeetingShareCtrlWrap@@SAXABV?$FunctionCallbackInfo@VValue@v8@@@v8@@@Z 10038080 f   zoom_node_meeting_share_ctrl.obj
 0001:00037210       ?StopShare@ZoomNodeMeetingShareCtrlWrap@@SAXABV?$FunctionCallbackInfo@VValue@v8@@@v8@@@Z 10038210 f   zoom_node_meeting_share_ctrl.obj
 0001:00037250       ?SetOnSharingStatusCB@ZoomNodeMeetingShareCtrlWrap@@SAXABV?$FunctionCallbackInfo@VValue@v8@@@v8@@@Z 10038250 f   zoom_node_meeting_share_ctrl.obj
 0001:000373f0       ??0ZoomNodeMeetingH323CtrlWrap@@AAE@XZ 100383f0 f   zoom_node_meeting_h323_ctrl.obj
 0001:00037470       ??_GZoomNodeMeetingH323CtrlWrap@@EAEPAXI@Z 10038470 f i zoom_node_meeting_h323_ctrl.obj
 0001:00037470       ??_EZoomNodeMeetingH323CtrlWrap@@EAEPAXI@Z 10038470 f i * CIL library *:* CIL module *
 0001:000374d0       ?CallOutH323@ZoomNodeMeetingH323CtrlWrap@@SAXABV?$FunctionCallbackInfo@VValue@v8@@@v8@@@Z 100384d0 f   zoom_node_meeting_h323_ctrl.obj
 0001:00037790       ?CancelCallOutH323@ZoomNodeMeetingH323CtrlWrap@@SAXABV?$FunctionCallbackInfo@VValue@v8@@@v8@@@Z 10038790 f   zoom_node_meeting_h323_ctrl.obj
 0001:000377d0       ?GetH323Address@ZoomNodeMeetingH323CtrlWrap@@SAXABV?$FunctionCallbackInfo@VValue@v8@@@v8@@@Z 100387d0 f   zoom_node_meeting_h323_ctrl.obj
 0001:00037a20       ?GetH323Password@ZoomNodeMeetingH323CtrlWrap@@SAXABV?$FunctionCallbackInfo@VValue@v8@@@v8@@@Z 10038a20 f   zoom_node_meeting_h323_ctrl.obj
 0001:00037b60       ?GetCalloutH323DviceList@ZoomNodeMeetingH323CtrlWrap@@SAXABV?$FunctionCallbackInfo@VValue@v8@@@v8@@@Z 10038b60 f   zoom_node_meeting_h323_ctrl.obj
 0001:00038040       ?SetH323CallOutStatusCB@ZoomNodeMeetingH323CtrlWrap@@SAXABV?$FunctionCallbackInfo@VValue@v8@@@v8@@@Z 10039040 f   zoom_node_meeting_h323_ctrl.obj
 0001:000381e0       ??0ZoomNodeMeetingConfigCtrlWrap@@AAE@XZ 100391e0 f   zoom_node_meeting_config_ctrl.obj
 0001:00038260       ??_GZoomNodeMeetingConfigCtrlWrap@@EAEPAXI@Z 10039260 f i zoom_node_meeting_config_ctrl.obj
 0001:00038260       ??_EZoomNodeMeetingConfigCtrlWrap@@EAEPAXI@Z 10039260 f i * CIL library *:* CIL module *
 0001:000382c0       ?EnableInviteButtonOnMeetingUI@ZoomNodeMeetingConfigCtrlWrap@@SAXABV?$FunctionCallbackInfo@VValue@v8@@@v8@@@Z 100392c0 f   zoom_node_meeting_config_ctrl.obj
 0001:000383f0       ?SetFloatVideoPos@ZoomNodeMeetingConfigCtrlWrap@@SAXABV?$FunctionCallbackInfo@VValue@v8@@@v8@@@Z 100393f0 f   zoom_node_meeting_config_ctrl.obj
 0001:00038670       ?SetBottomFloatToolbarWndVisibility@ZoomNodeMeetingConfigCtrlWrap@@SAXABV?$FunctionCallbackInfo@VValue@v8@@@v8@@@Z 10039670 f   zoom_node_meeting_config_ctrl.obj
 0001:000387a0       ?SetSharingToolbarVisibility@ZoomNodeMeetingConfigCtrlWrap@@SAXABV?$FunctionCallbackInfo@VValue@v8@@@v8@@@Z 100397a0 f   zoom_node_meeting_config_ctrl.obj
 0001:000388d0       ?SetDirectShareMonitorID@ZoomNodeMeetingConfigCtrlWrap@@SAXABV?$FunctionCallbackInfo@VValue@v8@@@v8@@@Z 100398d0 f   zoom_node_meeting_config_ctrl.obj
 0001:00038a70       ?SetMeetingUIPos@ZoomNodeMeetingConfigCtrlWrap@@SAXABV?$FunctionCallbackInfo@VValue@v8@@@v8@@@Z 10039a70 f   zoom_node_meeting_config_ctrl.obj
 0001:00038cf0       ?DisableWaitingForHostDialog@ZoomNodeMeetingConfigCtrlWrap@@SAXABV?$FunctionCallbackInfo@VValue@v8@@@v8@@@Z 10039cf0 f   zoom_node_meeting_config_ctrl.obj
 0001:00038e20       ?DisablePopupMeetingWrongPSWDlg@ZoomNodeMeetingConfigCtrlWrap@@SAXABV?$FunctionCallbackInfo@VValue@v8@@@v8@@@Z 10039e20 f   zoom_node_meeting_config_ctrl.obj
 0001:00038f50       ?EnableAutoEndOtherMeetingWhenStartMeeting@ZoomNodeMeetingConfigCtrlWrap@@SAXABV?$FunctionCallbackInfo@VValue@v8@@@v8@@@Z 10039f50 f   zoom_node_meeting_config_ctrl.obj
 0001:00039080       ?EnableLButtonDBClick4SwitchFullScreenMode@ZoomNodeMeetingConfigCtrlWrap@@SAXABV?$FunctionCallbackInfo@VValue@v8@@@v8@@@Z 1003a080 f   zoom_node_meeting_config_ctrl.obj
 0001:000391b0       ?SetFloatVideoWndVisibility@ZoomNodeMeetingConfigCtrlWrap@@SAXABV?$FunctionCallbackInfo@VValue@v8@@@v8@@@Z 1003a1b0 f   zoom_node_meeting_config_ctrl.obj
 0001:000392e0       ?PrePopulateWebinarRegistrationInfo@ZoomNodeMeetingConfigCtrlWrap@@SAXABV?$FunctionCallbackInfo@VValue@v8@@@v8@@@Z 1003a2e0 f   zoom_node_meeting_config_ctrl.obj
 0001:00039500       ?Reset@ZoomNodeMeetingConfigCtrlWrap@@SAXABV?$FunctionCallbackInfo@VValue@v8@@@v8@@@Z 1003a500 f   zoom_node_meeting_config_ctrl.obj
 0001:00039540       ?EnableAutoAdjustSpeakerVolumeWhenJoinAudio@ZoomNodeMeetingConfigCtrlWrap@@SAXABV?$FunctionCallbackInfo@VValue@v8@@@v8@@@Z 1003a540 f   zoom_node_meeting_config_ctrl.obj
 0001:00039670       ?EnableAutoAdjustMicVolumeWhenJoinAudio@ZoomNodeMeetingConfigCtrlWrap@@SAXABV?$FunctionCallbackInfo@VValue@v8@@@v8@@@Z 1003a670 f   zoom_node_meeting_config_ctrl.obj
 0001:000397a0       ?ConfigDSCP@ZoomNodeMeetingConfigCtrlWrap@@SAXABV?$FunctionCallbackInfo@VValue@v8@@@v8@@@Z 1003a7a0 f   zoom_node_meeting_config_ctrl.obj
 0001:00039950       ?EnableHideFullPhoneNumber4PureCallinUser@ZoomNodeMeetingConfigCtrlWrap@@SAXABV?$FunctionCallbackInfo@VValue@v8@@@v8@@@Z 1003a950 f   zoom_node_meeting_config_ctrl.obj
 0001:00039a80       ?EnableLengthLimitationOfMeetingNumber@ZoomNodeMeetingConfigCtrlWrap@@SAXABV?$FunctionCallbackInfo@VValue@v8@@@v8@@@Z 1003aa80 f   zoom_node_meeting_config_ctrl.obj
 0001:00039bb0       ?EnableShareIOSDevice@ZoomNodeMeetingConfigCtrlWrap@@SAXABV?$FunctionCallbackInfo@VValue@v8@@@v8@@@Z 1003abb0 f   zoom_node_meeting_config_ctrl.obj
 0001:00039ce0       ?EnableShareWhiteBoard@ZoomNodeMeetingConfigCtrlWrap@@SAXABV?$FunctionCallbackInfo@VValue@v8@@@v8@@@Z 1003ace0 f   zoom_node_meeting_config_ctrl.obj
 0001:00039e10       ?ForceDisableMultiShare@ZoomNodeMeetingConfigCtrlWrap@@SAXABV?$FunctionCallbackInfo@VValue@v8@@@v8@@@Z 1003ae10 f   zoom_node_meeting_config_ctrl.obj
 0001:00039f40       ?EnableLocalRecordingConvertProgressBarDialog@ZoomNodeMeetingConfigCtrlWrap@@SAXABV?$FunctionCallbackInfo@VValue@v8@@@v8@@@Z 1003af40 f   zoom_node_meeting_config_ctrl.obj
 0001:0003a070       ?SetMaxDurationForOnlyHostInMeeting@ZoomNodeMeetingConfigCtrlWrap@@SAXABV?$FunctionCallbackInfo@VValue@v8@@@v8@@@Z 1003b070 f   zoom_node_meeting_config_ctrl.obj
 0001:0003a180       ?GetReminderType@ZoomNodeMeetingConfigCtrlWrap@@SAXABV?$FunctionCallbackInfo@VValue@v8@@@v8@@@Z 1003b180 f   zoom_node_meeting_config_ctrl.obj
 0001:0003a200       ?UpgradeMeeting@ZoomNodeMeetingConfigCtrlWrap@@SAXABV?$FunctionCallbackInfo@VValue@v8@@@v8@@@Z 1003b200 f   zoom_node_meeting_config_ctrl.obj
 0001:0003a240       ?UpgradeAccount@ZoomNodeMeetingConfigCtrlWrap@@SAXABV?$FunctionCallbackInfo@VValue@v8@@@v8@@@Z 1003b240 f   zoom_node_meeting_config_ctrl.obj
 0001:0003a280       ?CancelUpdate@ZoomNodeMeetingConfigCtrlWrap@@SAXABV?$FunctionCallbackInfo@VValue@v8@@@v8@@@Z 1003b280 f   zoom_node_meeting_config_ctrl.obj
 0001:0003a2c0       ?SetFreeMeetingNeedToUpgradeCB@ZoomNodeMeetingConfigCtrlWrap@@SAXABV?$FunctionCallbackInfo@VValue@v8@@@v8@@@Z 1003b2c0 f   zoom_node_meeting_config_ctrl.obj
 0001:0003a460       ?SetFreeMeetingUpgradeToGiftFreeTrialStartCB@ZoomNodeMeetingConfigCtrlWrap@@SAXABV?$FunctionCallbackInfo@VValue@v8@@@v8@@@Z 1003b460 f   zoom_node_meeting_config_ctrl.obj
 0001:0003a600       ?SetFreeMeetingUpgradeToGiftFreeTrialStopCB@ZoomNodeMeetingConfigCtrlWrap@@SAXABV?$FunctionCallbackInfo@VValue@v8@@@v8@@@Z 1003b600 f   zoom_node_meeting_config_ctrl.obj
 0001:0003a7a0       ?SetFreeMeetingUpgradeToProMeetingCB@ZoomNodeMeetingConfigCtrlWrap@@SAXABV?$FunctionCallbackInfo@VValue@v8@@@v8@@@Z 1003b7a0 f   zoom_node_meeting_config_ctrl.obj
 0001:0003a940       ?EnableApproveRemoteControlDlg@ZoomNodeMeetingConfigCtrlWrap@@SAXABV?$FunctionCallbackInfo@VValue@v8@@@v8@@@Z 1003b940 f   zoom_node_meeting_config_ctrl.obj
 0001:0003aa70       ?EnableDeclineRemoteControlResponseDlg@ZoomNodeMeetingConfigCtrlWrap@@SAXABV?$FunctionCallbackInfo@VValue@v8@@@v8@@@Z 1003ba70 f   zoom_node_meeting_config_ctrl.obj
 0001:0003aba0       ?EnableLeaveMeetingOptionForHost@ZoomNodeMeetingConfigCtrlWrap@@SAXABV?$FunctionCallbackInfo@VValue@v8@@@v8@@@Z 1003bba0 f   zoom_node_meeting_config_ctrl.obj
 0001:0003acd0       ?EnableVideoButtonOnMeetingUI@ZoomNodeMeetingConfigCtrlWrap@@SAXABV?$FunctionCallbackInfo@VValue@v8@@@v8@@@Z 1003bcd0 f   zoom_node_meeting_config_ctrl.obj
 0001:0003ae00       ?EnableAudioButtonOnMeetingUI@ZoomNodeMeetingConfigCtrlWrap@@SAXABV?$FunctionCallbackInfo@VValue@v8@@@v8@@@Z 1003be00 f   zoom_node_meeting_config_ctrl.obj
 0001:0003af30       ?EnableEnterAndExitFullScreenButtonOnMeetingUI@ZoomNodeMeetingConfigCtrlWrap@@SAXABV?$FunctionCallbackInfo@VValue@v8@@@v8@@@Z 1003bf30 f   zoom_node_meeting_config_ctrl.obj
 0001:0003b060       ?RedirectClickShareBTNEvent@ZoomNodeMeetingConfigCtrlWrap@@SAXABV?$FunctionCallbackInfo@VValue@v8@@@v8@@@Z 1003c060 f   zoom_node_meeting_config_ctrl.obj
 0001:0003b190       ?RedirectClickEndMeetingBTNEvent@ZoomNodeMeetingConfigCtrlWrap@@SAXABV?$FunctionCallbackInfo@VValue@v8@@@v8@@@Z 1003c190 f   zoom_node_meeting_config_ctrl.obj
 0001:0003b2c0       ?RedirectFreeMeetingEndingReminderDlg@ZoomNodeMeetingConfigCtrlWrap@@SAXABV?$FunctionCallbackInfo@VValue@v8@@@v8@@@Z 1003c2c0 f   zoom_node_meeting_config_ctrl.obj
 0001:0003b3f0       ?RedirectClickCustomLiveStreamMenuEvent@ZoomNodeMeetingConfigCtrlWrap@@SAXABV?$FunctionCallbackInfo@VValue@v8@@@v8@@@Z 1003c3f0 f   zoom_node_meeting_config_ctrl.obj
 0001:0003b520       ?RedirectClickParticipantListBTNEvent@ZoomNodeMeetingConfigCtrlWrap@@SAXABV?$FunctionCallbackInfo@VValue@v8@@@v8@@@Z 1003c520 f   zoom_node_meeting_config_ctrl.obj
 0001:0003b650       ?RedirectClickCCBTNEvent@ZoomNodeMeetingConfigCtrlWrap@@SAXABV?$FunctionCallbackInfo@VValue@v8@@@v8@@@Z 1003c650 f   zoom_node_meeting_config_ctrl.obj
 0001:0003b780       ?RedirectClickAudioBTNEvent@ZoomNodeMeetingConfigCtrlWrap@@SAXABV?$FunctionCallbackInfo@VValue@v8@@@v8@@@Z 1003c780 f   zoom_node_meeting_config_ctrl.obj
 0001:0003b8b0       ?RedirectClickAudioMenuBTNEvent@ZoomNodeMeetingConfigCtrlWrap@@SAXABV?$FunctionCallbackInfo@VValue@v8@@@v8@@@Z 1003c8b0 f   zoom_node_meeting_config_ctrl.obj
 0001:0003b9e0       ?RedirectMeetingWarningMsg@ZoomNodeMeetingConfigCtrlWrap@@SAXABV?$FunctionCallbackInfo@VValue@v8@@@v8@@@Z 1003c9e0 f   zoom_node_meeting_config_ctrl.obj
 0001:0003bb60       ?EnableToolTipsShow@ZoomNodeMeetingConfigCtrlWrap@@SAXABV?$FunctionCallbackInfo@VValue@v8@@@v8@@@Z 1003cb60 f   zoom_node_meeting_config_ctrl.obj
 0001:0003bc90       ?EnableAirplayInstructionWindow@ZoomNodeMeetingConfigCtrlWrap@@SAXABV?$FunctionCallbackInfo@VValue@v8@@@v8@@@Z 1003cc90 f   zoom_node_meeting_config_ctrl.obj
 0001:0003bdc0       ?EnableClaimHostFeature@ZoomNodeMeetingConfigCtrlWrap@@SAXABV?$FunctionCallbackInfo@VValue@v8@@@v8@@@Z 1003cdc0 f   zoom_node_meeting_config_ctrl.obj
 0001:0003bef0       ?EnableAutoHideJoinAudioDialog@ZoomNodeMeetingConfigCtrlWrap@@SAXABV?$FunctionCallbackInfo@VValue@v8@@@v8@@@Z 1003cef0 f   zoom_node_meeting_config_ctrl.obj
 0001:0003c020       ?AlwaysShowIconOnTaskBar@ZoomNodeMeetingConfigCtrlWrap@@SAXABV?$FunctionCallbackInfo@VValue@v8@@@v8@@@Z 1003d020 f   zoom_node_meeting_config_ctrl.obj
 0001:0003c150       ?DisableSplitScreenModeUIElements@ZoomNodeMeetingConfigCtrlWrap@@SAXABV?$FunctionCallbackInfo@VValue@v8@@@v8@@@Z 1003d150 f   zoom_node_meeting_config_ctrl.obj
 0001:0003c280       ?SetShowAudioUseComputerSoundChkbox@ZoomNodeMeetingConfigCtrlWrap@@SAXABV?$FunctionCallbackInfo@VValue@v8@@@v8@@@Z 1003d280 f   zoom_node_meeting_config_ctrl.obj
 0001:0003c3b0       ?SetShowCallInTab@ZoomNodeMeetingConfigCtrlWrap@@SAXABV?$FunctionCallbackInfo@VValue@v8@@@v8@@@Z 1003d3b0 f   zoom_node_meeting_config_ctrl.obj
 0001:0003c4e0       ?SetShowCallMeTab@ZoomNodeMeetingConfigCtrlWrap@@SAXABV?$FunctionCallbackInfo@VValue@v8@@@v8@@@Z 1003d4e0 f   zoom_node_meeting_config_ctrl.obj
 0001:0003c610       ?DisableTopMostAttr4SettingDialog@ZoomNodeMeetingConfigCtrlWrap@@SAXABV?$FunctionCallbackInfo@VValue@v8@@@v8@@@Z 1003d610 f   zoom_node_meeting_config_ctrl.obj
 0001:0003c740       ?EnableGrabShareWithoutReminder@ZoomNodeMeetingConfigCtrlWrap@@SAXABV?$FunctionCallbackInfo@VValue@v8@@@v8@@@Z 1003d740 f   zoom_node_meeting_config_ctrl.obj
 0001:0003c870       ?EnableShowShareSwitchMultiToSingleConfirmDlg@ZoomNodeMeetingConfigCtrlWrap@@SAXABV?$FunctionCallbackInfo@VValue@v8@@@v8@@@Z 1003d870 f   zoom_node_meeting_config_ctrl.obj
 0001:0003c9a0       ?DisableFreeMeetingRemainTimeNotify@ZoomNodeMeetingConfigCtrlWrap@@SAXABV?$FunctionCallbackInfo@VValue@v8@@@v8@@@Z 1003d9a0 f   zoom_node_meeting_config_ctrl.obj
 0001:0003cad0       ?HideChatItemOnMeetingUI@ZoomNodeMeetingConfigCtrlWrap@@SAXABV?$FunctionCallbackInfo@VValue@v8@@@v8@@@Z 1003dad0 f   zoom_node_meeting_config_ctrl.obj
 0001:0003cc00       ?HideRecordItemOnMeetingUI@ZoomNodeMeetingConfigCtrlWrap@@SAXABV?$FunctionCallbackInfo@VValue@v8@@@v8@@@Z 1003dc00 f   zoom_node_meeting_config_ctrl.obj
 0001:0003cd30       ?HideUpgradeFreeMeetingButton@ZoomNodeMeetingConfigCtrlWrap@@SAXABV?$FunctionCallbackInfo@VValue@v8@@@v8@@@Z 1003dd30 f   zoom_node_meeting_config_ctrl.obj
 0001:0003ce60       ?SetShowInviteDlgTabPage@ZoomNodeMeetingConfigCtrlWrap@@SAXABV?$FunctionCallbackInfo@VValue@v8@@@v8@@@Z 1003de60 f   zoom_node_meeting_config_ctrl.obj
 0001:0003cfe0       ?SetShowH323SubTabPage@ZoomNodeMeetingConfigCtrlWrap@@SAXABV?$FunctionCallbackInfo@VValue@v8@@@v8@@@Z 1003dfe0 f   zoom_node_meeting_config_ctrl.obj
 0001:0003d160       ?HideUpgradeWarningMsgForFreeUserWhenSchedule@ZoomNodeMeetingConfigCtrlWrap@@SAXABV?$FunctionCallbackInfo@VValue@v8@@@v8@@@Z 1003e160 f   zoom_node_meeting_config_ctrl.obj
 0001:0003d290       ?HideSwitchCameraButton@ZoomNodeMeetingConfigCtrlWrap@@SAXABV?$FunctionCallbackInfo@VValue@v8@@@v8@@@Z 1003e290 f   zoom_node_meeting_config_ctrl.obj
 0001:0003d3c0       ?HideCopyUrlOnInviteWindow@ZoomNodeMeetingConfigCtrlWrap@@SAXABV?$FunctionCallbackInfo@VValue@v8@@@v8@@@Z 1003e3c0 f   zoom_node_meeting_config_ctrl.obj
 0001:0003d4f0       ?HideCopyInvitationOnInviteWindow@ZoomNodeMeetingConfigCtrlWrap@@SAXABV?$FunctionCallbackInfo@VValue@v8@@@v8@@@Z 1003e4f0 f   zoom_node_meeting_config_ctrl.obj
 0001:0003d620       ?HideKeypadButtonOnMeetingWindow@ZoomNodeMeetingConfigCtrlWrap@@SAXABV?$FunctionCallbackInfo@VValue@v8@@@v8@@@Z 1003e620 f   zoom_node_meeting_config_ctrl.obj
 0001:0003d750       ?HideRemoteControlOnMeetingUI@ZoomNodeMeetingConfigCtrlWrap@@SAXABV?$FunctionCallbackInfo@VValue@v8@@@v8@@@Z 1003e750 f   zoom_node_meeting_config_ctrl.obj
 0001:0003d880       ?HideQAOnMeetingUI@ZoomNodeMeetingConfigCtrlWrap@@SAXABV?$FunctionCallbackInfo@VValue@v8@@@v8@@@Z 1003e880 f   zoom_node_meeting_config_ctrl.obj
 0001:0003d9b0       ?HidePollOnMeetingUI@ZoomNodeMeetingConfigCtrlWrap@@SAXABV?$FunctionCallbackInfo@VValue@v8@@@v8@@@Z 1003e9b0 f   zoom_node_meeting_config_ctrl.obj
 0001:0003dae0       ?EnableInputMeetingPasswordDlg@ZoomNodeMeetingConfigCtrlWrap@@SAXABV?$FunctionCallbackInfo@VValue@v8@@@v8@@@Z 1003eae0 f   zoom_node_meeting_config_ctrl.obj
 0001:0003dc10       ?EnableInputMeetingScreenNameDlg@ZoomNodeMeetingConfigCtrlWrap@@SAXABV?$FunctionCallbackInfo@VValue@v8@@@v8@@@Z 1003ec10 f   zoom_node_meeting_config_ctrl.obj
 0001:0003dd40       ?RedirectWebinarNeedRegister@ZoomNodeMeetingConfigCtrlWrap@@SAXABV?$FunctionCallbackInfo@VValue@v8@@@v8@@@Z 1003ed40 f   zoom_node_meeting_config_ctrl.obj
 0001:0003de70       ?RedirectEndOtherMeeting@ZoomNodeMeetingConfigCtrlWrap@@SAXABV?$FunctionCallbackInfo@VValue@v8@@@v8@@@Z 1003ee70 f   zoom_node_meeting_config_ctrl.obj
 0001:0003dfa0       ?EnableForceAutoStartMyVideoWhenJoinMeeting@ZoomNodeMeetingConfigCtrlWrap@@SAXABV?$FunctionCallbackInfo@VValue@v8@@@v8@@@Z 1003efa0 f   zoom_node_meeting_config_ctrl.obj
 0001:0003e0d0       ?EnableForceAutoStopMyVideoWhenJoinMeeting@ZoomNodeMeetingConfigCtrlWrap@@SAXABV?$FunctionCallbackInfo@VValue@v8@@@v8@@@Z 1003f0d0 f   zoom_node_meeting_config_ctrl.obj
 0001:0003e200       ?DisableAutoShowSelectJoinAudioDlgWhenJoinMeeting@ZoomNodeMeetingConfigCtrlWrap@@SAXABV?$FunctionCallbackInfo@VValue@v8@@@v8@@@Z 1003f200 f   zoom_node_meeting_config_ctrl.obj
 0001:0003e330       ?DisableShowJoinMeetingWnd@ZoomNodeMeetingConfigCtrlWrap@@SAXABV?$FunctionCallbackInfo@VValue@v8@@@v8@@@Z 1003f330 f   zoom_node_meeting_config_ctrl.obj
 0001:0003e460       ?DisableRemoteCtrlCopyPasteFeature@ZoomNodeMeetingConfigCtrlWrap@@SAXABV?$FunctionCallbackInfo@VValue@v8@@@v8@@@Z 1003f460 f   zoom_node_meeting_config_ctrl.obj
 0001:0003e590       ?DisableToolbarInviteButtonClickOriginAction@ZoomNodeMeetingConfigCtrlWrap@@SAXABV?$FunctionCallbackInfo@VValue@v8@@@v8@@@Z 1003f590 f   zoom_node_meeting_config_ctrl.obj
 0001:0003e6b0       ?SetShowVideoOptimizeChkbox@ZoomNodeMeetingConfigCtrlWrap@@SAXABV?$FunctionCallbackInfo@VValue@v8@@@v8@@@Z 1003f6b0 f   zoom_node_meeting_config_ctrl.obj
 0001:0003e7e0       ?GetRequiredInfoType@ZoomNodeMeetingConfigCtrlWrap@@SAXABV?$FunctionCallbackInfo@VValue@v8@@@v8@@@Z 1003f7e0 f   zoom_node_meeting_config_ctrl.obj
 0001:0003e820       ?InputMeetingPasswordAndScreenName@ZoomNodeMeetingConfigCtrlWrap@@SAXABV?$FunctionCallbackInfo@VValue@v8@@@v8@@@Z 1003f820 f   zoom_node_meeting_config_ctrl.obj
 0001:0003e820       ?InputMeetingIDAndScreenName@ZoomNodeMeetingConfigCtrlWrap@@SAXABV?$FunctionCallbackInfo@VValue@v8@@@v8@@@Z 1003f820 f   zoom_node_meeting_config_ctrl.obj
 0001:0003ea30       ?InputMeetingScreenName@ZoomNodeMeetingConfigCtrlWrap@@SAXABV?$FunctionCallbackInfo@VValue@v8@@@v8@@@Z 1003fa30 f   zoom_node_meeting_config_ctrl.obj
 0001:0003ebc0       ?MeetingPasswordAndScreenNameHandler_Cancel@ZoomNodeMeetingConfigCtrlWrap@@SAXABV?$FunctionCallbackInfo@VValue@v8@@@v8@@@Z 1003fbc0 f   zoom_node_meeting_config_ctrl.obj
 0001:0003ec00       ?GetWebinarNeedRegisterType@ZoomNodeMeetingConfigCtrlWrap@@SAXABV?$FunctionCallbackInfo@VValue@v8@@@v8@@@Z 1003fc00 f   zoom_node_meeting_config_ctrl.obj
 0001:0003ec40       ?GetWebinarRegisterUrl@ZoomNodeMeetingConfigCtrlWrap@@SAXABV?$FunctionCallbackInfo@VValue@v8@@@v8@@@Z 1003fc40 f   zoom_node_meeting_config_ctrl.obj
 0001:0003ed60       ?CancelRegisterWebinarByEmail@ZoomNodeMeetingConfigCtrlWrap@@SAXABV?$FunctionCallbackInfo@VValue@v8@@@v8@@@Z 1003fd60 f   zoom_node_meeting_config_ctrl.obj
 0001:0003ed60       ?ReleaseRegisterWebinarByUrl@ZoomNodeMeetingConfigCtrlWrap@@SAXABV?$FunctionCallbackInfo@VValue@v8@@@v8@@@Z 1003fd60 f   zoom_node_meeting_config_ctrl.obj
 0001:0003eda0       ?InputWebinarRegisterEmailAndScreenName@ZoomNodeMeetingConfigCtrlWrap@@SAXABV?$FunctionCallbackInfo@VValue@v8@@@v8@@@Z 1003fda0 f   zoom_node_meeting_config_ctrl.obj
 0001:0003efc0       ?SetInputMeetingPasswordAndScreenNameNotificationCB@ZoomNodeMeetingConfigCtrlWrap@@SAXABV?$FunctionCallbackInfo@VValue@v8@@@v8@@@Z 1003ffc0 f   zoom_node_meeting_config_ctrl.obj
 0001:0003f160       ?SetAirPlayInstructionWndNotificationCB@ZoomNodeMeetingConfigCtrlWrap@@SAXABV?$FunctionCallbackInfo@VValue@v8@@@v8@@@Z 10040160 f   zoom_node_meeting_config_ctrl.obj
 0001:0003f300       ?SetonWebinarNeedRegisterNotificationCB@ZoomNodeMeetingConfigCtrlWrap@@SAXABV?$FunctionCallbackInfo@VValue@v8@@@v8@@@Z 10040300 f   zoom_node_meeting_config_ctrl.obj
 0001:0003f4a0       ?SetonEndOtherMeetingToJoinMeetingNotificationCB@ZoomNodeMeetingConfigCtrlWrap@@SAXABV?$FunctionCallbackInfo@VValue@v8@@@v8@@@Z 100404a0 f   zoom_node_meeting_config_ctrl.obj
 0001:0003f640       ?SetonFreeMeetingRemainTimeCB@ZoomNodeMeetingConfigCtrlWrap@@SAXABV?$FunctionCallbackInfo@VValue@v8@@@v8@@@Z 10040640 f   zoom_node_meeting_config_ctrl.obj
 0001:0003f7e0       ?SetonFreeMeetingRemainTimeStopCountDownCB@ZoomNodeMeetingConfigCtrlWrap@@SAXABV?$FunctionCallbackInfo@VValue@v8@@@v8@@@Z 100407e0 f   zoom_node_meeting_config_ctrl.obj
 0001:0003f980       ??0ZoomNodeSettingVideoCtrlWrap@@AAE@XZ 10040980 f   zoom_node_setting_video_ctrl.obj
 0001:0003fa00       ??_EZoomNodeSettingVideoCtrlWrap@@EAEPAXI@Z 10040a00 f i * CIL library *:* CIL module *
 0001:0003fa00       ??_GZoomNodeSettingVideoCtrlWrap@@EAEPAXI@Z 10040a00 f i zoom_node_setting_video_ctrl.obj
 0001:0003fa60       ?SelectVideoCamera@ZoomNodeSettingVideoCtrlWrap@@SAXABV?$FunctionCallbackInfo@VValue@v8@@@v8@@@Z 10040a60 f   zoom_node_setting_video_ctrl.obj
 0001:0003fbf0       ?IsMirrorEffectEnabled@ZoomNodeSettingVideoCtrlWrap@@SAXABV?$FunctionCallbackInfo@VValue@v8@@@v8@@@Z 10040bf0 f   zoom_node_setting_video_ctrl.obj
 0001:0003fc20       ?GetCameraList@ZoomNodeSettingVideoCtrlWrap@@SAXABV?$FunctionCallbackInfo@VValue@v8@@@v8@@@Z 10040c20 f   zoom_node_setting_video_ctrl.obj
 0001:00040060       ?EnableVideoMirrorEffect@ZoomNodeSettingVideoCtrlWrap@@SAXABV?$FunctionCallbackInfo@VValue@v8@@@v8@@@Z 10041060 f   zoom_node_setting_video_ctrl.obj
 0001:00040190       ?EnableFaceBeautyEffect@ZoomNodeSettingVideoCtrlWrap@@SAXABV?$FunctionCallbackInfo@VValue@v8@@@v8@@@Z 10041190 f   zoom_node_setting_video_ctrl.obj
 0001:000402c0       ?IsFaceBeautyEffectEnabled@ZoomNodeSettingVideoCtrlWrap@@SAXABV?$FunctionCallbackInfo@VValue@v8@@@v8@@@Z 100412c0 f   zoom_node_setting_video_ctrl.obj
 0001:000402f0       ?SetComputerCamDeviceChangedCB@ZoomNodeSettingVideoCtrlWrap@@SAXABV?$FunctionCallbackInfo@VValue@v8@@@v8@@@Z 100412f0 f   zoom_node_setting_video_ctrl.obj
 0001:00040490       ?SetDefaultCamDeviceChangedCB@ZoomNodeSettingVideoCtrlWrap@@SAXABV?$FunctionCallbackInfo@VValue@v8@@@v8@@@Z 10041490 f   zoom_node_setting_video_ctrl.obj
 0001:00040630       ?EnableHDVideo@ZoomNodeSettingVideoCtrlWrap@@SAXABV?$FunctionCallbackInfo@VValue@v8@@@v8@@@Z 10041630 f   zoom_node_setting_video_ctrl.obj
 0001:00040760       ?IsHDVideoEnabled@ZoomNodeSettingVideoCtrlWrap@@SAXABV?$FunctionCallbackInfo@VValue@v8@@@v8@@@Z 10041760 f   zoom_node_setting_video_ctrl.obj
 0001:00040790       ?EnableAlwaysShowNameOnVideo@ZoomNodeSettingVideoCtrlWrap@@SAXABV?$FunctionCallbackInfo@VValue@v8@@@v8@@@Z 10041790 f   zoom_node_setting_video_ctrl.obj
 0001:000408c0       ?IsAlwaysShowNameOnVideoEnabled@ZoomNodeSettingVideoCtrlWrap@@SAXABV?$FunctionCallbackInfo@VValue@v8@@@v8@@@Z 100418c0 f   zoom_node_setting_video_ctrl.obj
 0001:000408f0       ?EnableVideoPreviewDialog@ZoomNodeSettingVideoCtrlWrap@@SAXABV?$FunctionCallbackInfo@VValue@v8@@@v8@@@Z 100418f0 f   zoom_node_setting_video_ctrl.obj
 0001:00040a20       ?IsVideoPreviewDialogEnabled@ZoomNodeSettingVideoCtrlWrap@@SAXABV?$FunctionCallbackInfo@VValue@v8@@@v8@@@Z 10041a20 f   zoom_node_setting_video_ctrl.obj
 0001:00040a50       ?EnableAutoTurnOffVideoWhenJoinMeeting@ZoomNodeSettingVideoCtrlWrap@@SAXABV?$FunctionCallbackInfo@VValue@v8@@@v8@@@Z 10041a50 f   zoom_node_setting_video_ctrl.obj
 0001:00040b80       ?IsAutoTurnOffVideoWhenJoinMeetingEnabled@ZoomNodeSettingVideoCtrlWrap@@SAXABV?$FunctionCallbackInfo@VValue@v8@@@v8@@@Z 10041b80 f   zoom_node_setting_video_ctrl.obj
 0001:00040bb0       ?EnableAlwaysUse16v9@ZoomNodeSettingVideoCtrlWrap@@SAXABV?$FunctionCallbackInfo@VValue@v8@@@v8@@@Z 10041bb0 f   zoom_node_setting_video_ctrl.obj
 0001:00040ce0       ?IsAlwaysUse16v9@ZoomNodeSettingVideoCtrlWrap@@SAXABV?$FunctionCallbackInfo@VValue@v8@@@v8@@@Z 10041ce0 f   zoom_node_setting_video_ctrl.obj
 0001:00040d10       ?EnableSpotlightSelf@ZoomNodeSettingVideoCtrlWrap@@SAXABV?$FunctionCallbackInfo@VValue@v8@@@v8@@@Z 10041d10 f   zoom_node_setting_video_ctrl.obj
 0001:00040e40       ?IsSpotlightSelfEnabled@ZoomNodeSettingVideoCtrlWrap@@SAXABV?$FunctionCallbackInfo@VValue@v8@@@v8@@@Z 10041e40 f   zoom_node_setting_video_ctrl.obj
 0001:00040e70       ?EnableHardwareEncode@ZoomNodeSettingVideoCtrlWrap@@SAXABV?$FunctionCallbackInfo@VValue@v8@@@v8@@@Z 10041e70 f   zoom_node_setting_video_ctrl.obj
 0001:00040fa0       ?IsHardwareEncodeEnabled@ZoomNodeSettingVideoCtrlWrap@@SAXABV?$FunctionCallbackInfo@VValue@v8@@@v8@@@Z 10041fa0 f   zoom_node_setting_video_ctrl.obj
 0001:00040fd0       ?Enable49VideoesInGallaryView@ZoomNodeSettingVideoCtrlWrap@@SAXABV?$FunctionCallbackInfo@VValue@v8@@@v8@@@Z 10041fd0 f   zoom_node_setting_video_ctrl.obj
 0001:00041100       ?Is49VideoesInGallaryViewEnabled@ZoomNodeSettingVideoCtrlWrap@@SAXABV?$FunctionCallbackInfo@VValue@v8@@@v8@@@Z 10042100 f   zoom_node_setting_video_ctrl.obj
 0001:00041130       ?EnableHideNoVideoUsersOnWallView@ZoomNodeSettingVideoCtrlWrap@@SAXABV?$FunctionCallbackInfo@VValue@v8@@@v8@@@Z 10042130 f   zoom_node_setting_video_ctrl.obj
 0001:00041260       ?IsHideNoVideoUsersOnWallViewEnabled@ZoomNodeSettingVideoCtrlWrap@@SAXABV?$FunctionCallbackInfo@VValue@v8@@@v8@@@Z 10042260 f   zoom_node_setting_video_ctrl.obj
 0001:00041290       ??0ZoomNodeSettingAudioCtrlWrap@@AAE@XZ 10042290 f   zoom_node_setting_audio_ctrl.obj
 0001:00041310       ??_GZoomNodeSettingAudioCtrlWrap@@EAEPAXI@Z 10042310 f i zoom_node_setting_audio_ctrl.obj
 0001:00041310       ??_EZoomNodeSettingAudioCtrlWrap@@EAEPAXI@Z 10042310 f i * CIL library *:* CIL module *
 0001:00041370       ?SelectMic@ZoomNodeSettingAudioCtrlWrap@@SAXABV?$FunctionCallbackInfo@VValue@v8@@@v8@@@Z 10042370 f   zoom_node_setting_audio_ctrl.obj
 0001:00041590       ?GetMicList@ZoomNodeSettingAudioCtrlWrap@@SAXABV?$FunctionCallbackInfo@VValue@v8@@@v8@@@Z 10042590 f   zoom_node_setting_audio_ctrl.obj
 0001:00041970       ?SelectSpeaker@ZoomNodeSettingAudioCtrlWrap@@SAXABV?$FunctionCallbackInfo@VValue@v8@@@v8@@@Z 10042970 f   zoom_node_setting_audio_ctrl.obj
 0001:00041b90       ?GetSpeakerList@ZoomNodeSettingAudioCtrlWrap@@SAXABV?$FunctionCallbackInfo@VValue@v8@@@v8@@@Z 10042b90 f   zoom_node_setting_audio_ctrl.obj
 0001:00041f70       ?IsAutoJoinAudioEnabled@ZoomNodeSettingAudioCtrlWrap@@SAXABV?$FunctionCallbackInfo@VValue@v8@@@v8@@@Z 10042f70 f   zoom_node_setting_audio_ctrl.obj
 0001:00041fa0       ?IsAutoAdjustMicEnabled@ZoomNodeSettingAudioCtrlWrap@@SAXABV?$FunctionCallbackInfo@VValue@v8@@@v8@@@Z 10042fa0 f   zoom_node_setting_audio_ctrl.obj
 0001:00041fd0       ?EnableAutoJoinAudio@ZoomNodeSettingAudioCtrlWrap@@SAXABV?$FunctionCallbackInfo@VValue@v8@@@v8@@@Z 10042fd0 f   zoom_node_setting_audio_ctrl.obj
 0001:00042100       ?EnableAutoAdjustMic@ZoomNodeSettingAudioCtrlWrap@@SAXABV?$FunctionCallbackInfo@VValue@v8@@@v8@@@Z 10043100 f   zoom_node_setting_audio_ctrl.obj
 0001:00042230       ?SetComputerMicDeviceChangedCB@ZoomNodeSettingAudioCtrlWrap@@SAXABV?$FunctionCallbackInfo@VValue@v8@@@v8@@@Z 10043230 f   zoom_node_setting_audio_ctrl.obj
 0001:000423d0       ?SetComputerSpeakerDeviceChangedCB@ZoomNodeSettingAudioCtrlWrap@@SAXABV?$FunctionCallbackInfo@VValue@v8@@@v8@@@Z 100433d0 f   zoom_node_setting_audio_ctrl.obj
 0001:00042570       ?SetDefaultMicDeviceChangedCB@ZoomNodeSettingAudioCtrlWrap@@SAXABV?$FunctionCallbackInfo@VValue@v8@@@v8@@@Z 10043570 f   zoom_node_setting_audio_ctrl.obj
 0001:00042710       ?SetDefaultSpeakerDeviceChangedCB@ZoomNodeSettingAudioCtrlWrap@@SAXABV?$FunctionCallbackInfo@VValue@v8@@@v8@@@Z 10043710 f   zoom_node_setting_audio_ctrl.obj
 0001:000428b0       ?EnableStereoAudio@ZoomNodeSettingAudioCtrlWrap@@SAXABV?$FunctionCallbackInfo@VValue@v8@@@v8@@@Z 100438b0 f   zoom_node_setting_audio_ctrl.obj
 0001:000429e0       ?IsStereoAudioEnable@ZoomNodeSettingAudioCtrlWrap@@SAXABV?$FunctionCallbackInfo@VValue@v8@@@v8@@@Z 100439e0 f   zoom_node_setting_audio_ctrl.obj
 0001:00042a10       ?EnableMicOriginalInput@ZoomNodeSettingAudioCtrlWrap@@SAXABV?$FunctionCallbackInfo@VValue@v8@@@v8@@@Z 10043a10 f   zoom_node_setting_audio_ctrl.obj
 0001:00042b40       ?IsMicOriginalInputEnable@ZoomNodeSettingAudioCtrlWrap@@SAXABV?$FunctionCallbackInfo@VValue@v8@@@v8@@@Z 10043b40 f   zoom_node_setting_audio_ctrl.obj
 0001:00042b70       ?EnableHoldSpaceKeyToSpeak@ZoomNodeSettingAudioCtrlWrap@@SAXABV?$FunctionCallbackInfo@VValue@v8@@@v8@@@Z 10043b70 f   zoom_node_setting_audio_ctrl.obj
 0001:00042ca0       ?IsHoldSpaceKeyToSpeakEnabled@ZoomNodeSettingAudioCtrlWrap@@SAXABV?$FunctionCallbackInfo@VValue@v8@@@v8@@@Z 10043ca0 f   zoom_node_setting_audio_ctrl.obj
 0001:00042cd0       ?EnableAlwaysMuteMicWhenJoinVoip@ZoomNodeSettingAudioCtrlWrap@@SAXABV?$FunctionCallbackInfo@VValue@v8@@@v8@@@Z 10043cd0 f   zoom_node_setting_audio_ctrl.obj
 0001:00042e00       ?IsAlwaysMuteMicWhenJoinVoipEnabled@ZoomNodeSettingAudioCtrlWrap@@SAXABV?$FunctionCallbackInfo@VValue@v8@@@v8@@@Z 10043e00 f   zoom_node_setting_audio_ctrl.obj
 0001:00042e30       ?EnableSuppressAudioNotify@ZoomNodeSettingAudioCtrlWrap@@SAXABV?$FunctionCallbackInfo@VValue@v8@@@v8@@@Z 10043e30 f   zoom_node_setting_audio_ctrl.obj
 0001:00042f60       ?IsSuppressAudioNotifyEnabled@ZoomNodeSettingAudioCtrlWrap@@SAXABV?$FunctionCallbackInfo@VValue@v8@@@v8@@@Z 10043f60 f   zoom_node_setting_audio_ctrl.obj
 0001:00042fa0       ?EnableEchoCancellation@ZoomNodeSettingAudioCtrlWrap@@SAXABV?$FunctionCallbackInfo@VValue@v8@@@v8@@@Z 10043fa0 f   zoom_node_setting_audio_ctrl.obj
 0001:000430d0       ?IsEchoCancellationEnabled@ZoomNodeSettingAudioCtrlWrap@@SAXABV?$FunctionCallbackInfo@VValue@v8@@@v8@@@Z 100440d0 f   zoom_node_setting_audio_ctrl.obj
 0001:00043100       ?SetMicVol@ZoomNodeSettingAudioCtrlWrap@@SAXABV?$FunctionCallbackInfo@VValue@v8@@@v8@@@Z 10044100 f   zoom_node_setting_audio_ctrl.obj
 0001:00043220       ?GetMicVol@ZoomNodeSettingAudioCtrlWrap@@SAXABV?$FunctionCallbackInfo@VValue@v8@@@v8@@@Z 10044220 f   zoom_node_setting_audio_ctrl.obj
 0001:00043430       ?SetSpeakerVol@ZoomNodeSettingAudioCtrlWrap@@SAXABV?$FunctionCallbackInfo@VValue@v8@@@v8@@@Z 10044430 f   zoom_node_setting_audio_ctrl.obj
 0001:00043550       ?GetSpeakerVol@ZoomNodeSettingAudioCtrlWrap@@SAXABV?$FunctionCallbackInfo@VValue@v8@@@v8@@@Z 10044550 f   zoom_node_setting_audio_ctrl.obj
 0001:00043760       ?EnableDualScreenMode@ZoomNodeSettingGeneralCtrlWrap@@SAXABV?$FunctionCallbackInfo@VValue@v8@@@v8@@@Z 10044760 f   zoom_node_setting_general_ctrl.obj
 0001:00043890       ?TurnOffAeroModeInSharing@ZoomNodeSettingGeneralCtrlWrap@@SAXABV?$FunctionCallbackInfo@VValue@v8@@@v8@@@Z 10044890 f   zoom_node_setting_general_ctrl.obj
 0001:000439c0       ?EnableAutoFitToWindowWhenViewSharing@ZoomNodeSettingGeneralCtrlWrap@@SAXABV?$FunctionCallbackInfo@VValue@v8@@@v8@@@Z 100449c0 f   zoom_node_setting_general_ctrl.obj
 0001:00043af0       ?EnableAutoFullScreenVideoWhenJoinMeeting@ZoomNodeSettingGeneralCtrlWrap@@SAXABV?$FunctionCallbackInfo@VValue@v8@@@v8@@@Z 10044af0 f   zoom_node_setting_general_ctrl.obj
 0001:00043c20       ?EnableSplitScreenMode@ZoomNodeSettingGeneralCtrlWrap@@SAXABV?$FunctionCallbackInfo@VValue@v8@@@v8@@@Z 10044c20 f   zoom_node_setting_general_ctrl.obj
 0001:00043d50       ?IsDualScreenModeEnabled@ZoomNodeSettingGeneralCtrlWrap@@SAXABV?$FunctionCallbackInfo@VValue@v8@@@v8@@@Z 10044d50 f   zoom_node_setting_general_ctrl.obj
 0001:00043d80       ?IsAeroModeInSharingTurnOff@ZoomNodeSettingGeneralCtrlWrap@@SAXABV?$FunctionCallbackInfo@VValue@v8@@@v8@@@Z 10044d80 f   zoom_node_setting_general_ctrl.obj
 0001:00043db0       ?IsAutoFitToWindowWhenViewSharingEnabled@ZoomNodeSettingGeneralCtrlWrap@@SAXABV?$FunctionCallbackInfo@VValue@v8@@@v8@@@Z 10044db0 f   zoom_node_setting_general_ctrl.obj
 0001:00043de0       ?IsAutoFullScreenVideoWhenJoinMeetingEnabled@ZoomNodeSettingGeneralCtrlWrap@@SAXABV?$FunctionCallbackInfo@VValue@v8@@@v8@@@Z 10044de0 f   zoom_node_setting_general_ctrl.obj
 0001:00043e10       ?IsSplitScreenModeEnabled@ZoomNodeSettingGeneralCtrlWrap@@SAXABV?$FunctionCallbackInfo@VValue@v8@@@v8@@@Z 10044e10 f   zoom_node_setting_general_ctrl.obj
 0001:00043e40       ?EnableAutoFullScreenVideoWhenViewShare@ZoomNodeSettingGeneralCtrlWrap@@SAXABV?$FunctionCallbackInfo@VValue@v8@@@v8@@@Z 10044e40 f   zoom_node_setting_general_ctrl.obj
 0001:00043f70       ?IsAutoFullScreenVideoWhenViewShareEnabled@ZoomNodeSettingGeneralCtrlWrap@@SAXABV?$FunctionCallbackInfo@VValue@v8@@@v8@@@Z 10044f70 f   zoom_node_setting_general_ctrl.obj
 0001:00043fa0       ?EnableDisplayReminderWindowWhenExit@ZoomNodeSettingGeneralCtrlWrap@@SAXABV?$FunctionCallbackInfo@VValue@v8@@@v8@@@Z 10044fa0 f   zoom_node_setting_general_ctrl.obj
 0001:000440d0       ?IsDisplayReminderWindowWhenExitEnabled@ZoomNodeSettingGeneralCtrlWrap@@SAXABV?$FunctionCallbackInfo@VValue@v8@@@v8@@@Z 100450d0 f   zoom_node_setting_general_ctrl.obj
 0001:00044100       ?EnableShowMyMeetingElapseTime@ZoomNodeSettingGeneralCtrlWrap@@SAXABV?$FunctionCallbackInfo@VValue@v8@@@v8@@@Z 10045100 f   zoom_node_setting_general_ctrl.obj
 0001:00044230       ?IsShowMyMeetingElapseTimeEnabled@ZoomNodeSettingGeneralCtrlWrap@@SAXABV?$FunctionCallbackInfo@VValue@v8@@@v8@@@Z 10045230 f   zoom_node_setting_general_ctrl.obj
 0001:00044260       ?IsCurrentOSSupportAccelerateGPUWhenShare@ZoomNodeSettingGeneralCtrlWrap@@SAXABV?$FunctionCallbackInfo@VValue@v8@@@v8@@@Z 10045260 f   zoom_node_setting_general_ctrl.obj
 0001:00044290       ?EnableAccelerateGPUWhenShare@ZoomNodeSettingGeneralCtrlWrap@@SAXABV?$FunctionCallbackInfo@VValue@v8@@@v8@@@Z 10045290 f   zoom_node_setting_general_ctrl.obj
 0001:000443c0       ?IsAccelerateGPUWhenShareEnabled@ZoomNodeSettingGeneralCtrlWrap@@SAXABV?$FunctionCallbackInfo@VValue@v8@@@v8@@@Z 100453c0 f   zoom_node_setting_general_ctrl.obj
 0001:000445c0       ?EnableRemoteControlAllApplications@ZoomNodeSettingGeneralCtrlWrap@@SAXABV?$FunctionCallbackInfo@VValue@v8@@@v8@@@Z 100455c0 f   zoom_node_setting_general_ctrl.obj
 0001:000446f0       ?IsRemoteControlAllApplicationsEnabled@ZoomNodeSettingGeneralCtrlWrap@@SAXABV?$FunctionCallbackInfo@VValue@v8@@@v8@@@Z 100456f0 f   zoom_node_setting_general_ctrl.obj
 0001:00044720       ?DisableAdvancedFeatures4GeneralSetting@ZoomNodeSettingUIStrategyCtrlWrap@@SAXABV?$FunctionCallbackInfo@VValue@v8@@@v8@@@Z 10045720 f   zoom_node_setting_ui_strategy_ctrl.obj
 0001:00044850       ?DisableAccountSettingTabPage@ZoomNodeSettingUIStrategyCtrlWrap@@SAXABV?$FunctionCallbackInfo@VValue@v8@@@v8@@@Z 10045850 f   zoom_node_setting_ui_strategy_ctrl.obj
 0001:00044980       ?ConfSettingDialogShownTabPage@ZoomNodeSettingUIStrategyCtrlWrap@@SAXABV?$FunctionCallbackInfo@VValue@v8@@@v8@@@Z 10045980 f   zoom_node_setting_ui_strategy_ctrl.obj
 0001:00044a90       ?QueryOverallStatisticInfo@ZoomNodeSettingStatisticCtrlWrap@@SAXABV?$FunctionCallbackInfo@VValue@v8@@@v8@@@Z 10045a90 f   zoom_node_setting_statistic_ctrl.obj
 0001:00044cf0       ?QueryAudioStatisticInfo@ZoomNodeSettingStatisticCtrlWrap@@SAXABV?$FunctionCallbackInfo@VValue@v8@@@v8@@@Z 10045cf0 f   zoom_node_setting_statistic_ctrl.obj
 0001:00045090       ?QueryVideoStatisticInfo@ZoomNodeSettingStatisticCtrlWrap@@SAXABV?$FunctionCallbackInfo@VValue@v8@@@v8@@@Z 10046090 f   zoom_node_setting_statistic_ctrl.obj
 0001:000455b0       ?QueryShareStatisticInfo@ZoomNodeSettingStatisticCtrlWrap@@SAXABV?$FunctionCallbackInfo@VValue@v8@@@v8@@@Z 100465b0 f   zoom_node_setting_statistic_ctrl.obj
 0001:00045ad0       ?EnableAlwaysShowMeetingControls@ZoomNodeSettingAccessibilityCtrlWrap@@SAXABV?$FunctionCallbackInfo@VValue@v8@@@v8@@@Z 10046ad0 f   zoom_node_setting_accessibility_ctrl.obj
 0001:00045c00       ?IsAlwaysShowMeetingControlsEnable@ZoomNodeSettingAccessibilityCtrlWrap@@SAXABV?$FunctionCallbackInfo@VValue@v8@@@v8@@@Z 10046c00 f   zoom_node_setting_accessibility_ctrl.obj
 0001:00045e00       ??0ZoomNodeSettingRecordingCtrlWrap@@AAE@XZ 10046e00 f   zoom_node_setting_recording_ctrl.obj
 0001:00045e80       ??_GZoomNodeSettingRecordingCtrlWrap@@EAEPAXI@Z 10046e80 f i zoom_node_setting_recording_ctrl.obj
 0001:00045e80       ??_EZoomNodeSettingRecordingCtrlWrap@@EAEPAXI@Z 10046e80 f i * CIL library *:* CIL module *
 0001:00045ee0       ?SetRecordingPath@ZoomNodeSettingRecordingCtrlWrap@@SAXABV?$FunctionCallbackInfo@VValue@v8@@@v8@@@Z 10046ee0 f   zoom_node_setting_recording_ctrl.obj
 0001:00046070       ?GetRecordingPath@ZoomNodeSettingRecordingCtrlWrap@@SAXABV?$FunctionCallbackInfo@VValue@v8@@@v8@@@Z 10047070 f   zoom_node_setting_recording_ctrl.obj
 0001:00046140       ?SetonCloudRecordingStorageInfoCB@ZoomNodeSettingRecordingCtrlWrap@@SAXABV?$FunctionCallbackInfo@VValue@v8@@@v8@@@Z 10047140 f   zoom_node_setting_recording_ctrl.obj
 0001:000462e0       ?CanGetCloudRecordingStorageInfo@ZoomNodeSettingRecordingCtrlWrap@@SAXABV?$FunctionCallbackInfo@VValue@v8@@@v8@@@Z 100472e0 f   zoom_node_setting_recording_ctrl.obj
 0001:00046310       ?GetCloudRecordingStorageInfo@ZoomNodeSettingRecordingCtrlWrap@@SAXABV?$FunctionCallbackInfo@VValue@v8@@@v8@@@Z 10047310 f   zoom_node_setting_recording_ctrl.obj
 0001:00046350       ?GetRecordingManagementURL@ZoomNodeSettingRecordingCtrlWrap@@SAXABV?$FunctionCallbackInfo@VValue@v8@@@v8@@@Z 10047350 f   zoom_node_setting_recording_ctrl.obj
 0001:00046420       ?CanGetRecordingManagementURL@ZoomNodeSettingRecordingCtrlWrap@@SAXABV?$FunctionCallbackInfo@VValue@v8@@@v8@@@Z 10047420 f   zoom_node_setting_recording_ctrl.obj
 0001:00046620       ?EnableSelectRecordFileLocationAfterMeeting@ZoomNodeSettingRecordingCtrlWrap@@SAXABV?$FunctionCallbackInfo@VValue@v8@@@v8@@@Z 10047620 f   zoom_node_setting_recording_ctrl.obj
 0001:00046750       ?IsSelectRecordFileLocationAfterMeetingEnabled@ZoomNodeSettingRecordingCtrlWrap@@SAXABV?$FunctionCallbackInfo@VValue@v8@@@v8@@@Z 10047750 f   zoom_node_setting_recording_ctrl.obj
 0001:00046780       ?EnableMultiAudioStreamRecord@ZoomNodeSettingRecordingCtrlWrap@@SAXABV?$FunctionCallbackInfo@VValue@v8@@@v8@@@Z 10047780 f   zoom_node_setting_recording_ctrl.obj
 0001:000468b0       ?IsMultiAudioStreamRecordEnabled@ZoomNodeSettingRecordingCtrlWrap@@SAXABV?$FunctionCallbackInfo@VValue@v8@@@v8@@@Z 100478b0 f   zoom_node_setting_recording_ctrl.obj
 0001:000468e0       ?EnableAddTimestampWatermark@ZoomNodeSettingRecordingCtrlWrap@@SAXABV?$FunctionCallbackInfo@VValue@v8@@@v8@@@Z 100478e0 f   zoom_node_setting_recording_ctrl.obj
 0001:00046a10       ?IsAddTimestampWatermarkEnabled@ZoomNodeSettingRecordingCtrlWrap@@SAXABV?$FunctionCallbackInfo@VValue@v8@@@v8@@@Z 10047a10 f   zoom_node_setting_recording_ctrl.obj
 0001:00046a40       ?EnableOptimizeFor3rdPartyVideoEditor@ZoomNodeSettingRecordingCtrlWrap@@SAXABV?$FunctionCallbackInfo@VValue@v8@@@v8@@@Z 10047a40 f   zoom_node_setting_recording_ctrl.obj
 0001:00046b70       ?IsOptimizeFor3rdPartyVideoEditorEnabled@ZoomNodeSettingRecordingCtrlWrap@@SAXABV?$FunctionCallbackInfo@VValue@v8@@@v8@@@Z 10047b70 f   zoom_node_setting_recording_ctrl.obj
 0001:00046ba0       ?EnableShowVideoThumbnailWhenShare@ZoomNodeSettingRecordingCtrlWrap@@SAXABV?$FunctionCallbackInfo@VValue@v8@@@v8@@@Z 10047ba0 f   zoom_node_setting_recording_ctrl.obj
 0001:00046cd0       ?IsShowVideoThumbnailWhenShareEnabled@ZoomNodeSettingRecordingCtrlWrap@@SAXABV?$FunctionCallbackInfo@VValue@v8@@@v8@@@Z 10047cd0 f   zoom_node_setting_recording_ctrl.obj
 0001:00046d00       ?EnablePlaceVideoNextToShareInRecord@ZoomNodeSettingRecordingCtrlWrap@@SAXABV?$FunctionCallbackInfo@VValue@v8@@@v8@@@Z 10047d00 f   zoom_node_setting_recording_ctrl.obj
 0001:00046e30       ?IsPlaceVideoNextToShareInRecordEnabled@ZoomNodeSettingRecordingCtrlWrap@@SAXABV?$FunctionCallbackInfo@VValue@v8@@@v8@@@Z 10047e30 f   zoom_node_setting_recording_ctrl.obj
 0001:00046e60       ?AddCustomizedPictureResource@ZoomNodeCustomizedResourceWrap@@SAXABV?$FunctionCallbackInfo@VValue@v8@@@v8@@@Z 10047e60 f   zoom_node_customized_resource.obj
 0001:00047080       ?AddCustomizedStringResource@ZoomNodeCustomizedResourceWrap@@SAXABV?$FunctionCallbackInfo@VValue@v8@@@v8@@@Z 10048080 f   zoom_node_customized_resource.obj
 0001:00047270       ?AddCustomizedURLResource@ZoomNodeCustomizedResourceWrap@@SAXABV?$FunctionCallbackInfo@VValue@v8@@@v8@@@Z 10048270 f   zoom_node_customized_resource.obj
 0001:00047460       ??0ZoomNodeDirectShareHelperWrap@@AAE@XZ 10048460 f   zoom_node_direct_share_helper.obj
 0001:000474e0       ??_EZoomNodeDirectShareHelperWrap@@EAEPAXI@Z 100484e0 f i * CIL library *:* CIL module *
 0001:000474e0       ??_GZoomNodeDirectShareHelperWrap@@EAEPAXI@Z 100484e0 f i zoom_node_direct_share_helper.obj
 0001:00047540       ?CanStartDirectShare@ZoomNodeDirectShareHelperWrap@@SAXABV?$FunctionCallbackInfo@VValue@v8@@@v8@@@Z 10048540 f   zoom_node_direct_share_helper.obj
 0001:00047580       ?IsDirectShareInProgress@ZoomNodeDirectShareHelperWrap@@SAXABV?$FunctionCallbackInfo@VValue@v8@@@v8@@@Z 10048580 f   zoom_node_direct_share_helper.obj
 0001:000475b0       ?StartDirectShare@ZoomNodeDirectShareHelperWrap@@SAXABV?$FunctionCallbackInfo@VValue@v8@@@v8@@@Z 100485b0 f   zoom_node_direct_share_helper.obj
 0001:000475f0       ?StopDirectShare@ZoomNodeDirectShareHelperWrap@@SAXABV?$FunctionCallbackInfo@VValue@v8@@@v8@@@Z 100485f0 f   zoom_node_direct_share_helper.obj
 0001:00047630       ?SetDirectShareStatusUpdateCB@ZoomNodeDirectShareHelperWrap@@SAXABV?$FunctionCallbackInfo@VValue@v8@@@v8@@@Z 10048630 f   zoom_node_direct_share_helper.obj
 0001:000477d0       ?TryWithMeetingNumber@ZoomNodeDirectShareHelperWrap@@SAXABV?$FunctionCallbackInfo@VValue@v8@@@v8@@@Z 100487d0 f   zoom_node_direct_share_helper.obj
 0001:00047940       ?TryWithPairingCode@ZoomNodeDirectShareHelperWrap@@SAXABV?$FunctionCallbackInfo@VValue@v8@@@v8@@@Z 10048940 f   zoom_node_direct_share_helper.obj
 0001:00047ad0       ?Cancel@ZoomNodeDirectShareHelperWrap@@SAXABV?$FunctionCallbackInfo@VValue@v8@@@v8@@@Z 10048ad0 f   zoom_node_direct_share_helper.obj
 0001:00047b10       _sprintf                   10048b10 f i zoom_node_video_raw_data.obj
 0001:00047b50       ?_Mtx_lockX@std@@YAHPAU_Mtx_internal_imp_t@@@Z 10048b50 f i zoom_node_video_raw_data.obj
 0001:00047b70       ?_Mtx_unlockX@std@@YAHPAU_Mtx_internal_imp_t@@@Z 10048b70 f i zoom_node_video_raw_data.obj
 0001:00047b90       ??_EIMainThreadTask@@UAEPAXI@Z 10048b90 f i * CIL library *:* CIL module *
 0001:00047b90       ??_GIMainThreadTask@@UAEPAXI@Z 10048b90 f i zoom_node_video_raw_data.obj
 0001:00047bc0       ??0VideoRawDataHelper@@QAE@XZ 10048bc0 f i zoom_node_video_raw_data.obj
 0001:00047ca0       ??1VideoRawDataHelper@@UAE@XZ 10048ca0 f i zoom_node_video_raw_data.obj
 0001:00047dd0       ?onMessageRecvNotification@ShareRawDataHelper@@UAEXPAVUVIPCMessage@@@Z 10048dd0 f i zoom_node_share_raw_data.obj
 0001:00047dd0       ?onMessageRecvNotification@VideoRawDataHelper@@UAEXPAVUVIPCMessage@@@Z 10048dd0 f i zoom_node_video_raw_data.obj
 0001:00047e50       ?onVideoRawDataReceived@VideoRawDataHelper@@UAEXPAVYUVRawDataI420@@PAV?$IVector@_K@@@Z 10048e50 f i zoom_node_video_raw_data.obj
 0001:000482f0       ?onVideoRawDataReceived_MainThread@VideoRawDataHelper@@UAEXPAVYUVRawDataI420@@PAV?$IVector@_K@@@Z 100492f0 f i zoom_node_video_raw_data.obj
 0001:000482f0       ?onShareRawDataReceived_MainThread@ShareRawDataHelper@@UAEXPAVYUVRawDataI420@@PAV?$IVector@_K@@@Z 100492f0 f i zoom_node_share_raw_data.obj
 0001:000485b0       ?onSubscribedVideoUserDataOn@VideoRawDataHelper@@UAEXPAV?$IVector@_K@@@Z 100495b0 f i zoom_node_video_raw_data.obj
 0001:000485b0       ?onSubscribedShareUserDataOn@ShareRawDataHelper@@UAEXPAV?$IVector@_K@@@Z 100495b0 f i zoom_node_share_raw_data.obj
 0001:000486d0       ?onSubscribedVideoUserDataOff@VideoRawDataHelper@@UAEXPAV?$IVector@_K@@@Z 100496d0 f i zoom_node_video_raw_data.obj
 0001:000486d0       ?onSubscribedShareUserDataOff@ShareRawDataHelper@@UAEXPAV?$IVector@_K@@@Z 100496d0 f i zoom_node_share_raw_data.obj
 0001:000487f0       ?onSubscribedVideoUserLeft@VideoRawDataHelper@@UAEXPAV?$IVector@_K@@@Z 100497f0 f i zoom_node_video_raw_data.obj
 0001:000487f0       ?onSubscribedShareUserLeft@ShareRawDataHelper@@UAEXPAV?$IVector@_K@@@Z 100497f0 f i zoom_node_share_raw_data.obj
 0001:00048910       ??_EVideoRawDataHelper@@UAEPAXI@Z 10049910 f i * CIL library *:* CIL module *
 0001:00048910       ??_GVideoRawDataHelper@@UAEPAXI@Z 10049910 f i zoom_node_video_raw_data.obj
 0001:00048940       ??_GVideoRawDataTask@?BI@??onVideoRawDataReceived@VideoRawDataHelper@@UAEXPAVYUVRawDataI420@@PAV?$IVector@_K@@@Z@UAEPAXI@Z 10049940 f i zoom_node_video_raw_data.obj
 0001:00048940       ??_EShareRawDataTask@?BI@??onShareRawDataReceived@ShareRawDataHelper@@UAEXPAVYUVRawDataI420@@PAV?$IVector@_K@@@Z@UAEPAXI@Z 10049940 f i * CIL library *:* CIL module *
 0001:00048940       ??_GShareRawDataTask@?BI@??onShareRawDataReceived@ShareRawDataHelper@@UAEXPAVYUVRawDataI420@@PAV?$IVector@_K@@@Z@UAEPAXI@Z 10049940 f i zoom_node_share_raw_data.obj
 0001:00048940       ??_EOneWayAudioRawDataTask@?N@??onOneWayAudioRawDataReceived@AudioRawDataHelper@@UAEXPAVAudioRawData@@I@Z@UAEPAXI@Z 10049940 f i * CIL library *:* CIL module *
 0001:00048940       ??_GOneWayAudioRawDataTask@?N@??onOneWayAudioRawDataReceived@AudioRawDataHelper@@UAEXPAVAudioRawData@@I@Z@UAEPAXI@Z 10049940 f i zoom_node_audio_raw_data.obj
 0001:00048940       ??_EVideoRawDataTask@?BI@??onVideoRawDataReceived@VideoRawDataHelper@@UAEXPAVYUVRawDataI420@@PAV?$IVector@_K@@@Z@UAEPAXI@Z 10049940 f i * CIL library *:* CIL module *
 0001:00048970       ?SetRawDataCB@ZoomNodeVideoRawDataWrap@@SAXABV?$FunctionCallbackInfo@VValue@v8@@@v8@@@Z 10049970 f   zoom_node_video_raw_data.obj
 0001:00048b00       ?SetRawDataVideoUserDataOnCB@ZoomNodeVideoRawDataWrap@@SAXABV?$FunctionCallbackInfo@VValue@v8@@@v8@@@Z 10049b00 f   zoom_node_video_raw_data.obj
 0001:00048c90       ?SetRawDataVideoUserDataOffCB@ZoomNodeVideoRawDataWrap@@SAXABV?$FunctionCallbackInfo@VValue@v8@@@v8@@@Z 10049c90 f   zoom_node_video_raw_data.obj
 0001:00048e20       ?SetRawDataVideoUserLeftCB@ZoomNodeVideoRawDataWrap@@SAXABV?$FunctionCallbackInfo@VValue@v8@@@v8@@@Z 10049e20 f   zoom_node_video_raw_data.obj
 0001:00048fb0       ?Start@ZoomNodeVideoRawDataWrap@@SAXABV?$FunctionCallbackInfo@VValue@v8@@@v8@@@Z 10049fb0 f   zoom_node_video_raw_data.obj
 0001:000490f0       ?Subscribe@ZoomNodeVideoRawDataWrap@@SAXABV?$FunctionCallbackInfo@VValue@v8@@@v8@@@Z 1004a0f0 f   zoom_node_video_raw_data.obj
 0001:000492b0       ?UnSubscribe@ZoomNodeVideoRawDataWrap@@SAXABV?$FunctionCallbackInfo@VValue@v8@@@v8@@@Z 1004a2b0 f   zoom_node_video_raw_data.obj
 0001:00049430       ?RotateLocalDevice@ZoomNodeVideoRawDataWrap@@SAXABV?$FunctionCallbackInfo@VValue@v8@@@v8@@@Z 1004a430 f   zoom_node_video_raw_data.obj
 0001:00049430       ?GetLocalDeviceStatus@ZoomNodeVideoRawDataWrap@@SAXABV?$FunctionCallbackInfo@VValue@v8@@@v8@@@Z 1004a430 f   zoom_node_video_raw_data.obj
 0001:00049470       ?Stop@ZoomNodeVideoRawDataWrap@@SAXABV?$FunctionCallbackInfo@VValue@v8@@@v8@@@Z 1004a470 f   zoom_node_video_raw_data.obj
 0001:00049500       ?StartPipeServer@ZoomNodeVideoRawDataWrap@@SAXABV?$FunctionCallbackInfo@VValue@v8@@@v8@@@Z 1004a500 f   zoom_node_video_raw_data.obj
 0001:00049550       ?StopPipeServer@ZoomNodeVideoRawDataWrap@@SAXABV?$FunctionCallbackInfo@VValue@v8@@@v8@@@Z 1004a550 f   zoom_node_video_raw_data.obj
 0001:000495c0       ?GetItem@?$CZNodeSetImpl@_K@@UAE_KH@Z 1004a5c0 f i zoom_node_video_raw_data.obj
 0001:00049670       ?GetId@ContextBase@details@Concurrency@@UBEIXZ 1004a670 f i libconcrt:ContextBase.obj
 0001:00049670       ?GetCount@?$CZNodeSetImpl@_K@@UAEHXZ 1004a670 f i zoom_node_video_raw_data.obj
 0001:00049680       ??0?$CZNodeSetImpl@_K@@QAE@XZ 1004a680 f i zoom_node_video_raw_data.obj
 0001:000496d0       ?find@?$_Tree@V?$_Tmap_traits@IPAVIMainThreadTask@@U?$less@I@std@@V?$allocator@U?$pair@$$CBIPAVIMainThreadTask@@@std@@@3@$0A@@std@@@std@@QAE?AV?$_Tree_iterator@V?$_Tree_val@U?$_Tree_simple_types@U?$pair@$$CBIPAVIMainThreadTask@@@std@@@std@@@std@@@2@ABI@Z 1004a6d0 f i zoom_node_video_raw_data.obj
 0001:000496d0       ?find@?$_Tree@V?$_Tmap_traits@IHU?$less@I@std@@V?$allocator@U?$pair@$$CBIH@std@@@2@$0A@@std@@@std@@QAE?AV?$_Tree_iterator@V?$_Tree_val@U?$_Tree_simple_types@U?$pair@$$CBIH@std@@@std@@@std@@@2@ABI@Z 1004a6d0 f i zoom_node_video_raw_data.obj
 0001:00049720       ??1?$lock_guard@Vmutex@std@@@std@@QAE@XZ 1004a720 f i zoom_node_video_raw_data.obj
 0001:00049740       ??_G?$CZNodeSetImpl@_K@@UAEPAXI@Z 1004a740 f i zoom_node_video_raw_data.obj
 0001:00049740       ??_E?$CZNodeSetImpl@_K@@UAEPAXI@Z 1004a740 f i * CIL library *:* CIL module *
 0001:00049790       ?erase@?$_Tree@V?$_Tset_traits@_KU?$less@_K@std@@V?$allocator@_K@2@$0A@@std@@@std@@QAE?AV?$_Tree_const_iterator@V?$_Tree_val@U?$_Tree_simple_types@_K@std@@@std@@@2@V32@0@Z 1004a790 f i zoom_node_video_raw_data.obj
 0001:00049790       ?erase@?$_Tree@V?$_Tmap_traits@IPAVIMainThreadTask@@U?$less@I@std@@V?$allocator@U?$pair@$$CBIPAVIMainThreadTask@@@std@@@3@$0A@@std@@@std@@QAE?AV?$_Tree_iterator@V?$_Tree_val@U?$_Tree_simple_types@U?$pair@$$CBIPAVIMainThreadTask@@@std@@@std@@@std@@@2@V?$_Tree_const_iterator@V?$_Tree_val@U?$_Tree_simple_types@U?$pair@$$CBIPAVIMainThreadTask@@@std@@@std@@@std@@@2@0@Z 1004a790 f i zoom_node_video_raw_data.obj
 0001:00049790       ?erase@?$_Tree@V?$_Tmap_traits@IHU?$less@I@std@@V?$allocator@U?$pair@$$CBIH@std@@@2@$0A@@std@@@std@@QAE?AV?$_Tree_iterator@V?$_Tree_val@U?$_Tree_simple_types@U?$pair@$$CBIH@std@@@std@@@std@@@2@V?$_Tree_const_iterator@V?$_Tree_val@U?$_Tree_simple_types@U?$pair@$$CBIH@std@@@std@@@std@@@2@0@Z 1004a790 f i zoom_node_video_raw_data.obj
 0001:00049840       ?clear@?$_Tree@V?$_Tmap_traits@IPAVIMainThreadTask@@U?$less@I@std@@V?$allocator@U?$pair@$$CBIPAVIMainThreadTask@@@std@@@3@$0A@@std@@@std@@QAEXXZ 1004a840 f i zoom_node_video_raw_data.obj
 0001:00049840       ?clear@?$_Tree@V?$_Tmap_traits@IHU?$less@I@std@@V?$allocator@U?$pair@$$CBIH@std@@@2@$0A@@std@@@std@@QAEXXZ 1004a840 f i zoom_node_video_raw_data.obj
 0001:00049840       ?clear@?$_Tree@V?$_Tset_traits@_KU?$less@_K@std@@V?$allocator@_K@2@$0A@@std@@@std@@QAEXXZ 1004a840 f i zoom_node_video_raw_data.obj
 0001:00049890       ?erase@?$_Tree@V?$_Tmap_traits@IPAVIMainThreadTask@@U?$less@I@std@@V?$allocator@U?$pair@$$CBIPAVIMainThreadTask@@@std@@@3@$0A@@std@@@std@@QAE?AV?$_Tree_iterator@V?$_Tree_val@U?$_Tree_simple_types@U?$pair@$$CBIPAVIMainThreadTask@@@std@@@std@@@std@@@2@V?$_Tree_const_iterator@V?$_Tree_val@U?$_Tree_simple_types@U?$pair@$$CBIPAVIMainThreadTask@@@std@@@std@@@std@@@2@@Z 1004a890 f i zoom_node_video_raw_data.obj
 0001:00049890       ?erase@?$_Tree@V?$_Tmap_traits@IHU?$less@I@std@@V?$allocator@U?$pair@$$CBIH@std@@@2@$0A@@std@@@std@@QAE?AV?$_Tree_iterator@V?$_Tree_val@U?$_Tree_simple_types@U?$pair@$$CBIH@std@@@std@@@std@@@2@V?$_Tree_const_iterator@V?$_Tree_val@U?$_Tree_simple_types@U?$pair@$$CBIH@std@@@std@@@std@@@2@@Z 1004a890 f i zoom_node_video_raw_data.obj
 0001:00049890       ?erase@?$_Tree@V?$_Tset_traits@_KU?$less@_K@std@@V?$allocator@_K@2@$0A@@std@@@std@@QAE?AV?$_Tree_const_iterator@V?$_Tree_val@U?$_Tree_simple_types@_K@std@@@std@@@2@V32@@Z 1004a890 f i zoom_node_video_raw_data.obj
 0001:00049cb0       ?_Erase@?$_Tree@V?$_Tmap_traits@IPAVIMainThreadTask@@U?$less@I@std@@V?$allocator@U?$pair@$$CBIPAVIMainThreadTask@@@std@@@3@$0A@@std@@@std@@IAEXPAU?$_Tree_node@U?$pair@$$CBIPAVIMainThreadTask@@@std@@PAX@2@@Z 1004acb0 f i zoom_node_video_raw_data.obj
 0001:00049cb0       ?_Erase@?$_Tree@V?$_Tmap_traits@IHU?$less@I@std@@V?$allocator@U?$pair@$$CBIH@std@@@2@$0A@@std@@@std@@IAEXPAU?$_Tree_node@U?$pair@$$CBIH@std@@PAX@2@@Z 1004acb0 f i zoom_node_video_raw_data.obj
 0001:00049cb0       ?_Erase@?$_Tree@V?$_Tset_traits@_KU?$less@_K@std@@V?$allocator@_K@2@$0A@@std@@@std@@IAEXPAU?$_Tree_node@_KPAX@2@@Z 1004acb0 f i zoom_node_video_raw_data.obj
 0001:00049cb0       ?_Erase@?$_Tree@V?$_Tmap_traits@PAXPAVUVIPC@@U?$less@PAX@std@@V?$allocator@U?$pair@QAXPAVUVIPC@@@std@@@3@$0A@@std@@@std@@IAEXPAU?$_Tree_node@U?$pair@QAXPAVUVIPC@@@std@@PAX@2@@Z 1004acb0 f i uv_ipc_common.obj
 0001:00049cf0       ??$insert@U?$pair@IPAVVideoRawDataTask@?BI@??onVideoRawDataReceived@VideoRawDataHelper@@UAEXPAVYUVRawDataI420@@PAV?$IVector@_K@@@Z@@std@@X@?$map@IPAVIMainThreadTask@@U?$less@I@std@@V?$allocator@U?$pair@$$CBIPAVIMainThreadTask@@@std@@@3@@std@@QAE?AU?$pair@V?$_Tree_iterator@V?$_Tree_val@U?$_Tree_simple_types@U?$pair@$$CBIPAVIMainThreadTask@@@std@@@std@@@std@@@std@@_N@1@$$QAU?$pair@IPAVVideoRawDataTask@?BI@??onVideoRawDataReceived@VideoRawDataHelper@@UAEXPAVYUVRawDataI420@@PAV?$IVector@_K@@@Z@@1@@Z 1004acf0 f i zoom_node_video_raw_data.obj
 0001:00049cf0       ??$insert@U?$pair@IPAVShareRawDataTask@?BI@??onShareRawDataReceived@ShareRawDataHelper@@UAEXPAVYUVRawDataI420@@PAV?$IVector@_K@@@Z@@std@@X@?$map@IPAVIMainThreadTask@@U?$less@I@std@@V?$allocator@U?$pair@$$CBIPAVIMainThreadTask@@@std@@@3@@std@@QAE?AU?$pair@V?$_Tree_iterator@V?$_Tree_val@U?$_Tree_simple_types@U?$pair@$$CBIPAVIMainThreadTask@@@std@@@std@@@std@@@std@@_N@1@$$QAU?$pair@IPAVShareRawDataTask@?BI@??onShareRawDataReceived@ShareRawDataHelper@@UAEXPAVYUVRawDataI420@@PAV?$IVector@_K@@@Z@@1@@Z 1004acf0 f i zoom_node_share_raw_data.obj
 0001:00049cf0       ??$insert@U?$pair@IH@std@@X@?$map@IHU?$less@I@std@@V?$allocator@U?$pair@$$CBIH@std@@@2@@std@@QAE?AU?$pair@V?$_Tree_iterator@V?$_Tree_val@U?$_Tree_simple_types@U?$pair@$$CBIH@std@@@std@@@std@@@std@@_N@1@$$QAU?$pair@IH@1@@Z 1004acf0 f i zoom_node_video_raw_data.obj
 0001:00049d50       ??$_Eqrange@I@?$_Tree@V?$_Tmap_traits@IPAVIMainThreadTask@@U?$less@I@std@@V?$allocator@U?$pair@$$CBIPAVIMainThreadTask@@@std@@@3@$0A@@std@@@std@@IBE?AU?$pair@V?$_Tree_const_iterator@V?$_Tree_val@U?$_Tree_simple_types@U?$pair@$$CBIPAVIMainThreadTask@@@std@@@std@@@std@@@std@@V12@@1@ABI@Z 1004ad50 f i zoom_node_video_raw_data.obj
 0001:00049dd0       ??$_Insert_nohint@_KU_Nil@std@@@?$_Tree@V?$_Tset_traits@_KU?$less@_K@std@@V?$allocator@_K@2@$0A@@std@@@std@@IAE?AU?$pair@V?$_Tree_const_iterator@V?$_Tree_val@U?$_Tree_simple_types@_K@std@@@std@@@std@@_N@1@_N$$QA_KU_Nil@1@@Z 1004add0 f i zoom_node_video_raw_data.obj
 0001:00049ef0       ??$_Insert_nohint@AAU?$pair@$$CBIPAVIMainThreadTask@@@std@@PAU?$_Tree_node@U?$pair@$$CBIPAVIMainThreadTask@@@std@@PAX@2@@?$_Tree@V?$_Tmap_traits@IPAVIMainThreadTask@@U?$less@I@std@@V?$allocator@U?$pair@$$CBIPAVIMainThreadTask@@@std@@@3@$0A@@std@@@std@@IAE?AU?$pair@V?$_Tree_iterator@V?$_Tree_val@U?$_Tree_simple_types@U?$pair@$$CBIPAVIMainThreadTask@@@std@@@std@@@std@@@std@@_N@1@_NAAU?$pair@$$CBIPAVIMainThreadTask@@@1@PAU?$_Tree_node@U?$pair@$$CBIPAVIMainThreadTask@@@std@@PAX@1@@Z 1004aef0 f i zoom_node_video_raw_data.obj
 0001:00049ef0       ??$_Insert_nohint@AAU?$pair@$$CBIH@std@@PAU?$_Tree_node@U?$pair@$$CBIH@std@@PAX@2@@?$_Tree@V?$_Tmap_traits@IHU?$less@I@std@@V?$allocator@U?$pair@$$CBIH@std@@@2@$0A@@std@@@std@@IAE?AU?$pair@V?$_Tree_iterator@V?$_Tree_val@U?$_Tree_simple_types@U?$pair@$$CBIH@std@@@std@@@std@@@std@@_N@1@_NAAU?$pair@$$CBIH@1@PAU?$_Tree_node@U?$pair@$$CBIH@std@@PAX@1@@Z 1004aef0 f i zoom_node_video_raw_data.obj
 0001:00049fb0       ??$_Insert_at@_KU_Nil@std@@@?$_Tree@V?$_Tset_traits@_KU?$less@_K@std@@V?$allocator@_K@2@$0A@@std@@@std@@IAE?AV?$_Tree_const_iterator@V?$_Tree_val@U?$_Tree_simple_types@_K@std@@@std@@@1@_NPAU?$_Tree_node@_KPAX@1@$$QA_KU_Nil@1@@Z 1004afb0 f i zoom_node_video_raw_data.obj
 0001:0004a1f0       ??$_Insert_at@AAU?$pair@$$CBIH@std@@PAU?$_Tree_node@U?$pair@$$CBIH@std@@PAX@2@@?$_Tree@V?$_Tmap_traits@IHU?$less@I@std@@V?$allocator@U?$pair@$$CBIH@std@@@2@$0A@@std@@@std@@IAE?AV?$_Tree_iterator@V?$_Tree_val@U?$_Tree_simple_types@U?$pair@$$CBIH@std@@@std@@@std@@@1@_NPAU?$_Tree_node@U?$pair@$$CBIH@std@@PAX@1@AAU?$pair@$$CBIH@1@1@Z 1004b1f0 f i zoom_node_video_raw_data.obj
 0001:0004a1f0       ??$_Insert_at@AAU?$pair@$$CBIPAVIMainThreadTask@@@std@@PAU?$_Tree_node@U?$pair@$$CBIPAVIMainThreadTask@@@std@@PAX@2@@?$_Tree@V?$_Tmap_traits@IPAVIMainThreadTask@@U?$less@I@std@@V?$allocator@U?$pair@$$CBIPAVIMainThreadTask@@@std@@@3@$0A@@std@@@std@@IAE?AV?$_Tree_iterator@V?$_Tree_val@U?$_Tree_simple_types@U?$pair@$$CBIPAVIMainThreadTask@@@std@@@std@@@std@@@1@_NPAU?$_Tree_node@U?$pair@$$CBIPAVIMainThreadTask@@@std@@PAX@1@AAU?$pair@$$CBIPAVIMainThreadTask@@@1@1@Z 1004b1f0 f i zoom_node_video_raw_data.obj
 0001:0004a400       ??1AudioRawDataHelper@@UAE@XZ 1004b400 f i zoom_node_audio_raw_data.obj
 0001:0004a4a0       ?onMixedAudioRawDataReceived@AudioRawDataHelper@@UAEXPAVAudioRawData@@@Z 1004b4a0 f i zoom_node_audio_raw_data.obj
 0001:0004a570       ?onMixedAudioRawDataReceived_MainThread@AudioRawDataHelper@@UAEXPAVAudioRawData@@@Z 1004b570 f i zoom_node_audio_raw_data.obj
 0001:0004a6f0       ?onOneWayAudioRawDataReceived@AudioRawDataHelper@@UAEXPAVAudioRawData@@I@Z 1004b6f0 f i zoom_node_audio_raw_data.obj
 0001:0004a7d0       ?onOneWayAudioRawDataReceived_MainThread@AudioRawDataHelper@@UAEXPAVAudioRawData@@I@Z 1004b7d0 f i zoom_node_audio_raw_data.obj
 0001:0004a990       ??_GAudioRawDataHelper@@UAEPAXI@Z 1004b990 f i zoom_node_audio_raw_data.obj
 0001:0004a990       ??_EAudioRawDataHelper@@UAEPAXI@Z 1004b990 f i * CIL library *:* CIL module *
 0001:0004a9c0       ??_GMixedAudioRawDataTask@?N@??onMixedAudioRawDataReceived@AudioRawDataHelper@@UAEXPAVAudioRawData@@@Z@UAEPAXI@Z 1004b9c0 f i zoom_node_audio_raw_data.obj
 0001:0004a9c0       ??_EMixedAudioRawDataTask@?N@??onMixedAudioRawDataReceived@AudioRawDataHelper@@UAEXPAVAudioRawData@@@Z@UAEPAXI@Z 1004b9c0 f i * CIL library *:* CIL module *
 0001:0004a9f0       ?SetRawDataCB@ZoomNodeAudioRawDataWrap@@SAXABV?$FunctionCallbackInfo@VValue@v8@@@v8@@@Z 1004b9f0 f   zoom_node_audio_raw_data.obj
 0001:0004ac60       ?Start@ZoomNodeAudioRawDataWrap@@SAXABV?$FunctionCallbackInfo@VValue@v8@@@v8@@@Z 1004bc60 f   zoom_node_audio_raw_data.obj
 0001:0004ad80       ?Stop@ZoomNodeAudioRawDataWrap@@SAXABV?$FunctionCallbackInfo@VValue@v8@@@v8@@@Z 1004bd80 f   zoom_node_audio_raw_data.obj
 0001:0004ae10       ?StartPipeServer@ZoomNodeAudioRawDataWrap@@SAXABV?$FunctionCallbackInfo@VValue@v8@@@v8@@@Z 1004be10 f   zoom_node_audio_raw_data.obj
 0001:0004ae60       ?StopPipeServer@ZoomNodeAudioRawDataWrap@@SAXABV?$FunctionCallbackInfo@VValue@v8@@@v8@@@Z 1004be60 f   zoom_node_audio_raw_data.obj
 0001:0004aed0       ??0ShareRawDataHelper@@QAE@XZ 1004bed0 f i zoom_node_share_raw_data.obj
 0001:0004afb0       ??1ShareRawDataHelper@@UAE@XZ 1004bfb0 f i zoom_node_share_raw_data.obj
 0001:0004b0e0       ?onShareRawDataReceived@ShareRawDataHelper@@UAEXPAVYUVRawDataI420@@PAV?$IVector@_K@@@Z 1004c0e0 f i zoom_node_share_raw_data.obj
 0001:0004b550       ??_EShareRawDataHelper@@UAEPAXI@Z 1004c550 f i * CIL library *:* CIL module *
 0001:0004b550       ??_GShareRawDataHelper@@UAEPAXI@Z 1004c550 f i zoom_node_share_raw_data.obj
 0001:0004b580       ?SetRawDataCB@ZoomNodeShareRawDataWrap@@SAXABV?$FunctionCallbackInfo@VValue@v8@@@v8@@@Z 1004c580 f   zoom_node_share_raw_data.obj
 0001:0004b710       ?SetRawDataShareUserDataOnCB@ZoomNodeShareRawDataWrap@@SAXABV?$FunctionCallbackInfo@VValue@v8@@@v8@@@Z 1004c710 f   zoom_node_share_raw_data.obj
 0001:0004b8a0       ?SetRawDataShareUserDataOffCB@ZoomNodeShareRawDataWrap@@SAXABV?$FunctionCallbackInfo@VValue@v8@@@v8@@@Z 1004c8a0 f   zoom_node_share_raw_data.obj
 0001:0004ba30       ?SetRawDataShareUserLeftCB@ZoomNodeShareRawDataWrap@@SAXABV?$FunctionCallbackInfo@VValue@v8@@@v8@@@Z 1004ca30 f   zoom_node_share_raw_data.obj
 0001:0004bbc0       ?Start@ZoomNodeShareRawDataWrap@@SAXABV?$FunctionCallbackInfo@VValue@v8@@@v8@@@Z 1004cbc0 f   zoom_node_share_raw_data.obj
 0001:0004bd00       ?Subscribe@ZoomNodeShareRawDataWrap@@SAXABV?$FunctionCallbackInfo@VValue@v8@@@v8@@@Z 1004cd00 f   zoom_node_share_raw_data.obj
 0001:0004bec0       ?UnSubscribe@ZoomNodeShareRawDataWrap@@SAXABV?$FunctionCallbackInfo@VValue@v8@@@v8@@@Z 1004cec0 f   zoom_node_share_raw_data.obj
 0001:0004c040       ?Stop@ZoomNodeShareRawDataWrap@@SAXABV?$FunctionCallbackInfo@VValue@v8@@@v8@@@Z 1004d040 f   zoom_node_share_raw_data.obj
 0001:0004c0d0       ?StartPipeServer@ZoomNodeShareRawDataWrap@@SAXABV?$FunctionCallbackInfo@VValue@v8@@@v8@@@Z 1004d0d0 f   zoom_node_share_raw_data.obj
 0001:0004c120       ?StopPipeServer@ZoomNodeShareRawDataWrap@@SAXABV?$FunctionCallbackInfo@VValue@v8@@@v8@@@Z 1004d120 f   zoom_node_share_raw_data.obj
 0001:0004c190       ?utf8to16@@YAXPBDAAV?$basic_string@_WU?$char_traits@_W@std@@V?$allocator@_W@2@@std@@@Z 1004d190 f   zoom_v8_to_c.obj
 0001:0004c200       ?convertV8String2Wstring@@YAXV?$Local@VString@v8@@@v8@@AAV?$basic_string@_WU?$char_traits@_W@std@@V?$allocator@_W@2@@std@@@Z 1004d200 f   zoom_v8_to_c.obj
 0001:0004c2f0       ?zoom_v8toc@@YAXV?$Local@VBoolean@v8@@@v8@@AA_N@Z 1004d2f0 f   zoom_v8_to_c.obj
 0001:0004c310       ?append@?$basic_string@DU?$char_traits@D@std@@V?$allocator@D@2@@std@@QAEAAV12@ID@Z 1004d310 f i zoom_v8_to_c.obj
 0001:0004c3b0       ?MakeUVIPCMsg@@YAPAVUVIPCMessage@@PAVYUVRawDataI420@@PAV?$IVector@_K@@I@Z 1004d3b0 f   raw_data_format.obj
 0001:0004c580       ?MakeUVIPCMsg@@YAPAVUVIPCMessage@@PAVAudioRawData@@II@Z 1004d580 f   raw_data_format.obj
 0001:0004c670       ??_GUVIPCLocker@@UAEPAXI@Z 1004d670 f i uv_ipc_common.obj
 0001:0004c670       ??_EUVIPCLocker@@UAEPAXI@Z 1004d670 f i * CIL library *:* CIL module *
 0001:0004c6a0       ?AddRef@UVIPCMessage@@UAE_NXZ 1004d6a0 f i uv_ipc_common.obj
 0001:0004c6c0       ?Release@UVIPCMessage@@UAEHXZ 1004d6c0 f i uv_ipc_common.obj
 0001:0004c6f0       ??0UVIPCMessage@@QAE@PBDH_N@Z 1004d6f0 f   uv_ipc_common.obj
 0001:0004c770       ??_EUVIPCMessage@@MAEPAXI@Z 1004d770 f i * CIL library *:* CIL module *
 0001:0004c770       ??_GUVIPCMessage@@MAEPAXI@Z 1004d770 f i uv_ipc_common.obj
 0001:0004c7b0       ??0UVIPC@@QAE@XZ           1004d7b0 f   uv_ipc_common.obj
 0001:0004c870       ??_GUVIPC@@UAEPAXI@Z       1004d870 f i uv_ipc_common.obj
 0001:0004c870       ??_EUVIPC@@UAEPAXI@Z       1004d870 f i * CIL library *:* CIL module *
 0001:0004c8a0       ??1UVIPC@@UAE@XZ           1004d8a0 f   uv_ipc_common.obj
 0001:0004c950       ?IsRunning@UVIPC@@QAE_N_N@Z 1004d950 f   uv_ipc_common.obj
 0001:0004c980       ?uv_ipc_timer_cb@@YAXPAUuv_timer_s@@@Z 1004d980 f   uv_ipc_common.obj
 0001:0004c9a0       ?Start@UVIPC@@QAE_NPAD_NPAUuv_loop_s@@PAVUVIPCSink@@@Z 1004d9a0 f   uv_ipc_common.obj
 0001:0004cb00       ?Stop@UVIPC@@QAE_NXZ       1004db00 f   uv_ipc_common.obj
 0001:0004cc10       ?on_pipe_client_connection_cb@@YAXPAUuv_stream_s@@H@Z 1004dc10 f   uv_ipc_common.obj
 0001:0004cc30       ?alloc_buffer_for_uv_pipe@@YAXPAUuv_handle_s@@IPAUuv_buf_t@@@Z 1004dc30 f   uv_ipc_common.obj
 0001:0004cc50       ?on_pipe_data_read_cb@@YAXPAUuv_stream_s@@HPBUuv_buf_t@@@Z 1004dc50 f   uv_ipc_common.obj
 0001:0004ccc0       ?uv_cb_client_connection_notify@UVIPC@@AAEXPAUuv_stream_s@@H@Z 1004dcc0 f   uv_ipc_common.obj
 0001:0004cda0       ?uv_cb_pipe_data_read@UVIPC@@AAEXPAUuv_stream_s@@HPBUuv_buf_t@@@Z 1004dda0 f   uv_ipc_common.obj
 0001:0004cee0       ?on_write_data_cb@@YAXPAUuv_write_s@@H@Z 1004dee0 f   uv_ipc_common.obj
 0001:0004cf10       ?uv_cb_ipc_timer@UVIPC@@AAEXPAUuv_timer_s@@@Z 1004df10 f   uv_ipc_common.obj
 0001:0004d0b0       ??1?$list@PAVUVIPCMessage@@V?$allocator@PAVUVIPCMessage@@@std@@@std@@QAE@XZ 1004e0b0 f i uv_ipc_common.obj
 0001:0004d0f0       ?erase@?$_Tree@V?$_Tmap_traits@PAXPAVUVIPC@@U?$less@PAX@std@@V?$allocator@U?$pair@QAXPAVUVIPC@@@std@@@3@$0A@@std@@@std@@QAE?AV?$_Tree_iterator@V?$_Tree_val@U?$_Tree_simple_types@U?$pair@QAXPAVUVIPC@@@std@@@std@@@std@@@2@V?$_Tree_const_iterator@V?$_Tree_val@U?$_Tree_simple_types@U?$pair@QAXPAVUVIPC@@@std@@@std@@@std@@@2@0@Z 1004e0f0 f i uv_ipc_common.obj
 0001:0004d190       ?clear@?$_Tree@V?$_Tmap_traits@PAXPAVUVIPC@@U?$less@PAX@std@@V?$allocator@U?$pair@QAXPAVUVIPC@@@std@@@3@$0A@@std@@@std@@QAEXXZ 1004e190 f i uv_ipc_common.obj
 0001:0004d1f0       ?erase@?$_Tree@V?$_Tmap_traits@PAXPAVUVIPC@@U?$less@PAX@std@@V?$allocator@U?$pair@QAXPAVUVIPC@@@std@@@3@$0A@@std@@@std@@QAE?AV?$_Tree_iterator@V?$_Tree_val@U?$_Tree_simple_types@U?$pair@QAXPAVUVIPC@@@std@@@std@@@std@@@2@V?$_Tree_const_iterator@V?$_Tree_val@U?$_Tree_simple_types@U?$pair@QAXPAVUVIPC@@@std@@@std@@@std@@@2@@Z 1004e1f0 f i uv_ipc_common.obj
 0001:0004d630       ??$_Insert@ABQAVUVIPCMessage@@@?$list@PAVUVIPCMessage@@V?$allocator@PAVUVIPCMessage@@@std@@@std@@QAEXV?$_List_unchecked_const_iterator@V?$_List_val@U?$_List_simple_types@PAVUVIPCMessage@@@std@@@std@@U_Iterator_base0@2@@1@ABQAVUVIPCMessage@@@Z 1004e630 f i uv_ipc_common.obj
 0001:0004d6a0       ??$emplace@U?$pair@PAXPAVUVIPC@@@std@@@?$_Tree@V?$_Tmap_traits@PAXPAVUVIPC@@U?$less@PAX@std@@V?$allocator@U?$pair@QAXPAVUVIPC@@@std@@@3@$0A@@std@@@std@@QAE?AU?$pair@V?$_Tree_iterator@V?$_Tree_val@U?$_Tree_simple_types@U?$pair@QAXPAVUVIPC@@@std@@@std@@@std@@@std@@_N@1@$$QAU?$pair@PAXPAVUVIPC@@@1@@Z 1004e6a0 f i uv_ipc_common.obj
 0001:0004d710       ??0?$_Wrap_alloc@V?$allocator@U?$_Tree_node@U?$pair@QAXPAVUVIPC@@@std@@PAX@std@@@std@@@std@@QAE@XZ 1004e710 f i uv_ipc_common.obj
 0001:0004d720       ??$_Insert_nohint@AAU?$pair@QAXPAVUVIPC@@@std@@PAU?$_Tree_node@U?$pair@QAXPAVUVIPC@@@std@@PAX@2@@?$_Tree@V?$_Tmap_traits@PAXPAVUVIPC@@U?$less@PAX@std@@V?$allocator@U?$pair@QAXPAVUVIPC@@@std@@@3@$0A@@std@@@std@@IAE?AU?$pair@V?$_Tree_iterator@V?$_Tree_val@U?$_Tree_simple_types@U?$pair@QAXPAVUVIPC@@@std@@@std@@@std@@@std@@_N@1@_NAAU?$pair@QAXPAVUVIPC@@@1@PAU?$_Tree_node@U?$pair@QAXPAVUVIPC@@@std@@PAX@1@@Z 1004e720 f i uv_ipc_common.obj
 0001:0004d7f0       ??$_Insert_at@AAU?$pair@QAXPAVUVIPC@@@std@@PAU?$_Tree_node@U?$pair@QAXPAVUVIPC@@@std@@PAX@2@@?$_Tree@V?$_Tmap_traits@PAXPAVUVIPC@@U?$less@PAX@std@@V?$allocator@U?$pair@QAXPAVUVIPC@@@std@@@3@$0A@@std@@@std@@IAE?AV?$_Tree_iterator@V?$_Tree_val@U?$_Tree_simple_types@U?$pair@QAXPAVUVIPC@@@std@@@std@@@std@@@1@_NPAU?$_Tree_node@U?$pair@QAXPAVUVIPC@@@std@@PAX@1@AAU?$pair@QAXPAVUVIPC@@@1@1@Z 1004e7f0 f i uv_ipc_common.obj
 0001:0004da20       ??0RawDataUVIPCServer@@QAE@XZ 1004ea20 f   raw_data_uv_ipc_server.obj
 0001:0004da90       ??_ERawDataUVIPCServer@@UAEPAXI@Z 1004ea90 f i * CIL library *:* CIL module *
 0001:0004da90       ??_GRawDataUVIPCServer@@UAEPAXI@Z 1004ea90 f i raw_data_uv_ipc_server.obj
 0001:0004db00       ?work_thread_sync_proc@@YAXPAUuv_async_s@@@Z 1004eb00 f   raw_data_uv_ipc_server.obj
 0001:0004db40       ?work_thread_proc@@YAXPAX@Z 1004eb40 f   raw_data_uv_ipc_server.obj
 0001:0004dc20       ?StartPipeServer@RawDataUVIPCServer@@QAE_NPADPAVUVIPCSink@@@Z 1004ec20 f   raw_data_uv_ipc_server.obj
 0001:0004dcb0       ?SendMessageA@RawDataUVIPCServer@@QAE_NPAVUVIPCMessage@@@Z 1004ecb0 f   raw_data_uv_ipc_server.obj
 0001:0004dd10       ?onMessageRecvNotification@RawDataUVIPCServer@@UAEXPAVUVIPCMessage@@@Z 1004ed10 f   raw_data_uv_ipc_server.obj
 0001:0004dd30       ?onConnect@RawDataUVIPCServer@@UAEXXZ 1004ed30 f   raw_data_uv_ipc_server.obj
 0001:0004dd50       ?onDisconnect@RawDataUVIPCServer@@UAEXXZ 1004ed50 f   raw_data_uv_ipc_server.obj
 0001:0004dd70       ?onIdle@RawDataUVIPCServer@@UAEXXZ 1004ed70 f   raw_data_uv_ipc_server.obj
 0001:0004dd80       ?MainThread_RunLoop@@YGJHIJ@Z 1004ed80 f   run_task_to_main_thread.obj
 0001:0004ddd0       _Node_RetrieveAudioRawDataChannel 1004edd0 f   zoom_raw_data_wrap.obj
 0001:0004de10       _Node_RetrieveVideoRawDataChannel 1004ee10 f   zoom_raw_data_wrap.obj
 0001:0004de50       _Node_RetrieveShareRawDataChannel 1004ee50 f   zoom_raw_data_wrap.obj
 0001:0004de90       ?HasRawDataLicense@ZoomNodeRawDataLicenseWrap@@SAXABV?$FunctionCallbackInfo@VValue@v8@@@v8@@@Z 1004ee90 f   zoom_node_raw_data_license.obj
 0001:0004df00       ??0ZoomNodeSDKSMSHelperWrap@@AAE@XZ 1004ef00 f   zoom_node_sdk_sms_helper.obj
 0001:0004df80       ??_GZoomNodeSDKSMSHelperWrap@@EAEPAXI@Z 1004ef80 f i zoom_node_sdk_sms_helper.obj
 0001:0004df80       ??_EZoomNodeSDKSMSHelperWrap@@EAEPAXI@Z 1004ef80 f i * CIL library *:* CIL module *
 0001:0004dfe0       ?EnableZoomAuthRealNameMeetingUIShown@ZoomNodeSDKSMSHelperWrap@@SAXABV?$FunctionCallbackInfo@VValue@v8@@@v8@@@Z 1004efe0 f   zoom_node_sdk_sms_helper.obj
 0001:0004e100       ?GetResendSMSVerificationCodeHandler@ZoomNodeSDKSMSHelperWrap@@SAXABV?$FunctionCallbackInfo@VValue@v8@@@v8@@@Z 1004f100 f   zoom_node_sdk_sms_helper.obj
 0001:0004e130       ?Retrieve@ZoomNodeSDKSMSHelperWrap@@SAXABV?$FunctionCallbackInfo@VValue@v8@@@v8@@@Z 1004f130 f   zoom_node_sdk_sms_helper.obj
 0001:0004e340       ?Retrieve_CancelAndLeaveMeeting@ZoomNodeSDKSMSHelperWrap@@SAXABV?$FunctionCallbackInfo@VValue@v8@@@v8@@@Z 1004f340 f   zoom_node_sdk_sms_helper.obj
 0001:0004e370       ?GetReVerifySMSVerificationCodeHandler@ZoomNodeSDKSMSHelperWrap@@SAXABV?$FunctionCallbackInfo@VValue@v8@@@v8@@@Z 1004f370 f   zoom_node_sdk_sms_helper.obj
 0001:0004e3a0       ?Verify@ZoomNodeSDKSMSHelperWrap@@SAXABV?$FunctionCallbackInfo@VValue@v8@@@v8@@@Z 1004f3a0 f   zoom_node_sdk_sms_helper.obj
 0001:0004e650       ?Verify_CancelAndLeaveMeeting@ZoomNodeSDKSMSHelperWrap@@SAXABV?$FunctionCallbackInfo@VValue@v8@@@v8@@@Z 1004f650 f   zoom_node_sdk_sms_helper.obj
 0001:0004e680       ?GetSupportPhoneNumberCountryList@ZoomNodeSDKSMSHelperWrap@@SAXABV?$FunctionCallbackInfo@VValue@v8@@@v8@@@Z 1004f680 f   zoom_node_sdk_sms_helper.obj
 0001:0004eb10       ?SetNeedRealNameAuthMeetingNotificationCB@ZoomNodeSDKSMSHelperWrap@@SAXABV?$FunctionCallbackInfo@VValue@v8@@@v8@@@Z 1004fb10 f   zoom_node_sdk_sms_helper.obj
 0001:0004ecb0       ?SetRetrieveSMSVerificationCodeResultNotificationCB@ZoomNodeSDKSMSHelperWrap@@SAXABV?$FunctionCallbackInfo@VValue@v8@@@v8@@@Z 1004fcb0 f   zoom_node_sdk_sms_helper.obj
 0001:0004ee50       ?SetVerifySMSVerificationCodeResultNotificationCB@ZoomNodeSDKSMSHelperWrap@@SAXABV?$FunctionCallbackInfo@VValue@v8@@@v8@@@Z 1004fe50 f   zoom_node_sdk_sms_helper.obj
 0001:0004eff0       ?SetDefaultCellPhoneInfo@ZoomNodeSDKSMSHelperWrap@@SAXABV?$FunctionCallbackInfo@VValue@v8@@@v8@@@Z 1004fff0 f   zoom_node_sdk_sms_helper.obj
 0001:0004f22e       __imp_load_?Global@Context@v8@@QAE?AV?$Local@VObject@v8@@@2@XZ 1005022e f   node:node.exe
 0001:0004f238       __tailMerge_node_exe       10050238 f i node:node.exe
 0001:0004f249       __imp_load_?New@Integer@v8@@SA?AV?$Local@VInteger@v8@@@2@PAVIsolate@2@H@Z 10050249 f   node:node.exe
 0001:0004f253       __imp_load_?GetCurrentContext@Isolate@v8@@QAE?AV?$Local@VContext@v8@@@2@XZ 10050253 f   node:node.exe
 0001:0004f25d       __imp_load_?GetCurrent@Isolate@v8@@SAPAV12@XZ 1005025d f   node:node.exe
 0001:0004f267       __imp_load_?CreateHandle@HandleScope@v8@@KAPAIPAVIsolate@internal@2@I@Z 10050267 f   node:node.exe
 0001:0004f271       __imp_load_??1HandleScope@v8@@QAE@XZ 10050271 f   node:node.exe
 0001:0004f27b       __imp_load_??0HandleScope@v8@@QAE@PAVIsolate@1@@Z 1005027b f   node:node.exe
 0001:0004f285       __imp_load_?DisposeGlobal@V8@v8@@CAXPAI@Z 10050285 f   node:node.exe
 0001:0004f28f       __imp_load_?Call@Function@v8@@QAE?AV?$MaybeLocal@VValue@v8@@@2@V?$Local@VContext@v8@@@2@V?$Local@VValue@v8@@@2@HQAV52@@Z 1005028f f   node:node.exe
 0001:0004f299       __imp_load_?Value@Integer@v8@@QBE_JXZ 10050299 f   node:node.exe
 0001:0004f2a3       __imp_load_?New@Signature@v8@@SA?AV?$Local@VSignature@v8@@@2@PAVIsolate@2@V?$Local@VFunctionTemplate@v8@@@2@@Z 100502a3 f   node:node.exe
 0001:0004f2ad       __imp_load_?ThrowException@Isolate@v8@@QAE?AV?$Local@VValue@v8@@@2@V32@@Z 100502ad f   node:node.exe
 0001:0004f2b7       __imp_load_?Set@Template@v8@@QAEXV?$Local@VName@v8@@@2@V?$Local@VData@v8@@@2@W4PropertyAttribute@2@@Z 100502b7 f   node:node.exe
 0001:0004f2c1       __imp_load_?TypeError@Exception@v8@@SA?AV?$Local@VValue@v8@@@2@V?$Local@VString@v8@@@2@@Z 100502c1 f   node:node.exe
 0001:0004f2cb       __imp_load_?New@Array@v8@@SA?AV?$Local@VArray@v8@@@2@PAVIsolate@2@H@Z 100502cb f   node:node.exe
 0001:0004f2d5       __imp_load_?SetClassName@FunctionTemplate@v8@@QAEXV?$Local@VString@v8@@@2@@Z 100502d5 f   node:node.exe
 0001:0004f2df       __imp_load_?PrototypeTemplate@FunctionTemplate@v8@@QAE?AV?$Local@VObjectTemplate@v8@@@2@XZ 100502df f   node:node.exe
 0001:0004f2e9       __imp_load_?InstanceTemplate@FunctionTemplate@v8@@QAE?AV?$Local@VObjectTemplate@v8@@@2@XZ 100502e9 f   node:node.exe
 0001:0004f2f3       __imp_load_?GetFunction@FunctionTemplate@v8@@QAE?AV?$MaybeLocal@VFunction@v8@@@2@V?$Local@VContext@v8@@@2@@Z 100502f3 f   node:node.exe
 0001:0004f2fd       __imp_load_?New@FunctionTemplate@v8@@SA?AV?$Local@VFunctionTemplate@v8@@@2@PAVIsolate@2@P6AXABV?$FunctionCallbackInfo@VValue@v8@@@2@@ZV?$Local@VValue@v8@@@2@V?$Local@VSignature@v8@@@2@HW4ConstructorBehavior@2@W4SideEffectType@2@@Z 100502fd f   node:node.exe
 0001:0004f307       __imp_load_?ToLocalEmpty@V8@v8@@CAXXZ 10050307 f   node:node.exe
 0001:0004f311       __imp_load_?FromJustIsNothing@V8@v8@@CAXXZ 10050311 f   node:node.exe
 0001:0004f31b       __imp_load_?ClearWeak@V8@v8@@CAPAXPAI@Z 1005031b f   node:node.exe
 0001:0004f325       __imp_load_?MakeWeak@V8@v8@@CAXPAIPAXP6AXABV?$WeakCallbackInfo@X@2@@ZW4WeakCallbackType@2@@Z 10050325 f   node:node.exe
 0001:0004f32f       __imp_load_?CopyGlobalReference@V8@v8@@CAPAIPAI@Z 1005032f f   node:node.exe
 0001:0004f339       __imp_load_?GlobalizeReference@V8@v8@@CAPAIPAVIsolate@internal@2@PAI@Z 10050339 f   node:node.exe
 0001:0004f343       __imp_load_?NumberValue@Value@v8@@QBENXZ 10050343 f   node:node.exe
 0001:0004f34d       __imp_load_?BooleanValue@Value@v8@@QBE_NXZ 1005034d f   node:node.exe
 0001:0004f357       __imp_load_?IsNumber@Value@v8@@QBE_NXZ 10050357 f   node:node.exe
 0001:0004f361       __imp_load_?IsBoolean@Value@v8@@QBE_NXZ 10050361 f   node:node.exe
 0001:0004f36b       __imp_load_?IsFunction@Value@v8@@QBE_NXZ 1005036b f   node:node.exe
 0001:0004f375       __imp_load_?NewFromUtf8@String@v8@@SA?AV?$MaybeLocal@VString@v8@@@2@PAVIsolate@2@PBDW4NewStringType@2@H@Z 10050375 f   node:node.exe
 0001:0004f37f       __imp_load_?New@Number@v8@@SA?AV?$Local@VNumber@v8@@@2@PAVIsolate@2@N@Z 1005037f f   node:node.exe
 0001:0004f389       __imp_load_?New@Object@v8@@SA?AV?$Local@VObject@v8@@@2@PAVIsolate@2@@Z 10050389 f   node:node.exe
 0001:0004f393       __imp_load_?GetIsolate@Object@v8@@QAEPAVIsolate@2@XZ 10050393 f   node:node.exe
 0001:0004f39d       __imp_load_?SetAlignedPointerInInternalField@Object@v8@@QAEXHPAX@Z 1005039d f   node:node.exe
 0001:0004f3a7       __imp_load_?InternalFieldCount@Object@v8@@QAEHXZ 100503a7 f   node:node.exe
 0001:0004f3b1       __imp_load_?Set@Object@v8@@QAE?AV?$Maybe@_N@2@V?$Local@VContext@v8@@@2@V?$Local@VValue@v8@@@2@1@Z 100503b1 f   node:node.exe
 0001:0004f3bb       __imp_load_?Set@Object@v8@@QAE?AV?$Maybe@_N@2@V?$Local@VContext@v8@@@2@IV?$Local@VValue@v8@@@2@@Z 100503bb f   node:node.exe
 0001:0004f3c5       __imp_load_?SetName@Function@v8@@QAEXV?$Local@VString@v8@@@2@@Z 100503c5 f   node:node.exe
 0001:0004f3cf       __imp_load_?NewInstance@Function@v8@@QBE?AV?$MaybeLocal@VObject@v8@@@2@V?$Local@VContext@v8@@@2@HQAV?$Local@VValue@v8@@@2@@Z 100503cf f   node:node.exe
 0001:0004f3d9       __imp_load_?SetInternalFieldCount@ObjectTemplate@v8@@QAEXH@Z 100503d9 f   node:node.exe
 0001:0004f3e3       __imp_load__node_module_register 100503e3 f   node:node.exe
 0001:0004f3ed       __imp_load_?New@Uint8Array@v8@@SA?AV?$Local@VUint8Array@v8@@@2@V?$Local@VArrayBuffer@v8@@@2@II@Z 100503ed f   node:node.exe
 0001:0004f3f7       __imp_load_?GetContents@ArrayBuffer@v8@@QAE?AVContents@12@XZ 100503f7 f   node:node.exe
 0001:0004f401       __imp_load_?New@ArrayBuffer@v8@@SA?AV?$Local@VArrayBuffer@v8@@@2@PAVIsolate@2@I@Z 10050401 f   node:node.exe
 0001:0004f40b       __imp_load_?New@ArrayBuffer@v8@@SA?AV?$Local@VArrayBuffer@v8@@@2@PAVIsolate@2@PAXIW4ArrayBufferCreationMode@2@@Z 1005040b f   node:node.exe
 0001:0004f415       __imp_load_?New@BigUint64Array@v8@@SA?AV?$Local@VBigUint64Array@v8@@@2@V?$Local@VArrayBuffer@v8@@@2@II@Z 10050415 f   node:node.exe
 0001:0004f41f       __imp_load_?WriteUtf8@String@v8@@QBEHPAVIsolate@2@PADHPAHH@Z 1005041f f   node:node.exe
 0001:0004f429       __imp_load_?Utf8Length@String@v8@@QBEHXZ 10050429 f   node:node.exe
 0001:0004f433       __imp_load_?Utf8Length@String@v8@@QBEHPAVIsolate@2@@Z 10050433 f   node:node.exe
 0001:0004f43d       __imp_load__uv_close       1005043d f   node:node.exe
 0001:0004f447       __imp_load__uv_read_stop   10050447 f   node:node.exe
 0001:0004f451       __imp_load__uv_pipe_bind   10050451 f   node:node.exe
 0001:0004f45b       __imp_load__uv_timer_init  1005045b f   node:node.exe
 0001:0004f465       __imp_load__uv_rwlock_wrlock 10050465 f   node:node.exe
 0001:0004f46f       __imp_load__uv_rwlock_rdlock 1005046f f   node:node.exe
 0001:0004f479       __imp_load__uv_rwlock_init 10050479 f   node:node.exe
 0001:0004f483       __imp_load__uv_rwlock_wrunlock 10050483 f   node:node.exe
 0001:0004f48d       __imp_load__uv_accept      1005048d f   node:node.exe
 0001:0004f497       __imp_load__uv_timer_start 10050497 f   node:node.exe
 0001:0004f4a1       __imp_load__uv_listen      100504a1 f   node:node.exe
 0001:0004f4ab       __imp_load__uv_read_start  100504ab f   node:node.exe
 0001:0004f4b5       __imp_load__uv_rwlock_rdunlock 100504b5 f   node:node.exe
 0001:0004f4bf       __imp_load__uv_rwlock_destroy 100504bf f   node:node.exe
 0001:0004f4c9       __imp_load__uv_fs_unlink   100504c9 f   node:node.exe
 0001:0004f4d3       __imp_load__uv_pipe_init   100504d3 f   node:node.exe
 0001:0004f4dd       __imp_load__uv_write       100504dd f   node:node.exe
 0001:0004f4e7       __imp_load__uv_loop_close  100504e7 f   node:node.exe
 0001:0004f4f1       __imp_load__uv_run         100504f1 f   node:node.exe
 0001:0004f4fb       __imp_load__uv_thread_create 100504fb f   node:node.exe
 0001:0004f505       __imp_load__uv_async_send  10050505 f   node:node.exe
 0001:0004f50f       __imp_load__uv_async_init  1005050f f   node:node.exe
 0001:0004f519       __imp_load__uv_loop_init   10050519 f   node:node.exe
 0001:0004f523       __imp_load__uv_stop        10050523 f   node:node.exe
 0001:0004f52d       ??0bad_alloc@std@@QAE@ABV01@@Z 1005052d f i libcpmt:xthrow.obj
 0001:0004f548       ??0bad_alloc@std@@QAE@XZ   10050548 f i libcpmt:xthrow.obj
 0001:0004f560       ??0bad_function_call@std@@QAE@ABV01@@Z 10050560 f i libcpmt:xthrow.obj
 0001:0004f57b       ??0bad_function_call@std@@QAE@XZ 1005057b f i libcpmt:xthrow.obj
 0001:0004f58c       ??0exception@std@@QAE@ABV01@@Z 1005058c f i libcpmt:xthrow.obj
 0001:0004f5b8       ??0exception@std@@QAE@QBD@Z 100505b8 f i libcpmt:xthrow.obj
 0001:0004f5ef       ??0invalid_argument@std@@QAE@ABV01@@Z 100505ef f i libcpmt:xthrow.obj
 0001:0004f60a       ??0invalid_argument@std@@QAE@PBD@Z 1005060a f i libcpmt:xthrow.obj
 0001:0004f62b       ??0length_error@std@@QAE@ABV01@@Z 1005062b f i libcpmt:xthrow.obj
 0001:0004f646       ??0length_error@std@@QAE@PBD@Z 10050646 f i libcpmt:xthrow.obj
 0001:0004f667       ??0logic_error@std@@QAE@ABV01@@Z 10050667 f i libcpmt:xthrow.obj
 0001:0004f682       ??0out_of_range@std@@QAE@ABV01@@Z 10050682 f i libcpmt:xthrow.obj
 0001:0004f69d       ??0out_of_range@std@@QAE@PBD@Z 1005069d f i libcpmt:xthrow.obj
 0001:0004f6be       ??0runtime_error@std@@QAE@ABV01@@Z 100506be f i libcpmt:xthrow.obj
 0001:0004f6d9       ??1invalid_oversubscribe_operation@Concurrency@@UAE@XZ 100506d9 f i libconcrt:Exceptions.obj
 0001:0004f6d9       ??1context_unblock_unbalanced@Concurrency@@UAE@XZ 100506d9 f i libconcrt:Exceptions.obj
 0001:0004f6d9       ??1improper_scheduler_attach@Concurrency@@UAE@XZ 100506d9 f i libconcrt:Exceptions.obj
 0001:0004f6d9       ??1_Interruption_exception@details@Concurrency@@UAE@XZ 100506d9 f i libconcrt:TaskCollection.obj
 0001:0004f6d9       ??1improper_scheduler_reference@Concurrency@@UAE@XZ 100506d9 f i libconcrt:Exceptions.obj
 0001:0004f6d9       ??1invalid_argument@std@@UAE@XZ 100506d9 f i libcpmt:xthrow.obj
 0001:0004f6d9       ??1__non_rtti_object@std@@UAE@XZ 100506d9 f i libvcruntime:rtti.obj
 0001:0004f6d9       ??1bad_exception@std@@UAE@XZ 100506d9 f i libvcruntime:frame.obj
 0001:0004f6d9       ??1unsupported_os@Concurrency@@UAE@XZ 100506d9 f i libconcrt:Exceptions.obj
 0001:0004f6d9       ??1bad_array_new_length@std@@UAE@XZ 100506d9 f i LIBCMT:throw_bad_alloc.obj
 0001:0004f6d9       ??1missing_wait@Concurrency@@UAE@XZ 100506d9 f i libconcrt:Exceptions.obj
 0001:0004f6d9       ??1length_error@std@@UAE@XZ 100506d9 f i libcpmt:xthrow.obj
 0001:0004f6d9       ??1system_error@std@@UAE@XZ 100506d9 f i libcpmt:thread0.obj
 0001:0004f6d9       ??1invalid_scheduler_policy_value@Concurrency@@UAE@XZ 100506d9 f i libconcrt:Exceptions.obj
 0001:0004f6d9       ??1invalid_scheduler_policy_key@Concurrency@@UAE@XZ 100506d9 f i libconcrt:Exceptions.obj
 0001:0004f6d9       ??1bad_cast@std@@UAE@XZ    100506d9 f i libvcruntime:rtti.obj
 0001:0004f6d9       ??1invalid_scheduler_policy_thread_specification@Concurrency@@UAE@XZ 100506d9 f i libconcrt:Exceptions.obj
 0001:0004f6d9       ??1scheduler_worker_creation_error@Concurrency@@UAE@XZ 100506d9 f i libconcrt:Exceptions.obj
 0001:0004f6d9       ??1scheduler_resource_allocation_error@Concurrency@@UAE@XZ 100506d9 f i libconcrt:Platform.obj
 0001:0004f6d9       ??1context_self_unblock@Concurrency@@UAE@XZ 100506d9 f i libconcrt:Exceptions.obj
 0001:0004f6d9       ??1bad_function_call@std@@UAE@XZ 100506d9 f i libcpmt:xthrow.obj
 0001:0004f6d9       ??1invalid_operation@Concurrency@@UAE@XZ 100506d9 f i libconcrt:ResourceManager.obj
 0001:0004f6d9       ??1out_of_range@std@@UAE@XZ 100506d9 f i libcpmt:xthrow.obj
 0001:0004f6d9       ??1bad_alloc@std@@UAE@XZ   100506d9 f i libcpmt:xthrow.obj
 0001:0004f6d9       ??1improper_lock@Concurrency@@UAE@XZ 100506d9 f i libconcrt:rtlocks.obj
 0001:0004f6d9       ??1nested_scheduler_missing_detach@Concurrency@@UAE@XZ 100506d9 f i libconcrt:Exceptions.obj
 0001:0004f6ea       ?__scrt_throw_std_bad_alloc@@YAXXZ 100506ea f   LIBCMT:throw_bad_alloc.obj
 0001:0004f6ea       ?_Xbad_alloc@std@@YAXXZ    100506ea f   libcpmt:xthrow.obj
 0001:0004f707       ?_Xbad_function_call@std@@YAXXZ 10050707 f   libcpmt:xthrow.obj
 0001:0004f724       ?_Xlength_error@std@@YAXPBD@Z 10050724 f   libcpmt:xthrow.obj
 0001:0004f744       ?_Xout_of_range@std@@YAXPBD@Z 10050744 f   libcpmt:xthrow.obj
 0001:0004f764       ?what@bad_function_call@std@@UBEPBDXZ 10050764 f i libcpmt:xthrow.obj
 0001:0004f76a       ?what@exception@std@@UBEPBDXZ 1005076a f i libcpmt:xthrow.obj
 0001:0004f777       ??$_Immortalize@V_Generic_error_category@std@@@std@@YAAAV_Generic_error_category@0@XZ 10050777 f i libcpmt:thread0.obj
 0001:0004f7ad       ??0?$basic_string@DU?$char_traits@D@std@@V?$allocator@D@2@@std@@QAE@ABV01@@Z 100507ad f i libcpmt:thread0.obj
 0001:0004f7d3       ??0_System_error@std@@IAE@Verror_code@1@ABV?$basic_string@DU?$char_traits@D@std@@V?$allocator@D@2@@1@@Z 100507d3 f i libcpmt:thread0.obj
 0001:0004f842       ??0_System_error@std@@QAE@ABV01@@Z 10050842 f i libcpmt:thread0.obj
 0001:0004f86c       ??0runtime_error@std@@QAE@ABV?$basic_string@DU?$char_traits@D@std@@V?$allocator@D@2@@1@@Z 1005086c f i libcpmt:thread0.obj
 0001:0004f896       ??0system_error@std@@QAE@ABV01@@Z 10050896 f i libcpmt:thread0.obj
 0001:0004f8b1       ??0system_error@std@@QAE@HABVerror_category@1@PBD@Z 100508b1 f i libcpmt:thread0.obj
 0001:0004f8ff       ??8std@@YA_NABVerror_condition@0@0@Z 100508ff f i libcpmt:thread0.obj
 0001:0004f927       ??_E_System_error@std@@UAEPAXI@Z 10050927 f i libcpmt:thread0.obj
 0001:0004f927       ??_Gsystem_error@std@@UAEPAXI@Z 10050927 f i libcpmt:thread0.obj
 0001:0004f927       ??_G_System_error@std@@UAEPAXI@Z 10050927 f i libcpmt:thread0.obj
 0001:0004f927       ??_Esystem_error@std@@UAEPAXI@Z 10050927 f i libcpmt:thread0.obj
 0001:0004f954       ??_Gerror_category@std@@UAEPAXI@Z 10050954 f i libcpmt:thread0.obj
 0001:0004f954       ??_E_Generic_error_category@std@@UAEPAXI@Z 10050954 f i libcpmt:thread0.obj
 0001:0004f954       ??_G_Generic_error_category@std@@UAEPAXI@Z 10050954 f i libcpmt:thread0.obj
 0001:0004f954       ??_Eerror_category@std@@UAEPAXI@Z 10050954 f i libcpmt:thread0.obj
 0001:0004f977       ?_Makestr@_System_error@std@@CA?AV?$basic_string@DU?$char_traits@D@std@@V?$allocator@D@2@@2@Verror_code@2@V32@@Z 10050977 f i libcpmt:thread0.obj
 0001:0004f9fa       ?_Throw_C_error@std@@YAXH@Z 100509fa f   libcpmt:thread0.obj
 0001:0004fa27       ?_Throw_Cpp_error@std@@YAXH@Z 10050a27 f   libcpmt:thread0.obj
 0001:0004fa5c       ?append@?$basic_string@DU?$char_traits@D@std@@V?$allocator@D@2@@std@@QAEAAV12@ABV12@II@Z 10050a5c f i libcpmt:thread0.obj
 0001:0004faff       ?append@?$basic_string@DU?$char_traits@D@std@@V?$allocator@D@2@@std@@QAEAAV12@PBDI@Z 10050aff f i libcpmt:thread0.obj
 0001:0004fba2       ?default_error_condition@error_category@std@@UBE?AVerror_condition@2@H@Z 10050ba2 f i libcpmt:thread0.obj
 0001:0004fbb4       ?equivalent@error_category@std@@UBE_NABVerror_code@2@H@Z 10050bb4 f i libcpmt:thread0.obj
 0001:0004fbd9       ?equivalent@error_category@std@@UBE_NHABVerror_condition@2@@Z 10050bd9 f i libcpmt:thread0.obj
 0001:0004fc0c       ?generic_category@std@@YAABVerror_category@1@XZ 10050c0c f i libcpmt:thread0.obj
 0001:0004fc11       ?message@_Generic_error_category@std@@UBE?AV?$basic_string@DU?$char_traits@D@std@@V?$allocator@D@2@@2@H@Z 10050c11 f i libcpmt:thread0.obj
 0001:0004fc34       ?message@error_code@std@@QBE?AV?$basic_string@DU?$char_traits@D@std@@V?$allocator@D@2@@2@XZ 10050c34 f i libcpmt:thread0.obj
 0001:0004fc61       ?name@_Generic_error_category@std@@UBEPBDXZ 10050c61 f i libcpmt:thread0.obj
 0001:0004fc67       ??0stl_critical_section_vista@details@Concurrency@@QAE@XZ 10050c67 f i libcpmt:mutex.obj
 0001:0004fc87       ??0stl_critical_section_win7@details@Concurrency@@QAE@XZ 10050c87 f i libcpmt:mutex.obj
 0001:0004fc9e       ??1GlobalCore@details@Concurrency@@QAE@XZ 10050c9e f i libcpmt:mutex.obj
 0001:0004fcab       ??_EGlobalCore@details@Concurrency@@QAEPAXI@Z 10050cab f i libcpmt:mutex.obj
 0001:0004fd33       ??_H@YGXPAXIIP6EPAX0@Z@Z   10050d33 f i libcpmt:mutex.obj
 0001:0004fd5d       ?create_stl_critical_section@details@Concurrency@@YAXPAVstl_critical_section_interface@12@@Z 10050d5d f i libcpmt:mutex.obj
 0001:0004fdd2       ?destroy@stl_critical_section_concrt@details@Concurrency@@UAEXXZ 10050dd2 f i libcpmt:mutex.obj
 0001:0004fdda       ?destroy@stl_critical_section_vista@details@Concurrency@@UAEXXZ 10050dda f i libcpmt:mutex.obj
 0001:0004fde5       ?lock@stl_critical_section_concrt@details@Concurrency@@UAEXXZ 10050de5 f i libcpmt:mutex.obj
 0001:0004fded       ?lock@stl_critical_section_vista@details@Concurrency@@UAEXXZ 10050ded f i libcpmt:mutex.obj
 0001:0004fdf8       ?lock@stl_critical_section_win7@details@Concurrency@@UAEXXZ 10050df8 f i libcpmt:mutex.obj
 0001:0004ff89       ?try_lock@stl_critical_section_concrt@details@Concurrency@@UAE_NXZ 10050f89 f i libcpmt:mutex.obj
 0001:0004ff91       ?try_lock@stl_critical_section_vista@details@Concurrency@@UAE_NXZ 10050f91 f i libcpmt:mutex.obj
 0001:0004ffa2       ?try_lock@stl_critical_section_win7@details@Concurrency@@UAE_NXZ 10050fa2 f i libcpmt:mutex.obj
 0001:0004ffb6       ?try_lock_for@stl_critical_section_concrt@details@Concurrency@@UAE_NI@Z 10050fb6 f i libcpmt:mutex.obj
 0001:0004ffc2       ?try_lock_for@stl_critical_section_vista@details@Concurrency@@UAE_NI@Z 10050fc2 f i libcpmt:mutex.obj
 0001:0004ffd5       ?try_lock_for@stl_critical_section_win7@details@Concurrency@@UAE_NI@Z 10050fd5 f i libcpmt:mutex.obj
 0001:0004ffdd       ?unlock@stl_critical_section_concrt@details@Concurrency@@UAEXXZ 10050fdd f i libcpmt:mutex.obj
 0001:0004ffe5       ?unlock@stl_critical_section_vista@details@Concurrency@@UAEXXZ 10050fe5 f i libcpmt:mutex.obj
 0001:0004fff0       ?unlock@stl_critical_section_win7@details@Concurrency@@UAEXXZ 10050ff0 f i libcpmt:mutex.obj
 0001:0004fffb       __Mtx_clear_owner          10050ffb f   libcpmt:mutex.obj
 0001:0005000a       __Mtx_destroy_in_situ      1005100a f   libcpmt:mutex.obj
 0001:00050028       __Mtx_getconcrtcs          10051028 f   libcpmt:mutex.obj
 0001:00050033       __Mtx_init_in_situ         10051033 f   libcpmt:mutex.obj
 0001:00050054       __Mtx_lock                 10051054 f   libcpmt:mutex.obj
 0001:00050065       __Mtx_reset_owner          10051065 f   libcpmt:mutex.obj
 0001:00050079       __Mtx_unlock               10051079 f   libcpmt:mutex.obj
 0001:000500a3       ?_Syserror_map@std@@YAPBDH@Z 100510a3 f   libcpmt:syserror.obj
 0001:000500c8       __Xtime_diff_to_millis2    100510c8 f   libcpmt:xtime.obj
 0001:0005010a       __Xtime_get_ticks          1005110a f   libcpmt:xtime.obj
 0001:000501d0       _xtime_get                 100511d0 f   libcpmt:xtime.obj
 0001:000505c1       ___crtAcquireSRWLockExclusive 100515c1 f   libcpmt:winapisupp.obj
 0001:000505e0       ___crtCloseThreadpoolTimer 100515e0 f   libcpmt:winapisupp.obj
 0001:00050601       ___crtCloseThreadpoolWait  10051601 f   libcpmt:winapisupp.obj
 0001:00050622       ___crtCreateEventExW       10051622 f   libcpmt:winapisupp.obj
 0001:00050667       ___crtCreateSemaphoreExW   10051667 f   libcpmt:winapisupp.obj
 0001:000506bd       ___crtCreateThreadpoolTimer 100516bd f   libcpmt:winapisupp.obj
 0001:000506e8       ___crtCreateThreadpoolWait 100516e8 f   libcpmt:winapisupp.obj
 0001:00050713       ___crtFlushProcessWriteBuffers 10051713 f   libcpmt:winapisupp.obj
 0001:0005072d       ___crtFreeLibraryWhenCallbackReturns 1005172d f   libcpmt:winapisupp.obj
 0001:00050751       ___crtGetCurrentProcessorNumber 10051751 f   libcpmt:winapisupp.obj
 0001:0005076f       ___crtGetSystemTimePreciseAsFileTime 1005176f f   libcpmt:winapisupp.obj
 0001:00050798       ___crtGetTickCount64       10051798 f   libcpmt:winapisupp.obj
 0001:000507bc       ___crtInitializeConditionVariable 100517bc f   libcpmt:winapisupp.obj
 0001:000507db       ___crtInitializeCriticalSectionEx 100517db f   libcpmt:winapisupp.obj
 0001:00050813       ___crtInitializeSRWLock    10051813 f   libcpmt:winapisupp.obj
 0001:00050832       ___crtReleaseSRWLockExclusive 10051832 f   libcpmt:winapisupp.obj
 0001:00050851       ___crtSetThreadpoolTimer   10051851 f   libcpmt:winapisupp.obj
 0001:0005087b       ___crtSetThreadpoolWait    1005187b f   libcpmt:winapisupp.obj
 0001:000508a2       ___crtSleepConditionVariableCS 100518a2 f   libcpmt:winapisupp.obj
 0001:000508c7       ___crtSleepConditionVariableSRW 100518c7 f   libcpmt:winapisupp.obj
 0001:000508ef       ___crtTryAcquireSRWLockExclusive 100518ef f   libcpmt:winapisupp.obj
 0001:0005090e       ___crtWaitForThreadpoolTimerCallbacks 1005190e f   libcpmt:winapisupp.obj
 0001:00050932       ___crtWakeAllConditionVariable 10051932 f   libcpmt:winapisupp.obj
 0001:00050951       ___crtWakeConditionVariable 10051951 f   libcpmt:winapisupp.obj
 0001:00050970       @__security_check_cookie@4 10051970 f   LIBCMT:_secchk_.obj
 0001:00050a5d       __Init_thread_footer       10051a5d f   LIBCMT:thread_safe_statics.obj
 0001:00050a9c       __Init_thread_header       10051a9c f   LIBCMT:thread_safe_statics.obj
 0001:00050ae2       __Init_thread_lock         10051ae2 f   LIBCMT:thread_safe_statics.obj
 0001:00050aee       __Init_thread_notify       10051aee f   LIBCMT:thread_safe_statics.obj
 0001:00050b2f       __Init_thread_unlock       10051b2f f   LIBCMT:thread_safe_statics.obj
 0001:00050b3b       __Init_thread_wait         10051b3b f   LIBCMT:thread_safe_statics.obj
 0001:00050ba0       ??2@YAPAXI@Z               10051ba0 f   LIBCMT:new_scalar.obj
 0001:00050bd3       ??$__crt_fast_encode_pointer@P6GHPAU_RTL_CONDITION_VARIABLE@@PAU_RTL_CRITICAL_SECTION@@K@Z@@YAP6GHPAU_RTL_CONDITION_VARIABLE@@PAU_RTL_CRITICAL_SECTION@@K@ZQ6GH01K@Z@Z 10051bd3 f i LIBCMT:thread_safe_statics.obj
 0001:00050bd3       ??$__crt_fast_encode_pointer@P6GXPAU_RTL_CONDITION_VARIABLE@@@Z@@YAP6GXPAU_RTL_CONDITION_VARIABLE@@@ZQ6GX0@Z@Z 10051bd3 f i LIBCMT:thread_safe_statics.obj
 0001:00050bd3       ??$__crt_fast_encode_pointer@PAP6AXXZ@@YAPAP6AXXZQAP6AXXZ@Z 10051bd3 f i LIBCMT:utility.obj
 0001:00050bd3       ??$__crt_fast_encode_pointer@PAX@@YAPAXQAX@Z 10051bd3 f i libvcruntime:winapi_downlevel.obj
 0001:00050c34       ___scrt_acquire_startup_lock 10051c34 f   LIBCMT:utility.obj
 0001:00050c69       ___scrt_dllmain_after_initialize_c 10051c69 f   LIBCMT:utility.obj
 0001:00050c94       ___scrt_dllmain_before_initialize_c 10051c94 f   LIBCMT:utility.obj
 0001:00050ca2       ___scrt_dllmain_crt_thread_attach 10051ca2 f   LIBCMT:utility.obj
 0001:00050cc1       ___scrt_dllmain_crt_thread_detach 10051cc1 f   LIBCMT:utility.obj
 0001:00050cce       ___scrt_dllmain_exception_filter 10051cce f   LIBCMT:utility.obj
 0001:00050d01       ___scrt_dllmain_uninitialize_c 10051d01 f   LIBCMT:utility.obj
 0001:00050d24       ___scrt_dllmain_uninitialize_critical 10051d24 f   LIBCMT:utility.obj
 0001:00050d31       ___scrt_initialize_crt     10051d31 f   LIBCMT:utility.obj
 0001:00050d6a       ___scrt_initialize_onexit_tables 10051d6a f   LIBCMT:utility.obj
 0001:00050e01       ___scrt_is_nonwritable_in_current_image 10051e01 f   LIBCMT:utility.obj
 0001:00050e8b       ___scrt_release_startup_lock 10051e8b f   LIBCMT:utility.obj
 0001:00050ea8       ___scrt_uninitialize_crt   10051ea8 f   LIBCMT:utility.obj
 0001:00050ed0       __onexit                   10051ed0 f   LIBCMT:utility.obj
 0001:00050f0b       _atexit                    10051f0b f   LIBCMT:utility.obj
 0001:00050f20       ??3@YAXPAX@Z               10051f20 f   LIBCMT:delete_scalar.obj
 0001:00050f25       ??3@YAXPAXI@Z              10051f25 f   LIBCMT:delete_scalar_size.obj
 0001:00050f33       ??_V@YAXPAX@Z              10051f33 f   LIBCMT:delete_array.obj
 0001:00050f38       ??_U@YAPAXI@Z              10051f38 f   LIBCMT:new_array.obj
 0001:00050f41       ??_Etype_info@@UAEPAXI@Z   10051f41 f i LIBCMT:std_type_info_static.obj
 0001:00050f41       ??_Gtype_info@@UAEPAXI@Z   10051f41 f i LIBCMT:std_type_info_static.obj
 0001:0005126c       __DllMainCRTStartup@12     1005226c f   LIBCMT:dll_dllmain.obj
 0001:0005128f       @_guard_check_icall@4      1005228f f i LIBCMT:checkcfg.obj
 0001:00051295       __EH_epilog3               10052295 f   LIBCMT:ehprolg3.obj
 0001:000512aa       __EH_epilog3_GS            100522aa f   LIBCMT:ehprolg3.obj
 0001:000512bb       __EH_prolog3               100522bb f   LIBCMT:ehprolg3.obj
 0001:000512ef       __EH_prolog3_GS            100522ef f   LIBCMT:ehprolg3.obj
 0001:00051326       __EH_prolog3_catch         10052326 f   LIBCMT:ehprolg3.obj
 0001:0005135d       ??_M@YGXPAXIIP6EX0@Z@Z     1005235d f   LIBCMT:ehvecdtr.obj
 0001:000513d7       ?__ArrayUnwind@@YGXPAXIIP6EX0@Z@Z 100523d7 f   LIBCMT:ehvecdtr.obj
 0001:00051444       ??_V@YAXPAXI@Z             10052444 f   LIBCMT:delete_array_size.obj
 0001:00051460       __aulldvrm                 10052460 f   LIBCMT:ulldvrm.obj
 0001:000514f5       ___raise_securityfailure   100524f5 f   LIBCMT:gs_report.obj
 0001:0005151d       ___report_gsfailure        1005251d f   LIBCMT:gs_report.obj
 0001:00051618       ___scrt_fastfail           10052618 f   LIBCMT:utility_desktop.obj
 0001:00051733       __crt_debugger_hook        10052733 f   LIBCMT:utility_desktop.obj
 0001:0005173b       ??0bad_array_new_length@std@@QAE@ABV01@@Z 1005273b f i LIBCMT:throw_bad_alloc.obj
 0001:00051756       ??0bad_array_new_length@std@@QAE@XZ 10052756 f i LIBCMT:throw_bad_alloc.obj
 0001:0005176e       ?__scrt_throw_std_bad_array_new_length@@YAXXZ 1005276e f   LIBCMT:throw_bad_alloc.obj
 0001:0005178b       ___isa_available_init      1005278b f   LIBCMT:_cpu_disp_.obj
 0001:00051925       ___scrt_is_ucrt_dll_in_use 10052925 f   LIBCMT:ucrt_detection.obj
 0001:00051940       __SEH_prolog4              10052940 f   LIBCMT:_sehprolg4_.obj
 0001:00051986       __SEH_epilog4              10052986 f   LIBCMT:_sehprolg4_.obj
 0001:0005199b       ___security_init_cookie    1005299b f   LIBCMT:gs_support.obj
 0001:00051a37       ?__scrt_initialize_type_info@@YAXXZ 10052a37 f   LIBCMT:tncleanup.obj
 0001:00051a43       ?__scrt_uninitialize_type_info@@YAXXZ 10052a43 f   LIBCMT:tncleanup.obj
 0001:00051a4f       ___scrt_initialize_default_local_stdio_options 10052a4f f   LIBCMT:default_local_stdio_options.obj
 0001:00051a6c       ___scrt_get_dyn_tls_init_callback 10052a6c f   LIBCMT:dyn_tls_init.obj
 0001:00051a72       __RTC_Initialize           10052a72 f   LIBCMT:_initsect_.obj
 0001:00051a9d       __RTC_Terminate            10052a9d f   LIBCMT:_initsect_.obj
 0001:00051ac8       ??0LockQueueNode@details@Concurrency@@QAE@I@Z 10052ac8 f i libconcrt:rtlocks.obj
 0001:00051b6e       ??0_ReaderWriterLock@details@Concurrency@@QAE@XZ 10052b6e f   libconcrt:rtlocks.obj
 0001:00051b7e       ??0_NonReentrantBlockingLock@details@Concurrency@@QAE@XZ 10052b7e f   libconcrt:rtlocks.obj
 0001:00051b7e       ??0_ReentrantBlockingLock@details@Concurrency@@QAE@XZ 10052b7e f   libconcrt:rtlocks.obj
 0001:00051b93       ??0critical_section@Concurrency@@QAE@XZ 10052b93 f   libconcrt:rtlocks.obj
 0001:00051bbd       ??0improper_lock@Concurrency@@QAE@ABV01@@Z 10052bbd f i libconcrt:rtlocks.obj
 0001:00051bd8       ??0scoped_lock@critical_section@Concurrency@@QAE@AAV12@@Z 10052bd8 f   libconcrt:rtlocks.obj
 0001:00051c1d       ??1_ReentrantBlockingLock@details@Concurrency@@QAE@XZ 10052c1d f   libconcrt:rtlocks.obj
 0001:00051c1d       ??1_NonReentrantBlockingLock@details@Concurrency@@QAE@XZ 10052c1d f   libconcrt:rtlocks.obj
 0001:00051c25       ??1scoped_lock@critical_section@Concurrency@@QAE@XZ 10052c25 f   libconcrt:rtlocks.obj
 0001:00051c5d       ?Block@LockQueueNode@details@Concurrency@@QAEXI@Z 10052c5d f i libconcrt:rtlocks.obj
 0001:00051ce5       ?CurrentContext@SchedulerBase@details@Concurrency@@SAPAVContextBase@23@XZ 10052ce5 f i libconcrt:rtlocks.obj
 0001:00051d07       ?DerefTimerNode@LockQueueNode@details@Concurrency@@QAEXXZ 10052d07 f i libconcrt:rtlocks.obj
 0001:00051d26       ?DispatchNodeTimeoutTimer@LockQueueNode@details@Concurrency@@SGXPAU_TP_CALLBACK_INSTANCE@@PAXPAU_TP_TIMER@@@Z 10052d26 f i libconcrt:rtlocks.obj
 0001:00051d6c       ?DispatchNodeTimeoutTimerXP@LockQueueNode@details@Concurrency@@SGXPAXE@Z 10052d6c f i libconcrt:rtlocks.obj
 0001:00051db8       ?TryCompensateTimer@LockQueueNode@details@Concurrency@@QAEXXZ 10052db8 f i libconcrt:rtlocks.obj
 0001:00051ddd       ?Unblock@LockQueueNode@details@Concurrency@@QAE_NXZ 10052ddd f i libconcrt:rtlocks.obj
 0001:00051e0e       ?UpdateQueuePosition@LockQueueNode@details@Concurrency@@QAEXPAV123@@Z 10052e0e f i libconcrt:rtlocks.obj
 0001:00051e77       ?WaitForNextNode@LockQueueNode@details@Concurrency@@QAEPAV123@XZ 10052e77 f i libconcrt:rtlocks.obj
 0001:00051ea4       ?_Acquire@_ReentrantBlockingLock@details@Concurrency@@QAEXXZ 10052ea4 f   libconcrt:rtlocks.obj
 0001:00051ea4       ?_Acquire@_NonReentrantBlockingLock@details@Concurrency@@QAEXXZ 10052ea4 f   libconcrt:rtlocks.obj
 0001:00051eac       ?_AcquireRead@_ReaderWriterLock@details@Concurrency@@QAEXXZ 10052eac f   libconcrt:rtlocks.obj
 0001:00051edc       ?_AcquireWrite@_ReaderWriterLock@details@Concurrency@@QAEXXZ 10052edc f   libconcrt:rtlocks.obj
 0001:00051f0a       ?_Acquire_lock@critical_section@Concurrency@@QAE_NPAX_N@Z 10052f0a f   libconcrt:rtlocks.obj
 0001:00051fab       ?_FlushWriteOwners@_ReaderWriterLock@details@Concurrency@@QAEXXZ 10052fab f   libconcrt:rtlocks.obj
 0001:00051fc1       ?_Flush_current_owner@critical_section@Concurrency@@QAEXXZ 10052fc1 f   libconcrt:rtlocks.obj
 0001:00051fd9       ?_Initialize@_SpinCount@details@Concurrency@@SAXXZ 10052fd9 f   libconcrt:rtlocks.obj
 0001:00051ff0       ?_Release@_NonReentrantBlockingLock@details@Concurrency@@QAEXXZ 10052ff0 f   libconcrt:rtlocks.obj
 0001:00051ff0       ?_Release@_ReentrantBlockingLock@details@Concurrency@@QAEXXZ 10052ff0 f   libconcrt:rtlocks.obj
 0001:00051ff8       ?_ReleaseRead@_ReaderWriterLock@details@Concurrency@@QAEXXZ 10052ff8 f   libconcrt:rtlocks.obj
 0001:00051ffc       ?_ReleaseWrite@_ReaderWriterLock@details@Concurrency@@QAEXXZ 10052ffc f   libconcrt:rtlocks.obj
 0001:00052007       ?_SetSpinCount@?$_SpinWait@$00@details@Concurrency@@QAEXI@Z 10053007 f i libconcrt:rtlocks.obj
 0001:00052029       ?_SetSpinCount@?$_SpinWait@$0A@@details@Concurrency@@QAEXI@Z 10053029 f i libconcrt:rtlocks.obj
 0001:0005204d       ?_SpinOnce@?$_SpinWait@$00@details@Concurrency@@QAE_NXZ 1005304d f i libconcrt:rtlocks.obj
 0001:000520d4       ?_SpinOnce@?$_SpinWait@$0A@@details@Concurrency@@QAE_NXZ 100530d4 f i libconcrt:rtlocks.obj
 0001:0005214b       ?_Switch_to_active@critical_section@Concurrency@@AAEXPAX@Z 1005314b f   libconcrt:rtlocks.obj
 0001:0005219a       ?_TryAcquireWrite@_ReaderWriterLock@details@Concurrency@@QAE_NXZ 1005319a f   libconcrt:rtlocks.obj
 0001:000521b1       ?_WaitEquals@_ReaderWriterLock@details@Concurrency@@CAXADJJJ@Z 100531b1 f   libconcrt:rtlocks.obj
 0001:000521ea       ?lock@critical_section@Concurrency@@QAEXXZ 100531ea f   libconcrt:rtlocks.obj
 0001:0005221a       ?try_lock@critical_section@Concurrency@@QAE_NXZ 1005321a f   libconcrt:rtlocks.obj
 0001:00052267       ?try_lock_for@critical_section@Concurrency@@QAE_NI@Z 10053267 f   libconcrt:rtlocks.obj
 0001:000522c5       ?unlock@critical_section@Concurrency@@QAEXXZ 100532c5 f   libconcrt:rtlocks.obj
 0001:00052336       ??0scheduler_resource_allocation_error@Concurrency@@QAE@ABV01@@Z 10053336 f i libconcrt:Platform.obj
 0001:0005235a       ??1DefaultWaiterPool@platform@details@Concurrency@@QAE@XZ 1005335a f i libconcrt:Platform.obj
 0001:0005237f       ??1WaiterThreadPool@platform@details@Concurrency@@QAE@XZ 1005337f f i libconcrt:Platform.obj
 0001:000523a1       ??_Gscheduler_resource_allocation_error@Concurrency@@UAEPAXI@Z 100533a1 f i libconcrt:Platform.obj
 0001:000523a1       ??_Escheduler_worker_creation_error@Concurrency@@UAEPAXI@Z 100533a1 f i libconcrt:Exceptions.obj
 0001:000523a1       ??_Gscheduler_worker_creation_error@Concurrency@@UAEPAXI@Z 100533a1 f i libconcrt:Exceptions.obj
 0001:000523a1       ??_Escheduler_resource_allocation_error@Concurrency@@UAEPAXI@Z 100533a1 f i libconcrt:Platform.obj
 0001:000523ce       ?InitializeSystemFunctionPointers@platform@details@Concurrency@@YAXXZ 100533ce f   libconcrt:Platform.obj
 0001:00052481       ?__ChangeTimerQueueTimer@platform@details@Concurrency@@YAHPAX0KK@Z 10053481 f   libconcrt:Platform.obj
 0001:00052498       ?__CloseThreadHandle@platform@details@Concurrency@@YAXPAX@Z 10053498 f   libconcrt:Platform.obj
 0001:000524a6       ?__CreateAutoResetEvent@platform@details@Concurrency@@YAPAX_N@Z 100534a6 f   libconcrt:Platform.obj
 0001:000524fd       ?__CreateThread@platform@details@Concurrency@@YAPAXPAU_SECURITY_ATTRIBUTES@@IP6GKPAX@Z1KPAK@Z 100534fd f   libconcrt:Platform.obj
 0001:0005251a       ?__CreateTimerQueueTimer@platform@details@Concurrency@@YAHPAPAXPAXP6GX1E@Z1KKK@Z 1005351a f   libconcrt:Platform.obj
 0001:0005253a       ?__DeleteTimerQueueTimer@platform@details@Concurrency@@YAXPAX00@Z 1005353a f   libconcrt:Platform.obj
 0001:00052569       ?__GetCurrentProcessorNumberEx@platform@details@Concurrency@@YAXPAU_PROCESSOR_NUMBER@@@Z 10053569 f   libconcrt:Platform.obj
 0001:0005258a       ?__GetLogicalProcessorInformation@platform@details@Concurrency@@YAPAU_SYSTEM_LOGICAL_PROCESSOR_INFORMATION@@PAK@Z 1005358a f   libconcrt:Platform.obj
 0001:00052615       ?__GetLogicalProcessorInformationEx@platform@details@Concurrency@@YAPAU_SYSTEM_LOGICAL_PROCESSOR_INFORMATION_EX@@W4_LOGICAL_PROCESSOR_RELATIONSHIP@@PAK@Z 10053615 f   libconcrt:Platform.obj
 0001:000526cb       ?__GetNumaHighestNodeNumber@platform@details@Concurrency@@YAKXZ 100536cb f   libconcrt:Platform.obj
 0001:00052712       ?__GetThreadGroupAffinity@platform@details@Concurrency@@YAHPAXPAU_GROUP_AFFINITY@@@Z 10053712 f   libconcrt:Platform.obj
 0001:0005276c       ?__GetThreadPriority@platform@details@Concurrency@@YAHPAX@Z 1005376c f   libconcrt:Platform.obj
 0001:0005277a       ?__GetTickCount64@platform@details@Concurrency@@YA_KXZ 1005377a f   libconcrt:Platform.obj
 0001:0005277f       ?__InitializeCriticalSectionEx@platform@details@Concurrency@@YAHPAU_RTL_CRITICAL_SECTION@@K@Z 1005377f f   libconcrt:Platform.obj
 0001:00052794       ?__RegisterWaitForSingleObject@platform@details@Concurrency@@YAPAXPAXP6GX0E@Z0@Z 10053794 f   libconcrt:Platform.obj
 0001:000527e8       ?__SetThreadGroupAffinity@platform@details@Concurrency@@YAHPAXPBU_GROUP_AFFINITY@@@Z 100537e8 f   libconcrt:Platform.obj
 0001:0005282b       ?__SetThreadPriority@platform@details@Concurrency@@YAXPAXH@Z 1005382b f   libconcrt:Platform.obj
 0001:00052871       ?__SignalObjectAndWait@platform@details@Concurrency@@YAKPAX0KH@Z 10053871 f   libconcrt:Platform.obj
 0001:00052888       ?__Sleep@platform@details@Concurrency@@YAXK@Z 10053888 f   libconcrt:Platform.obj
 0001:00052896       ?__SwitchToThread@platform@details@Concurrency@@YAXXZ 10053896 f   libconcrt:Platform.obj
 0001:0005289c       ?__TlsAlloc@platform@details@Concurrency@@YAKXZ 1005389c f   libconcrt:Platform.obj
 0001:000528dd       ?__TlsFree@platform@details@Concurrency@@YAXK@Z 100538dd f   libconcrt:Platform.obj
 0001:000528eb       ?__TlsGetValue@platform@details@Concurrency@@YAPAXK@Z 100538eb f   libconcrt:Platform.obj
 0001:000528f9       ?__TlsSetValue@platform@details@Concurrency@@YAXKPAX@Z 100538f9 f   libconcrt:Platform.obj
 0001:0005293f       ?__UnregisterWait@platform@details@Concurrency@@YAXPAX@Z 1005393f f   libconcrt:Platform.obj
 0001:0005294d       ?__WaitForThread@platform@details@Concurrency@@YAKPAXK@Z 1005394d f   libconcrt:Platform.obj
 0001:00052960       ?notify@WaiterThread@platform@details@Concurrency@@AAEX_N@Z 10053960 f i libconcrt:Platform.obj
 0001:00052994       __concrt_static_cleanup    10053994 f   libconcrt:utils.obj
 0001:000529a2       ?DeleteAsyncTimerAndUnloadLibrary@details@Concurrency@@YAXPAU_TP_TIMER@@@Z 100539a2 f   libconcrt:utils.obj
 0001:000529de       ?DecodePointer@Security@details@Concurrency@@SAPAXPAX@Z 100539de f   libconcrt:utils.obj
 0001:000529de       ?EncodePointer@Security@details@Concurrency@@SAPAXPAX@Z 100539de f   libconcrt:utils.obj
 0001:000529eb       ?FreeLibraryAndDestroyThread@details@Concurrency@@YAXK@Z 100539eb f   libconcrt:utils.obj
 0001:00052a15       ?InitializeCookie@Security@details@Concurrency@@SAKXZ 10053a15 f   libconcrt:utils.obj
 0001:00052a63       ?LoadLibraryAndCreateThread@details@Concurrency@@YAPAXPAU_SECURITY_ATTRIBUTES@@KP6GKPAX@Z1KPAK@Z 10053a63 f   libconcrt:utils.obj
 0001:00052aa9       ?ReferenceLoadLibrary@details@Concurrency@@YAXXZ 10053aa9 f   libconcrt:utils.obj
 0001:00052b3f       ?RegisterAsyncTimerAndLoadLibrary@details@Concurrency@@YAPAU_TP_TIMER@@KP6GXPAU_TP_CALLBACK_INSTANCE@@PAXPAU3@@Z1_N@Z 10053b3f f   libconcrt:utils.obj
 0001:00052ba0       ?RegisterAsyncWaitAndLoadLibrary@details@Concurrency@@YAPAU_TP_WAIT@@PAXP6GXPAU_TP_CALLBACK_INSTANCE@@0PAU3@K@Z0@Z 10053ba0 f   libconcrt:utils.obj
 0001:00052bd9       ?UnRegisterAsyncTimerAndUnloadLibrary@details@Concurrency@@YAXPAU_TP_CALLBACK_INSTANCE@@PAU_TP_TIMER@@@Z 10053bd9 f   libconcrt:utils.obj
 0001:00052c0f       ?UnRegisterAsyncWaitAndUnloadLibrary@details@Concurrency@@YAXPAU_TP_CALLBACK_INSTANCE@@PAU_TP_WAIT@@@Z 10053c0f f   libconcrt:utils.obj
 0001:00052c44       ?_Acquire@_CriticalNonReentrantLock@details@Concurrency@@QAEXXZ 10053c44 f   libconcrt:utils.obj
 0001:00052c44       ?_Acquire@_HyperNonReentrantLock@details@Concurrency@@QAEXXZ 10053c44 f   libconcrt:utils.obj
 0001:00052c54       ?_Acquire@_NonReentrantLock@details@Concurrency@@QAEXXZ 10053c54 f i libconcrt:utils.obj
 0001:00052c87       ?_Release@_HyperNonReentrantLock@details@Concurrency@@QAEXXZ 10053c87 f   libconcrt:utils.obj
 0001:00052c87       ?_Release@_CriticalNonReentrantLock@details@Concurrency@@QAEXXZ 10053c87 f   libconcrt:utils.obj
 0001:00052c92       ?_Sleep0@details@Concurrency@@YAXXZ 10053c92 f   libconcrt:utils.obj
 0001:00052c9b       ?_TryAcquire@_CriticalNonReentrantLock@details@Concurrency@@QAE_NXZ 10053c9b f   libconcrt:utils.obj
 0001:00052cbb       ?_TryAcquire@_NonReentrantLock@details@Concurrency@@QAE_NXZ 10053cbb f i libconcrt:utils.obj
 0001:00052cd0       ?_UnderlyingYield@details@Concurrency@@YAXXZ 10053cd0 f   libconcrt:utils.obj
 0001:00052cf6       __vfwprintf_l              10053cf6 f i libconcrt:utils.obj
 0001:00052d19       _fwprintf                  10053d19 f i libconcrt:utils.obj
 0001:00052d32       ??0context_self_unblock@Concurrency@@QAE@XZ 10053d32 f   libconcrt:Exceptions.obj
 0001:00052d43       ??0context_unblock_unbalanced@Concurrency@@QAE@XZ 10053d43 f   libconcrt:Exceptions.obj
 0001:00052d54       ??0improper_lock@Concurrency@@QAE@PBD@Z 10053d54 f   libconcrt:Exceptions.obj
 0001:00052d6f       ??0improper_scheduler_attach@Concurrency@@QAE@XZ 10053d6f f   libconcrt:Exceptions.obj
 0001:00052d80       ??0improper_scheduler_reference@Concurrency@@QAE@XZ 10053d80 f   libconcrt:Exceptions.obj
 0001:00052d91       ??0invalid_oversubscribe_operation@Concurrency@@QAE@XZ 10053d91 f   libconcrt:Exceptions.obj
 0001:00052da2       ??0invalid_scheduler_policy_key@Concurrency@@QAE@PBD@Z 10053da2 f   libconcrt:Exceptions.obj
 0001:00052dbd       ??0invalid_scheduler_policy_thread_specification@Concurrency@@QAE@XZ 10053dbd f   libconcrt:Exceptions.obj
 0001:00052dce       ??0invalid_scheduler_policy_value@Concurrency@@QAE@PBD@Z 10053dce f   libconcrt:Exceptions.obj
 0001:00052de9       ??0missing_wait@Concurrency@@QAE@XZ 10053de9 f   libconcrt:Exceptions.obj
 0001:00052dfa       ??0nested_scheduler_missing_detach@Concurrency@@QAE@XZ 10053dfa f   libconcrt:Exceptions.obj
 0001:00052e0b       ??0scheduler_resource_allocation_error@Concurrency@@QAE@J@Z 10053e0b f   libconcrt:Exceptions.obj
 0001:00052e28       ??0scheduler_worker_creation_error@Concurrency@@QAE@J@Z 10053e28 f   libconcrt:Exceptions.obj
 0001:00052e45       ??0unsupported_os@Concurrency@@QAE@XZ 10053e45 f   libconcrt:Exceptions.obj
 0001:00052e56       ??_Ginvalid_operation@Concurrency@@UAEPAXI@Z 10053e56 f i libconcrt:ResourceManager.obj
 0001:00052e56       ??_Ginvalid_argument@std@@UAEPAXI@Z 10053e56 f i libcpmt:xthrow.obj
 0001:00052e56       ??_Eimproper_scheduler_attach@Concurrency@@UAEPAXI@Z 10053e56 f i libconcrt:Exceptions.obj
 0001:00052e56       ??_Eunsupported_os@Concurrency@@UAEPAXI@Z 10053e56 f i libconcrt:Exceptions.obj
 0001:00052e56       ??_E__non_rtti_object@std@@UAEPAXI@Z 10053e56 f i libvcruntime:rtti.obj
 0001:00052e56       ??_Ebad_cast@std@@UAEPAXI@Z 10053e56 f i libvcruntime:rtti.obj
 0001:00052e56       ??_Eimproper_scheduler_reference@Concurrency@@UAEPAXI@Z 10053e56 f i libconcrt:Exceptions.obj
 0001:00052e56       ??_Eimproper_lock@Concurrency@@UAEPAXI@Z 10053e56 f i libconcrt:rtlocks.obj
 0001:00052e56       ??_E_Interruption_exception@details@Concurrency@@UAEPAXI@Z 10053e56 f i libconcrt:TaskCollection.obj
 0001:00052e56       ??_Gcontext_self_unblock@Concurrency@@UAEPAXI@Z 10053e56 f i libconcrt:Exceptions.obj
 0001:00052e56       ??_Gimproper_scheduler_attach@Concurrency@@UAEPAXI@Z 10053e56 f i libconcrt:Exceptions.obj
 0001:00052e56       ??_Ginvalid_scheduler_policy_thread_specification@Concurrency@@UAEPAXI@Z 10053e56 f i libconcrt:Exceptions.obj
 0001:00052e56       ??_Gimproper_lock@Concurrency@@UAEPAXI@Z 10053e56 f i libconcrt:rtlocks.obj
 0001:00052e56       ??_Ebad_function_call@std@@UAEPAXI@Z 10053e56 f i libcpmt:xthrow.obj
 0001:00052e56       ??_Gbad_alloc@std@@UAEPAXI@Z 10053e56 f i libcpmt:xthrow.obj
 0001:00052e56       ??_Econtext_unblock_unbalanced@Concurrency@@UAEPAXI@Z 10053e56 f i libconcrt:Exceptions.obj
 0001:00052e56       ??_Gruntime_error@std@@UAEPAXI@Z 10053e56 f i libcpmt:xthrow.obj
 0001:00052e56       ??_Emissing_wait@Concurrency@@UAEPAXI@Z 10053e56 f i libconcrt:Exceptions.obj
 0001:00052e56       ??_Einvalid_operation@Concurrency@@UAEPAXI@Z 10053e56 f i libconcrt:ResourceManager.obj
 0001:00052e56       ??_Gbad_cast@std@@UAEPAXI@Z 10053e56 f i libvcruntime:rtti.obj
 0001:00052e56       ??_Ginvalid_oversubscribe_operation@Concurrency@@UAEPAXI@Z 10053e56 f i libconcrt:Exceptions.obj
 0001:00052e56       ??_Eout_of_range@std@@UAEPAXI@Z 10053e56 f i libcpmt:xthrow.obj
 0001:00052e56       ??_Elength_error@std@@UAEPAXI@Z 10053e56 f i libcpmt:xthrow.obj
 0001:00052e56       ??_Ebad_exception@std@@UAEPAXI@Z 10053e56 f i libvcruntime:frame.obj
 0001:00052e56       ??_G__non_rtti_object@std@@UAEPAXI@Z 10053e56 f i libvcruntime:rtti.obj
 0001:00052e56       ??_Econtext_self_unblock@Concurrency@@UAEPAXI@Z 10053e56 f i libconcrt:Exceptions.obj
 0001:00052e56       ??_Einvalid_scheduler_policy_value@Concurrency@@UAEPAXI@Z 10053e56 f i libconcrt:Exceptions.obj
 0001:00052e56       ??_Enested_scheduler_missing_detach@Concurrency@@UAEPAXI@Z 10053e56 f i libconcrt:Exceptions.obj
 0001:00052e56       ??_Ginvalid_scheduler_policy_value@Concurrency@@UAEPAXI@Z 10053e56 f i libconcrt:Exceptions.obj
 0001:00052e56       ??_Ebad_array_new_length@std@@UAEPAXI@Z 10053e56 f i LIBCMT:throw_bad_alloc.obj
 0001:00052e56       ??_Eruntime_error@std@@UAEPAXI@Z 10053e56 f i libcpmt:xthrow.obj
 0001:00052e56       ??_Eexception@std@@UAEPAXI@Z 10053e56 f i libcpmt:xthrow.obj
 0001:00052e56       ??_Gbad_function_call@std@@UAEPAXI@Z 10053e56 f i libcpmt:xthrow.obj
 0001:00052e56       ??_Einvalid_argument@std@@UAEPAXI@Z 10053e56 f i libcpmt:xthrow.obj
 0001:00052e56       ??_G_Interruption_exception@details@Concurrency@@UAEPAXI@Z 10053e56 f i libconcrt:TaskCollection.obj
 0001:00052e56       ??_Gcontext_unblock_unbalanced@Concurrency@@UAEPAXI@Z 10053e56 f i libconcrt:Exceptions.obj
 0001:00052e56       ??_Glogic_error@std@@UAEPAXI@Z 10053e56 f i libcpmt:xthrow.obj
 0001:00052e56       ??_Gout_of_range@std@@UAEPAXI@Z 10053e56 f i libcpmt:xthrow.obj
 0001:00052e56       ??_Gunsupported_os@Concurrency@@UAEPAXI@Z 10053e56 f i libconcrt:Exceptions.obj
 0001:00052e56       ??_Gnested_scheduler_missing_detach@Concurrency@@UAEPAXI@Z 10053e56 f i libconcrt:Exceptions.obj
 0001:00052e56       ??_Ebad_typeid@std@@UAEPAXI@Z 10053e56 f i libvcruntime:rtti.obj
 0001:00052e56       ??_Gmissing_wait@Concurrency@@UAEPAXI@Z 10053e56 f i libconcrt:Exceptions.obj
 0001:00052e56       ??_Gbad_array_new_length@std@@UAEPAXI@Z 10053e56 f i LIBCMT:throw_bad_alloc.obj
 0001:00052e56       ??_Einvalid_oversubscribe_operation@Concurrency@@UAEPAXI@Z 10053e56 f i libconcrt:Exceptions.obj
 0001:00052e56       ??_Gbad_typeid@std@@UAEPAXI@Z 10053e56 f i libvcruntime:rtti.obj
 0001:00052e56       ??_Gexception@std@@UAEPAXI@Z 10053e56 f i libcpmt:xthrow.obj
 0001:00052e56       ??_Einvalid_scheduler_policy_thread_specification@Concurrency@@UAEPAXI@Z 10053e56 f i libconcrt:Exceptions.obj
 0001:00052e56       ??_Elogic_error@std@@UAEPAXI@Z 10053e56 f i libcpmt:xthrow.obj
 0001:00052e56       ??_Glength_error@std@@UAEPAXI@Z 10053e56 f i libcpmt:xthrow.obj
 0001:00052e56       ??_Ebad_alloc@std@@UAEPAXI@Z 10053e56 f i libcpmt:xthrow.obj
 0001:00052e56       ??_Ginvalid_scheduler_policy_key@Concurrency@@UAEPAXI@Z 10053e56 f i libconcrt:Exceptions.obj
 0001:00052e56       ??_Gbad_exception@std@@UAEPAXI@Z 10053e56 f i libvcruntime:frame.obj
 0001:00052e56       ??_Gimproper_scheduler_reference@Concurrency@@UAEPAXI@Z 10053e56 f i libconcrt:Exceptions.obj
 0001:00052e56       ??_Einvalid_scheduler_policy_key@Concurrency@@UAEPAXI@Z 10053e56 f i libconcrt:Exceptions.obj
 0001:00052e83       ?Block@Context@Concurrency@@SAXXZ 10053e83 f   libconcrt:Context.obj
 0001:00052e9f       ?CurrentContext@Context@Concurrency@@SAPAV12@XZ 10053e9f f   libconcrt:Context.obj
 0001:00052ea4       ??0HardwareAffinity@details@Concurrency@@QAE@PAX@Z 10053ea4 f   libconcrt:ResourceManager.obj
 0001:00052ec5       ??0ResourceManager@details@Concurrency@@AAE@XZ 10053ec5 f   libconcrt:ResourceManager.obj
 0001:00052fa8       ??0SchedulerCore@details@Concurrency@@QAE@XZ 10053fa8 f i libconcrt:ResourceManager.obj
 0001:00052fb3       ??0invalid_operation@Concurrency@@QAE@ABV01@@Z 10053fb3 f i libconcrt:ResourceManager.obj
 0001:00052fce       ??0invalid_operation@Concurrency@@QAE@XZ 10053fce f i libconcrt:ResourceManager.obj
 0001:00052fdf       ??0unsupported_os@Concurrency@@QAE@ABV01@@Z 10053fdf f i libconcrt:ResourceManager.obj
 0001:00052ffa       ??1GlobalNode@details@Concurrency@@QAE@XZ 10053ffa f i libconcrt:ResourceManager.obj
 0001:00053007       ??1ResourceManager@details@Concurrency@@AAE@XZ 10054007 f   libconcrt:ResourceManager.obj
 0001:000530dc       ??1_Scoped_lock@_NonReentrantLock@details@Concurrency@@QAE@XZ 100540dc f i libconcrt:ResourceManager.obj
 0001:000530e5       ??_EGlobalNode@details@Concurrency@@QAEPAXI@Z 100540e5 f i libconcrt:ResourceManager.obj
 0001:0005316d       ??_GAffinityRestriction@ResourceManager@details@Concurrency@@QAEPAXI@Z 1005416d f i libconcrt:ResourceManager.obj
 0001:00053196       ?AddTail@?$List@VSchedulerProxy@details@Concurrency@@VCount@CollectionTypes@23@@details@Concurrency@@QAEXPAVSchedulerProxy@23@@Z 10054196 f i libconcrt:ResourceManager.obj
 0001:000531cf       ?AdjustDynamicAllocation@ResourceManager@details@Concurrency@@AAEIIII@Z 100541cf f   libconcrt:ResourceManager.obj
 0001:000532a1       ?ApplyAffinityLimits@AffinityRestriction@ResourceManager@details@Concurrency@@QAEXPAU_GROUP_AFFINITY@@@Z 100542a1 f i libconcrt:ResourceManager.obj
 0001:000532c4       ?ApplyAffinityRestrictions@ResourceManager@details@Concurrency@@CAXPAK@Z 100542c4 f   libconcrt:ResourceManager.obj
 0001:000532f5       ?ApplyAffinityRestrictions@ResourceManager@details@Concurrency@@CAXPAU_GROUP_AFFINITY@@@Z 100542f5 f   libconcrt:ResourceManager.obj
 0001:0005331c       ?ApplyTo@HardwareAffinity@details@Concurrency@@QAEXPAX@Z 1005431c f   libconcrt:ResourceManager.obj
 0001:0005332e       ?CaptureProcessAffinity@ResourceManager@details@Concurrency@@CAXXZ 1005432e f   libconcrt:ResourceManager.obj
 0001:0005344e       ?CleanupTopologyInformation@ResourceManager@details@Concurrency@@CAXXZ 1005444e f   libconcrt:ResourceManager.obj
 0001:00053469       ?CommitStolenCores@ResourceManager@details@Concurrency@@AAEXPAVSchedulerProxy@23@@Z 10054469 f   libconcrt:ResourceManager.obj
 0001:00053578       ?ComputeDesiredHWThreadsWithExternalThread@SchedulerProxy@details@Concurrency@@QBEIXZ 10054578 f i libconcrt:ResourceManager.obj
 0001:0005359b       ?ComputeMinHWThreadsWithExternalThread@SchedulerProxy@details@Concurrency@@QBEIXZ 1005459b f i libconcrt:ResourceManager.obj
 0001:000535c8       ?CreateAllocatedNodeData@ResourceManager@details@Concurrency@@QAEPAUSchedulerNode@23@XZ 100545c8 f   libconcrt:ResourceManager.obj
 0001:000536ff       ?CreateDynamicRMWorker@ResourceManager@details@Concurrency@@AAEXXZ 100546ff f   libconcrt:ResourceManager.obj
 0001:00053762       ?CreateNodeTopology@ResourceManager@details@Concurrency@@UAEXIPAIPAPAI0@Z 10054762 f   libconcrt:ResourceManager.obj
 0001:00053765       ?CreateResourceManager@Concurrency@@YAPAUIResourceManager@1@XZ 10054765 f   libconcrt:ResourceManager.obj
 0001:0005376a       ?CreateSchedulerProxy@ResourceManager@details@Concurrency@@AAEPAVSchedulerProxy@23@PAUIScheduler@3@@Z 1005476a f   libconcrt:ResourceManager.obj
 0001:000537cb       ?CreateSingleton@ResourceManager@details@Concurrency@@SAPAV123@XZ 100547cb f   libconcrt:ResourceManager.obj
 0001:0005385e       ?CurrentSubscriptionLevel@ResourceManager@details@Concurrency@@QAEIII@Z 1005485e f   libconcrt:ResourceManager.obj
 0001:000538c8       ?DesiredHWThreads@SchedulerProxy@details@Concurrency@@QBEIXZ 100548c8 f i libconcrt:ResourceManager.obj
 0001:000538e1       ?DestroyAllocatedNodeData@ResourceManager@details@Concurrency@@QAEXPAUSchedulerNode@23@@Z 100548e1 f   libconcrt:ResourceManager.obj
 0001:0005391d       ?DetermineTopology@ResourceManager@details@Concurrency@@AAEXXZ 1005491d f   libconcrt:ResourceManager.obj
 0001:00053c30       ?DiscardExistingSchedulerStatistics@ResourceManager@details@Concurrency@@AAEXXZ 10054c30 f   libconcrt:ResourceManager.obj
 0001:00053c9c       ?DistributeCoresToSurvivingScheduler@ResourceManager@details@Concurrency@@AAE_NXZ 10054c9c f   libconcrt:ResourceManager.obj
 0001:00053e41       ?DistributeExclusiveCores@ResourceManager@details@Concurrency@@AAEXIIIII@Z 10054e41 f   libconcrt:ResourceManager.obj
 0001:00053f83       ?DistributeIdleCores@ResourceManager@details@Concurrency@@AAEXII@Z 10054f83 f   libconcrt:ResourceManager.obj
 0001:00054109       ?DoCoreMigration@ResourceManager@details@Concurrency@@AAEXXZ 10055109 f   libconcrt:ResourceManager.obj
 0001:0005436d       ?DynamicAssignCores@ResourceManager@details@Concurrency@@AAEXPAVSchedulerProxy@23@II_N@Z 1005536d f   libconcrt:ResourceManager.obj
 0001:000543dc       ?DynamicMigrateCores@ResourceManager@details@Concurrency@@AAEXPAUDynamicAllocationData@23@PAVSchedulerProxy@23@II@Z 100553dc f   libconcrt:ResourceManager.obj
 0001:00054547       ?DynamicRMThreadProc@ResourceManager@details@Concurrency@@CGKPAX@Z 10055547 f   libconcrt:ResourceManager.obj
 0001:00054560       ?DynamicResourceManager@ResourceManager@details@Concurrency@@AAEXXZ 10055560 f   libconcrt:ResourceManager.obj
 0001:00054660       ?FindBestFitExclusiveAllocation@ResourceManager@details@Concurrency@@AAEIAAI0PAUDynamicAllocationData@23@II@Z 10055660 f   libconcrt:ResourceManager.obj
 0001:000549a4       ?FindBestFitIdleAllocation@ResourceManager@details@Concurrency@@AAEIIPAUDynamicAllocationData@23@I@Z 100559a4 f   libconcrt:ResourceManager.obj
 0001:00054ab2       ?FindCoreForPartiallyFilledNode@ResourceManager@details@Concurrency@@AAE_NAAI0PAUDynamicAllocationData@23@I@Z 10055ab2 f   libconcrt:ResourceManager.obj
 0001:00054bbd       ?FindGroupAffinity@AffinityRestriction@ResourceManager@details@Concurrency@@QAEPAUHardwareAffinity@34@G@Z 10055bbd f i libconcrt:ResourceManager.obj
 0001:00054bf4       ?FlushStoreBuffers@ResourceManager@details@Concurrency@@QAEXXZ 10055bf4 f   libconcrt:ResourceManager.obj
 0001:00054c26       ?GetCoreCount@ResourceManager@details@Concurrency@@SAIXZ 10055c26 f   libconcrt:ResourceManager.obj
 0001:00054c71       ?GetCurrentNodeAndCore@ResourceManager@details@Concurrency@@QAEIPAI@Z 10055c71 f   libconcrt:ResourceManager.obj
 0001:00054d81       ?GetExecutionResourceCount@TopologyObject@GlobalNode@details@Concurrency@@UBEIXZ 10055d81 f i libconcrt:ResourceManager.obj
 0001:00054d81       ?GetId@TopologyObject@GlobalCore@details@Concurrency@@UBEIXZ 10055d81 f i libconcrt:ResourceManager.obj
 0001:00054d88       ?GetFirstExecutionResource@TopologyObject@GlobalNode@details@Concurrency@@UBEPAUITopologyExecutionResource@4@XZ 10055d88 f i libconcrt:ResourceManager.obj
 0001:00054d92       ?GetFirstNode@ResourceManager@details@Concurrency@@UBEPAUITopologyNode@3@XZ 10055d92 f i libconcrt:ResourceManager.obj
 0001:00054d99       ?GetId@TopologyObject@GlobalNode@details@Concurrency@@UBEIXZ 10055d99 f i libconcrt:ResourceManager.obj
 0001:00054da0       ?GetNext@TopologyObject@GlobalCore@details@Concurrency@@UBEPAUITopologyExecutionResource@4@XZ 10055da0 f   libconcrt:ResourceManager.obj
 0001:00054db7       ?GetNext@TopologyObject@GlobalNode@details@Concurrency@@UBEPAUITopologyNode@4@XZ 10055db7 f   libconcrt:ResourceManager.obj
 0001:00054dce       ?GetNextGlobalCore@GlobalNode@details@Concurrency@@QAEPAUGlobalCore@23@PBU423@@Z 10055dce f i libconcrt:ResourceManager.obj
 0001:00054df3       ?GetNextGlobalNode@ResourceManager@details@Concurrency@@QAEPAUGlobalNode@23@PBU423@@Z 10055df3 f i libconcrt:ResourceManager.obj
 0001:00054e18       ?GetNodeCount@ResourceManager@details@Concurrency@@SAIXZ 10055e18 f   libconcrt:ResourceManager.obj
 0001:00054e63       ?GetNumaNode@TopologyObject@GlobalNode@details@Concurrency@@UBEKXZ 10055e63 f i libconcrt:ResourceManager.obj
 0001:00054e6a       ?GetOSVersion@Concurrency@@YA?AW4OSVersion@IResourceManager@1@XZ 10055e6a f   libconcrt:ResourceManager.obj
 0001:00054e6f       ?GetProcessorCount@Concurrency@@YAIXZ 10055e6f f   libconcrt:ResourceManager.obj
 0001:00054e74       ?GetProcessorNodeCount@Concurrency@@YAIXZ 10055e74 f   libconcrt:ResourceManager.obj
 0001:00054e79       ?GetSchedulerId@Concurrency@@YAIXZ 10055e79 f   libconcrt:ResourceManager.obj
 0001:00054e86       ?GetTopologyInformation@ResourceManager@details@Concurrency@@CAXW4_LOGICAL_PROCESSOR_RELATIONSHIP@@@Z 10055e86 f   libconcrt:ResourceManager.obj
 0001:00054eaf       ?HandleBorrowedCores@ResourceManager@details@Concurrency@@AAEXPAVSchedulerProxy@23@PAUAllocationData@23@@Z 10055eaf f   libconcrt:ResourceManager.obj
 0001:00054fca       ?HandleSharedCores@ResourceManager@details@Concurrency@@AAEXPAVSchedulerProxy@23@PAUDynamicAllocationData@23@@Z 10055fca f   libconcrt:ResourceManager.obj
 0001:00055121       ?IncreaseFullyLoadedSchedulerAllocations@ResourceManager@details@Concurrency@@AAEXXZ 10056121 f   libconcrt:ResourceManager.obj
 0001:00055157       ?Initialize@GlobalCore@details@Concurrency@@QAEXPAUGlobalNode@23@IE@Z 10056157 f i libconcrt:ResourceManager.obj
 0001:00055196       ?Initialize@GlobalNode@details@Concurrency@@QAEXPAVResourceManager@23@GGKII@Z 10056196 f i libconcrt:ResourceManager.obj
 0001:000552b3       ?InitializeRMBuffers@ResourceManager@details@Concurrency@@AAEXXZ 100562b3 f   libconcrt:ResourceManager.obj
 0001:00055375       ?InitializeSystemInformation@ResourceManager@details@Concurrency@@CAX_N@Z 10056375 f   libconcrt:ResourceManager.obj
 0001:000555ad       ?MinVprocHWThreads@SchedulerProxy@details@Concurrency@@QBEIXZ 100565ad f i libconcrt:ResourceManager.obj
 0001:000555c6       ?PerformAllocation@ResourceManager@details@Concurrency@@QAEPAVExecutionResource@23@PAVSchedulerProxy@23@_N1@Z 100565c6 f   libconcrt:ResourceManager.obj
 0001:0005571e       ?PopulateCommonAllocationData@ResourceManager@details@Concurrency@@AAEXIPAVSchedulerProxy@23@PAUAllocationData@23@@Z 1005671e f   libconcrt:ResourceManager.obj
 0001:000557e6       ?PopulateDynamicAllocationData@ResourceManager@details@Concurrency@@AAEXXZ 100567e6 f   libconcrt:ResourceManager.obj
 0001:0005590e       ?PreProcessDynamicAllocationData@ResourceManager@details@Concurrency@@AAEXXZ 1005690e f   libconcrt:ResourceManager.obj
 0001:000559e1       ?PreProcessStaticAllocationData@ResourceManager@details@Concurrency@@AAEXXZ 100569e1 f   libconcrt:ResourceManager.obj
 0001:00055a10       ?PrepareReceiversForCoreTransfer@ResourceManager@details@Concurrency@@AAEII@Z 10056a10 f   libconcrt:ResourceManager.obj
 0001:00055c1f       ?RedistributeCoresAmongAll@ResourceManager@details@Concurrency@@AAEIPAVSchedulerProxy@23@III@Z 10056c1f f   libconcrt:ResourceManager.obj
 0001:00055ff5       ?Reference@ResourceManager@details@Concurrency@@UAEIXZ 10056ff5 f   libconcrt:ResourceManager.obj
 0001:00055fff       ?RegisterScheduler@ResourceManager@details@Concurrency@@UAEPAUISchedulerProxy@3@PAUIScheduler@3@I@Z 10056fff f   libconcrt:ResourceManager.obj
 0001:00056045       ?Release@ResourceManager@details@Concurrency@@UAEIXZ 10057045 f   libconcrt:ResourceManager.obj
 0001:000560f0       ?ReleaseCoresOnExistingSchedulers@ResourceManager@details@Concurrency@@AAEIPAVSchedulerProxy@23@II@Z 100570f0 f   libconcrt:ResourceManager.obj
 0001:00056147       ?ReleaseSchedulerResources@ResourceManager@details@Concurrency@@AAE_NPAVSchedulerProxy@23@0I@Z 10057147 f   libconcrt:ResourceManager.obj
 0001:0005623f       ?Remove@?$List@VSchedulerProxy@details@Concurrency@@VCount@CollectionTypes@23@@details@Concurrency@@QAEXPAVSchedulerProxy@23@@Z 1005723f f i libconcrt:ResourceManager.obj
 0001:00056275       ?RemoveExecutionResource@ResourceManager@details@Concurrency@@QAEXPAVExecutionResource@23@@Z 10057275 f   libconcrt:ResourceManager.obj
 0001:000562ec       ?RequestInitialVirtualProcessors@ResourceManager@details@Concurrency@@QAEPAUIExecutionResource@3@PAVSchedulerProxy@23@_N@Z 100572ec f   libconcrt:ResourceManager.obj
 0001:00056401       ?ReserveAtHigherUseCounts@ResourceManager@details@Concurrency@@AAEIPAVSchedulerProxy@23@I@Z 10057401 f   libconcrt:ResourceManager.obj
 0001:00056437       ?ReserveCores@ResourceManager@details@Concurrency@@AAEIPAVSchedulerProxy@23@II@Z 10057437 f   libconcrt:ResourceManager.obj
 0001:0005660d       ?ResetGlobalAllocationData@ResourceManager@details@Concurrency@@AAEXXZ 1005760d f   libconcrt:ResourceManager.obj
 0001:00056666       ?RetrieveSystemVersionInformation@ResourceManager@details@Concurrency@@CAXXZ 10057666 f   libconcrt:ResourceManager.obj
 0001:00056756       ?RoundUpScaledAllocations@ResourceManager@details@Concurrency@@CAXPAPAUAllocationData@23@II@Z 10057756 f   libconcrt:ResourceManager.obj
 0001:00056917       ?SafeReference@ResourceManager@details@Concurrency@@AAE_NXZ 10057917 f   libconcrt:ResourceManager.obj
 0001:00056936       ?SendResourceNotifications@ResourceManager@details@Concurrency@@QAEXPAVSchedulerProxy@23@@Z 10057936 f   libconcrt:ResourceManager.obj
 0001:00056b07       ?SetupStaticAllocationData@ResourceManager@details@Concurrency@@AAEXPAVSchedulerProxy@23@_N@Z 10057b07 f   libconcrt:ResourceManager.obj
 0001:00056bd8       ?Shutdown@ResourceManager@details@Concurrency@@QAEXPAVSchedulerProxy@23@@Z 10057bd8 f   libconcrt:ResourceManager.obj
 0001:00056cab       ?SubscribeCurrentThread@ResourceManager@details@Concurrency@@QAEPAVExecutionResource@23@PAVSchedulerProxy@23@@Z 10057cab f   libconcrt:ResourceManager.obj
 0001:00056cff       ?ToggleRMIdleState@ResourceManager@details@Concurrency@@AAEXPAUSchedulerNode@23@PAUSchedulerCore@23@PAUGlobalNode@23@PAUGlobalCore@23@PAUAllocationData@23@@Z 10057cff f   libconcrt:ResourceManager.obj
 0001:00056d6c       ?Version@ResourceManager@details@Concurrency@@SA?AW4OSVersion@IResourceManager@3@XZ 10057d6c f   libconcrt:ResourceManager.obj
 0001:00056db5       ??$_InternalDeleteHelper@VExternalContextBase@details@Concurrency@@@details@Concurrency@@YAXPAVExternalContextBase@01@@Z 10057db5 f i libconcrt:SchedulerBase.obj
 0001:00056dd7       ??$_InternalDeleteHelper@VInternalContextBase@details@Concurrency@@@details@Concurrency@@YAXPAVInternalContextBase@01@@Z 10057dd7 f i libconcrt:SchedulerBase.obj
 0001:00056dfb       ??$_InternalDeleteHelper@VScheduleGroupBase@details@Concurrency@@@details@Concurrency@@YAXPAVScheduleGroupBase@01@@Z 10057dfb f i libconcrt:SchedulerBase.obj
 0001:00056e1d       ??0?$Hash@PAV_TaskCollection@details@Concurrency@@PAV123@@details@Concurrency@@QAE@H@Z 10057e1d f i libconcrt:ContextBase.obj
 0001:00056e1d       ??0?$Hash@II@details@Concurrency@@QAE@H@Z 10057e1d f i libconcrt:SchedulerBase.obj
 0001:00056e5b       ??0CacheLocalScheduleGroupSegment@details@Concurrency@@QAE@PAVScheduleGroupBase@12@PAVSchedulingRing@12@PAVlocation@2@@Z 10057e5b f i libconcrt:SchedulerBase.obj
 0001:00056e95       ??0FairScheduleGroupSegment@details@Concurrency@@QAE@PAVScheduleGroupBase@12@PAVSchedulingRing@12@PAVlocation@2@@Z 10057e95 f i libconcrt:SchedulerBase.obj
 0001:00056ecf       ??0NumaInformation@SchedulerBase@details@Concurrency@@QAE@XZ 10057ecf f i libconcrt:SchedulerBase.obj
 0001:00056ee9       ??0QuickBitSet@details@Concurrency@@QAE@I@Z 10057ee9 f i libconcrt:SchedulerBase.obj
 0001:00056f2f       ??0SchedulerBase@details@Concurrency@@QAE@ABVSchedulerPolicy@2@@Z 10057f2f f   libconcrt:SchedulerBase.obj
 0001:0005724b       ??0improper_scheduler_attach@Concurrency@@QAE@ABV01@@Z 1005824b f i libconcrt:SchedulerBase.obj
 0001:00057266       ??0improper_scheduler_reference@Concurrency@@QAE@ABV01@@Z 10058266 f i libconcrt:SchedulerBase.obj
 0001:00057281       ??1?$Hash@PAV_TaskCollection@details@Concurrency@@PAV123@@details@Concurrency@@QAE@XZ 10058281 f i libconcrt:ContextBase.obj
 0001:00057281       ??1?$Hash@II@details@Concurrency@@QAE@XZ 10058281 f i libconcrt:SchedulerBase.obj
 0001:00057294       ??1?$ListArray@VExternalStatistics@details@Concurrency@@@details@Concurrency@@QAE@XZ 10058294 f i libconcrt:SchedulerBase.obj
 0001:0005730e       ??1?$ListArray@VScheduleGroupBase@details@Concurrency@@@details@Concurrency@@QAE@XZ 1005830e f i libconcrt:SchedulerBase.obj
 0001:00057385       ??1NumaInformation@SchedulerBase@details@Concurrency@@QAE@XZ 10058385 f i libconcrt:SchedulerBase.obj
 0001:0005739c       ??1QuickBitSet@details@Concurrency@@QAE@XZ 1005839c f i libconcrt:SchedulerBase.obj
 0001:000573a6       ??1ReferenceCountedQuickBitSet@details@Concurrency@@QAE@XZ 100583a6 f i libconcrt:SchedulerBase.obj
 0001:000573bd       ??1ScheduleGroup@Concurrency@@MAE@XZ 100583bd f i libconcrt:SchedulerBase.obj
 0001:000573c4       ??1Scheduler@Concurrency@@MAE@XZ 100583c4 f i libconcrt:SchedulerBase.obj
 0001:000573cb       ??1SchedulerBase@details@Concurrency@@UAE@XZ 100583cb f   libconcrt:SchedulerBase.obj
 0001:00057486       ??1_Scoped_lock@_CriticalNonReentrantLock@details@Concurrency@@QAE@XZ 10058486 f i libconcrt:ContextBase.obj
 0001:00057486       ??1_Scoped_lock@_HyperNonReentrantLock@details@Concurrency@@QAE@XZ 10058486 f i libconcrt:SchedulerBase.obj
 0001:000574be       ??A?$ListArray@VScheduleGroupSegmentBase@details@Concurrency@@@details@Concurrency@@QBEPAVScheduleGroupSegmentBase@12@H@Z 100584be f i libconcrt:SchedulerBase.obj
 0001:000574be       ??A?$ListArray@VWorkQueue@details@Concurrency@@@details@Concurrency@@QBEPAVWorkQueue@12@H@Z 100584be f i libconcrt:ScheduleGroupBase.obj
 0001:000574be       ??A?$ListArray@U?$ListArrayInlineLink@VWorkQueue@details@Concurrency@@@details@Concurrency@@@details@Concurrency@@QBEPAU?$ListArrayInlineLink@VWorkQueue@details@Concurrency@@@12@H@Z 100584be f i libconcrt:ScheduleGroupBase.obj
 0001:000574be       ??A?$ListArray@VVirtualProcessor@details@Concurrency@@@details@Concurrency@@QBEPAVVirtualProcessor@12@H@Z 100584be f i libconcrt:SchedulerBase.obj
 0001:000574be       ??A?$ListArray@VExternalStatistics@details@Concurrency@@@details@Concurrency@@QBEPAVExternalStatistics@12@H@Z 100584be f i libconcrt:SchedulerBase.obj
 0001:00057506       ??_ENumaInformation@SchedulerBase@details@Concurrency@@QAEPAXI@Z 10058506 f i libconcrt:SchedulerBase.obj
 0001:00057589       ??_GFairScheduleGroup@details@Concurrency@@UAEPAXI@Z 10058589 f i libconcrt:SchedulerBase.obj
 0001:00057589       ??_EFairScheduleGroup@details@Concurrency@@UAEPAXI@Z 10058589 f i libconcrt:SchedulerBase.obj
 0001:000575ac       ??_ECacheLocalScheduleGroupSegment@details@Concurrency@@UAEPAXI@Z 100585ac f i libconcrt:SchedulerBase.obj
 0001:000575ac       ??_EFairScheduleGroupSegment@details@Concurrency@@UAEPAXI@Z 100585ac f i libconcrt:SchedulerBase.obj
 0001:000575ac       ??_GCacheLocalScheduleGroupSegment@details@Concurrency@@UAEPAXI@Z 100585ac f i libconcrt:SchedulerBase.obj
 0001:000575ac       ??_GFairScheduleGroupSegment@details@Concurrency@@UAEPAXI@Z 100585ac f i libconcrt:SchedulerBase.obj
 0001:000575d1       ??_ERealizedChore@details@Concurrency@@UAEPAXI@Z 100585d1 f i libconcrt:SchedulerBase.obj
 0001:000575d1       ??_GRealizedChore@details@Concurrency@@UAEPAXI@Z 100585d1 f i libconcrt:SchedulerBase.obj
 0001:000575f4       ??_GScheduleGroup@Concurrency@@MAEPAXI@Z 100585f4 f i libconcrt:SchedulerBase.obj
 0001:000575f4       ??_EScheduleGroup@Concurrency@@MAEPAXI@Z 100585f4 f i libconcrt:SchedulerBase.obj
 0001:00057617       ??_GScheduler@Concurrency@@MAEPAXI@Z 10058617 f i libconcrt:SchedulerBase.obj
 0001:00057617       ??_EScheduler@Concurrency@@MAEPAXI@Z 10058617 f i libconcrt:SchedulerBase.obj
 0001:0005763a       ??_GSchedulerBase@details@Concurrency@@UAEPAXI@Z 1005863a f i libconcrt:SchedulerBase.obj
 0001:0005763a       ??_ESchedulerBase@details@Concurrency@@UAEPAXI@Z 1005863a f i libconcrt:SchedulerBase.obj
 0001:0005765f       ??_GSubAllocator@details@Concurrency@@QAEPAXI@Z 1005865f f i libconcrt:SchedulerBase.obj
 0001:000576c1       ??_E_Chore@details@Concurrency@@MAEPAXI@Z 100586c1 f i libconcrt:SchedulerBase.obj
 0001:000576c1       ??_G_Chore@details@Concurrency@@MAEPAXI@Z 100586c1 f i libconcrt:SchedulerBase.obj
 0001:000576e4       ?Add@?$ListArray@VScheduleGroupBase@details@Concurrency@@@details@Concurrency@@QAEHPAVScheduleGroupBase@23@@Z 100586e4 f i libconcrt:SchedulerBase.obj
 0001:00057847       ?AddContext@SchedulerBase@details@Concurrency@@QAEXPAVInternalContextBase@23@@Z 10058847 f   libconcrt:SchedulerBase.obj
 0001:0005787a       ?AddHead@?$List@UBoostedObject@details@Concurrency@@VNoCount@CollectionTypes@23@@details@Concurrency@@QAEXPAUBoostedObject@23@@Z 1005887a f i libconcrt:SchedulerBase.obj
 0001:000578b3       ?AddTail@?$List@VWaitNode@SchedulerBase@details@Concurrency@@VNoCount@CollectionTypes@34@@details@Concurrency@@QAEXPAVWaitNode@SchedulerBase@23@@Z 100588b3 f i libconcrt:SchedulerBase.obj
 0001:000578e0       ?AddTail@?$SafeRWList@VWaitNode@SchedulerBase@details@Concurrency@@VNoCount@CollectionTypes@34@V_ReaderWriterLock@34@@details@Concurrency@@QAEXPAVWaitNode@SchedulerBase@23@@Z 100588e0 f i libconcrt:SchedulerBase.obj
 0001:00057914       ?AddVirtualProcessors@SchedulerBase@details@Concurrency@@IAEXPAPAUIVirtualProcessorRoot@3@I@Z 10058914 f   libconcrt:SchedulerBase.obj
 0001:000579cd       ?AllocateSegment@CacheLocalScheduleGroup@details@Concurrency@@MAEPAVScheduleGroupSegmentBase@23@PAVSchedulingRing@23@PAVlocation@3@@Z 100589cd f i libconcrt:SchedulerBase.obj
 0001:00057a08       ?AllocateSegment@FairScheduleGroup@details@Concurrency@@MAEPAVScheduleGroupSegmentBase@23@PAVSchedulingRing@23@PAVlocation@3@@Z 10058a08 f i libconcrt:SchedulerBase.obj
 0001:00057a54       ?Attach@SchedulerBase@details@Concurrency@@UAEXXZ 10058a54 f   libconcrt:SchedulerBase.obj
 0001:00057a9c       ?AttachExternalContext@SchedulerBase@details@Concurrency@@AAEPAVExternalContextBase@23@_N@Z 10058a9c f   libconcrt:SchedulerBase.obj
 0001:00057b07       ?AttemptSchedulerSweep@SchedulerBase@details@Concurrency@@IAEXXZ 10058b07 f   libconcrt:SchedulerBase.obj
 0001:00057b2a       ?CancelAllContexts@SchedulerBase@details@Concurrency@@MAEXXZ 10058b2a f   libconcrt:SchedulerBase.obj
 0001:00057b67       ?ChangeThrottlingTimer@SchedulerBase@details@Concurrency@@AAEXK@Z 10058b67 f   libconcrt:SchedulerBase.obj
 0001:00057bc7       ?CheckForDeletion@?$ListArray@VExternalStatistics@details@Concurrency@@@details@Concurrency@@AAEXXZ 10058bc7 f i libconcrt:SchedulerBase.obj
 0001:00057bf5       ?CheckForDeletion@?$ListArray@VScheduleGroupBase@details@Concurrency@@@details@Concurrency@@AAEXXZ 10058bf5 f i libconcrt:SchedulerBase.obj
 0001:00057c23       ?CheckForDeletionBridge@?$ListArray@VExternalStatistics@details@Concurrency@@@details@Concurrency@@CAXPAV123@@Z 10058c23 f i libconcrt:SchedulerBase.obj
 0001:00057c2f       ?CheckForDeletionBridge@?$ListArray@VScheduleGroupBase@details@Concurrency@@@details@Concurrency@@CAXPAV123@@Z 10058c2f f i libconcrt:SchedulerBase.obj
 0001:00057c3b       ?CheckOneShotStaticDestruction@SchedulerBase@details@Concurrency@@SAXXZ 10058c3b f   libconcrt:SchedulerBase.obj
 0001:00057c61       ?CheckStaticConstruction@SchedulerBase@details@Concurrency@@CAXXZ 10058c61 f   libconcrt:SchedulerBase.obj
 0001:00057cbd       ?Cleanup@SchedulerBase@details@Concurrency@@AAEXXZ 10058cbd f   libconcrt:SchedulerBase.obj
 0001:00057d6c       ?CommitSafePoints@SchedulerBase@details@Concurrency@@QAEXXZ 10058d6c f   libconcrt:SchedulerBase.obj
 0001:00057daf       ?CommitToVersion@SchedulerBase@details@Concurrency@@AAEXK@Z 10058daf f   libconcrt:SchedulerBase.obj
 0001:00057e47       ?ComputeSafePointCommitVersion@SchedulerBase@details@Concurrency@@AAEKXZ 10058e47 f   libconcrt:SchedulerBase.obj
 0001:00057ed2       ?CopyFrom@QuickBitSet@details@Concurrency@@IAEXABV123@@Z 10058ed2 f i libconcrt:SchedulerBase.obj
 0001:00057f0f       ?CreateContextFromDefaultScheduler@SchedulerBase@details@Concurrency@@SAPAVContextBase@23@XZ 10058f0f f   libconcrt:SchedulerBase.obj
 0001:00057f3a       ?CreateScheduleGroup@SchedulerBase@details@Concurrency@@UAEPAVScheduleGroup@3@AAVlocation@3@@Z 10058f3a f i libconcrt:SchedulerBase.obj
 0001:00057f43       ?CreateScheduleGroup@SchedulerBase@details@Concurrency@@UAEPAVScheduleGroup@3@XZ 10058f43 f i libconcrt:SchedulerBase.obj
 0001:00057f64       ?CreateWithoutInitializing@SchedulerBase@details@Concurrency@@SAPAV123@ABVSchedulerPolicy@3@@Z 10058f64 f   libconcrt:SchedulerBase.obj
 0001:00057f8a       ?DecrementInternalContextCount@SchedulerBase@details@Concurrency@@QAEXXZ 10058f8a f   libconcrt:SchedulerBase.obj
 0001:00057fa5       ?DeferredGetInternalContext@SchedulerBase@details@Concurrency@@QAEXXZ 10058fa5 f   libconcrt:SchedulerBase.obj
 0001:00057fc3       ?DeleteElements@?$ListArray@VExternalStatistics@details@Concurrency@@@details@Concurrency@@AAEXPAU_SINGLE_LIST_ENTRY@@@Z 10058fc3 f i libconcrt:SchedulerBase.obj
 0001:00057fe4       ?DeleteElements@?$ListArray@VScheduleGroupBase@details@Concurrency@@@details@Concurrency@@AAEXPAU_SINGLE_LIST_ENTRY@@@Z 10058fe4 f i libconcrt:SchedulerBase.obj
 0001:00058002       ?Dequeue@?$SQueue@VInternalContextBase@details@Concurrency@@@details@Concurrency@@QAEPAVInternalContextBase@23@XZ 10059002 f i libconcrt:SchedulerBase.obj
 0001:0005801f       ?Dequeue@?$SQueue@VSafePointInvocation@details@Concurrency@@@details@Concurrency@@QAEPAVSafePointInvocation@23@XZ 1005901f f i libconcrt:SchedulerBase.obj
 0001:0005801f       ?Dequeue@?$SQueue@VRealizedChore@details@Concurrency@@@details@Concurrency@@QAEPAVRealizedChore@23@XZ 1005901f f i libconcrt:ScheduleGroupBase.obj
 0001:00058039       ?Dequeue@?$SafeSQueue@VInternalContextBase@details@Concurrency@@V_HyperNonReentrantLock@23@@details@Concurrency@@QAEPAVInternalContextBase@23@XZ 10059039 f i libconcrt:SchedulerBase.obj
 0001:0005806d       ?DestroySchedulerEventHandlers@SchedulerBase@details@Concurrency@@MAEXXZ 1005906d f   libconcrt:SchedulerBase.obj
 0001:000580bc       ?DetachExternalContext@SchedulerBase@details@Concurrency@@AAEXPAVExternalContextBase@23@_N@Z 100590bc f   libconcrt:SchedulerBase.obj
 0001:000580ff       ?FastCurrentContext@SchedulerBase@details@Concurrency@@SAPAVContextBase@23@XZ 100590ff f   libconcrt:SchedulerBase.obj
 0001:0005810c       ?FastCurrentScheduler@SchedulerBase@details@Concurrency@@SAPAV123@XZ 1005910c f   libconcrt:SchedulerBase.obj
 0001:0005811f       ?Fill@QuickBitSet@details@Concurrency@@QAEXXZ 1005911f f i libconcrt:SchedulerBase.obj
 0001:0005813c       ?Finalize@SchedulerBase@details@Concurrency@@AAEXXZ 1005913c f   libconcrt:SchedulerBase.obj
 0001:00058265       ?Find@?$Hash@PAV_TaskCollection@details@Concurrency@@PAV123@@details@Concurrency@@QAEPAUListNode@123@ABQAV_TaskCollection@23@PAPAV523@@Z 10059265 f i libconcrt:TaskCollection.obj
 0001:00058265       ?Find@?$Hash@II@details@Concurrency@@QAEPAUListNode@123@ABIPAI@Z 10059265 f i libconcrt:SchedulerBase.obj
 0001:0005829b       ?FindCurrentNode@SchedulerBase@details@Concurrency@@QAEPAVSchedulingNode@23@XZ 1005929b f   libconcrt:SchedulerBase.obj
 0001:000582d6       ?FindNodeByLocation@SchedulerBase@details@Concurrency@@QAEPAVSchedulingNode@23@PAVlocation@3@@Z 100592d6 f   libconcrt:SchedulerBase.obj
 0001:00058331       ?FindScheduleGroupSegment@SchedulingRing@details@Concurrency@@AAEPAVScheduleGroupSegmentBase@23@HHPAHPAV?$ListArray@VScheduleGroupSegmentBase@details@Concurrency@@@23@@Z 10059331 f i libconcrt:SchedulerBase.obj
 0001:0005835c       ?FindVirtualProcessor@SchedulingNode@details@Concurrency@@QAEPAVVirtualProcessor@23@HHPAH@Z 1005935c f i libconcrt:SchedulerBase.obj
 0001:0005838b       ?FoundAvailableVirtualProcessor@SchedulerBase@details@Concurrency@@QAE_NAAVClaimTicket@VirtualProcessor@23@Vlocation@3@K@Z 1005938b f   libconcrt:SchedulerBase.obj
 0001:00058485       ?FoundBlockedContexts@SchedulerBase@details@Concurrency@@AAE_NXZ 10059485 f   libconcrt:SchedulerBase.obj
 0001:000584af       ?FoundUnstartedChores@SchedulerBase@details@Concurrency@@AAE_NXZ 100594af f   libconcrt:SchedulerBase.obj
 0001:00058578       ?GetAnonymousScheduleGroupSegment@SchedulerBase@details@Concurrency@@QAEPAVScheduleGroupSegmentBase@23@XZ 10059578 f   libconcrt:SchedulerBase.obj
 0001:00058581       ?GetBitSet@SchedulerBase@details@Concurrency@@QAE?AVQuickBitSet@23@PBVlocation@3@@Z 10059581 f   libconcrt:SchedulerBase.obj
 0001:00058637       ?GetDefaultScheduler@SchedulerBase@details@Concurrency@@CAPAV123@XZ 10059637 f   libconcrt:SchedulerBase.obj
 0001:000586d3       ?GetExternalContext@SchedulerBase@details@Concurrency@@AAEPAVExternalContextBase@23@_N@Z 100596d3 f   libconcrt:SchedulerBase.obj
 0001:00058733       ?GetInternalContext@SchedulerBase@details@Concurrency@@QAEPAVInternalContextBase@23@_N@Z 10059733 f   libconcrt:SchedulerBase.obj
 0001:00058853       ?GetNewContextId@SchedulerBase@details@Concurrency@@QAEIXZ 10059853 f   libconcrt:SchedulerBase.obj
 0001:00058860       ?GetNewScheduleGroupId@SchedulerBase@details@Concurrency@@QAEIXZ 10059860 f   libconcrt:SchedulerBase.obj
 0001:0005886d       ?GetNewWorkQueueId@SchedulerBase@details@Concurrency@@SAIXZ 1005986d f   libconcrt:SchedulerBase.obj
 0001:0005887a       ?GetNextPriorityObject@SchedulerBase@details@Concurrency@@QAEPAUBoostedObject@23@XZ 1005987a f   libconcrt:SchedulerBase.obj
 0001:000588af       ?GetNextScheduleGroupSegment@SchedulingRing@details@Concurrency@@AAEPAVScheduleGroupSegmentBase@23@PAHHPAV?$ListArray@VScheduleGroupSegmentBase@details@Concurrency@@@23@@Z 100598af f i libconcrt:SchedulerBase.obj
 0001:000588eb       ?GetNextSchedulingRing@SchedulerBase@details@Concurrency@@QAEPAVSchedulingRing@23@PBV423@PAV423@@Z 100598eb f   libconcrt:SchedulerBase.obj
 0001:00058918       ?GetNextSchedulingRing@SchedulerBase@details@Concurrency@@QAEPAVSchedulingRing@23@XZ 10059918 f   libconcrt:SchedulerBase.obj
 0001:00058939       ?GetNextValidSchedulingRingIndex@SchedulerBase@details@Concurrency@@AAEHH@Z 10059939 f   libconcrt:SchedulerBase.obj
 0001:0005895b       ?GetNextVirtualProcessor@SchedulingNode@details@Concurrency@@QAEPAVVirtualProcessor@23@PAHH@Z 1005995b f i libconcrt:SchedulerBase.obj
 0001:00058990       ?GetNumberOfVirtualProcessors@SchedulerBase@details@Concurrency@@UBEIXZ 10059990 f i libconcrt:SchedulerBase.obj
 0001:00058994       ?GetPolicy@SchedulerBase@details@Concurrency@@UBE?AVSchedulerPolicy@3@XZ 10059994 f   libconcrt:SchedulerBase.obj
 0001:000589b1       ?GetRealizedChore@SchedulerBase@details@Concurrency@@QAEPAVRealizedChore@23@P6AXPAX@Z0@Z 100599b1 f   libconcrt:SchedulerBase.obj
 0001:00058a10       ?GetReservedContext@SchedulerBase@details@Concurrency@@QAEPAVInternalContextBase@23@XZ 10059a10 f i libconcrt:SchedulerBase.obj
 0001:00058a27       ?GetRunnableContext@CacheLocalScheduleGroupSegment@details@Concurrency@@EAEPAVInternalContextBase@23@XZ 10059a27 f i libconcrt:SchedulerBase.obj
 0001:00058a27       ?GetRunnableContext@FairScheduleGroupSegment@details@Concurrency@@EAEPAVInternalContextBase@23@XZ 10059a27 f i libconcrt:SchedulerBase.obj
 0001:00058a3a       ?GetSubAllocator@SchedulerBase@details@Concurrency@@SAPAVSubAllocator@23@_N@Z 10059a3a f   libconcrt:SchedulerBase.obj
 0001:00058aba       ?GetValidSchedulingRingIndex@SchedulerBase@details@Concurrency@@AAEHH@Z 10059aba f   libconcrt:SchedulerBase.obj
 0001:00058add       ?Grow@QuickBitSet@details@Concurrency@@QAEXI@Z 10059add f i libconcrt:SchedulerBase.obj
 0001:00058b5e       ?Grow@ReferenceCountedQuickBitSet@details@Concurrency@@QAEXI@Z 10059b5e f i libconcrt:SchedulerBase.obj
 0001:00058bd1       ?HasCompletedShutdown@SchedulerBase@details@Concurrency@@QAE_NXZ 10059bd1 f   libconcrt:SchedulerBase.obj
 0001:00058be4       ?Id@ScheduleGroupBase@details@Concurrency@@UBEIXZ 10059be4 f i libconcrt:SchedulerBase.obj
 0001:00058be4       ?GetScheduler@ContextBase@details@Concurrency@@QBEPAVSchedulerBase@23@XZ 10059be4 f i libconcrt:ContextBase.obj
 0001:00058be8       ?Id@SchedulerBase@details@Concurrency@@UBEIXZ 10059be8 f i libconcrt:SchedulerBase.obj
 0001:00058bef       ?Initialize@SchedulerBase@details@Concurrency@@AAEXXZ 10059bef f   libconcrt:SchedulerBase.obj
 0001:00059092       ?InitializeSchedulerEventHandlers@SchedulerBase@details@Concurrency@@MAEXXZ 1005a092 f   libconcrt:SchedulerBase.obj
 0001:0005909a       ?InternalCreateScheduleGroup@SchedulerBase@details@Concurrency@@AAEPAVScheduleGroup@3@PAVlocation@3@@Z 1005a09a f   libconcrt:SchedulerBase.obj
 0001:00059160       ?InternalRelease@ScheduleGroupBase@details@Concurrency@@IAEJXZ 1005a160 f i libconcrt:SchedulerBase.obj
 0001:00059199       ?Intersects@QuickBitSet@details@Concurrency@@QBE_NABV123@@Z 1005a199 f i libconcrt:SchedulerBase.obj
 0001:000591d7       ?InvokeAtNextSafePoint@SafePointInvocation@details@Concurrency@@QAEXP6AXPAX@Z0PAVSchedulerBase@23@@Z 1005a1d7 f   libconcrt:SchedulerBase.obj
 0001:00059212       ?InvokeOnSafePoint@SchedulerBase@details@Concurrency@@AAEXPAVSafePointInvocation@23@@Z 1005a212 f   libconcrt:SchedulerBase.obj
 0001:00059256       ?IsActive@ExternalStatistics@details@Concurrency@@QAE_NXZ 1005a256 f i libconcrt:SchedulerBase.obj
 0001:00059273       ?IsAvailableLocation@SchedulerBase@details@Concurrency@@UBE_NABVlocation@3@@Z 1005a273 f   libconcrt:SchedulerBase.obj
 0001:000592a9       ?Lookup@?$Hash@II@details@Concurrency@@AAEPAUListNode@123@ABIH@Z 1005a2a9 f i libconcrt:SchedulerBase.obj
 0001:000592a9       ?Lookup@?$Hash@PAV_TaskCollection@details@Concurrency@@PAV123@@details@Concurrency@@AAEPAUListNode@123@ABQAV_TaskCollection@23@H@Z 1005a2a9 f i libconcrt:TaskCollection.obj
 0001:000592d3       ?MailChore@FairScheduleGroup@details@Concurrency@@UAE?AVSlot@?$Mailbox@V_UnrealizedChore@details@Concurrency@@@23@PAV_UnrealizedChore@23@PAVlocation@3@PAPAVScheduleGroupSegmentBase@23@@Z 1005a2d3 f i libconcrt:SchedulerBase.obj
 0001:000592e4       ?MarkSafePoint@SchedulerBase@details@Concurrency@@QAE_NPAVSafePointMarker@23@@Z 1005a2e4 f   libconcrt:SchedulerBase.obj
 0001:00059306       ?NotifyThrottledContext@SchedulerBase@details@Concurrency@@AAE_NPAVInternalContextBase@23@@Z 1005a306 f   libconcrt:SchedulerBase.obj
 0001:00059390       ?OneShotStaticConstruction@SchedulerBase@details@Concurrency@@CAXXZ 1005a390 f   libconcrt:SchedulerBase.obj
 0001:000593a4       ?OneShotStaticDestruction@SchedulerBase@details@Concurrency@@CAXXZ 1005a3a4 f   libconcrt:SchedulerBase.obj
 0001:000593bd       ?PerformServiceScan@SchedulerBase@details@Concurrency@@AAEX_K@Z 1005a3bd f   libconcrt:SchedulerBase.obj
 0001:00059568       ?PhaseOneShutdown@SchedulerBase@details@Concurrency@@AAEXXZ 1005a568 f   libconcrt:SchedulerBase.obj
 0001:000595de       ?PhaseTwoShutdown@SchedulerBase@details@Concurrency@@AAEXXZ 1005a5de f   libconcrt:SchedulerBase.obj
 0001:00059673       ?PublishNewDataVersion@SchedulerBase@details@Concurrency@@AAEKXZ 1005a673 f i libconcrt:SchedulerBase.obj
 0001:0005968b       ?Push@?$LockFreePushStack@VContextNode@SchedulerBase@details@Concurrency@@@details@Concurrency@@QAEXPAVContextNode@SchedulerBase@23@@Z 1005a68b f i libconcrt:SchedulerBase.obj
 0001:000596a9       ?PushRunnableToInactive@SchedulerBase@details@Concurrency@@UAE_NPAVInternalContextBase@23@Vlocation@3@@Z 1005a6a9 f   libconcrt:SchedulerBase.obj
 0001:00059711       ?Reallocate@QuickBitSet@details@Concurrency@@IAEXI@Z 1005a711 f i libconcrt:SchedulerBase.obj
 0001:00059748       ?Reference@ScheduleGroupBase@details@Concurrency@@UAEIXZ 1005a748 f i libconcrt:SchedulerBase.obj
 0001:00059758       ?Reference@SchedulerBase@details@Concurrency@@UAEIXZ 1005a758 f   libconcrt:SchedulerBase.obj
 0001:000597c3       ?ReferenceForAttach@SchedulerBase@details@Concurrency@@IAEXXZ 1005a7c3 f   libconcrt:SchedulerBase.obj
 0001:000597e1       ?RegisterShutdownEvent@SchedulerBase@details@Concurrency@@UAEXPAX@Z 1005a7e1 f   libconcrt:SchedulerBase.obj
 0001:00059882       ?Release@ScheduleGroupBase@details@Concurrency@@UAEIXZ 1005a882 f i libconcrt:SchedulerBase.obj
 0001:00059887       ?Release@SchedulerBase@details@Concurrency@@UAEIXZ 1005a887 f   libconcrt:SchedulerBase.obj
 0001:0005989f       ?ReleaseExternalContext@SchedulerBase@details@Concurrency@@AAEXPAVExternalContextBase@23@@Z 1005a89f f   libconcrt:SchedulerBase.obj
 0001:000598e1       ?ReleaseForDetach@SchedulerBase@details@Concurrency@@IAEXXZ 1005a8e1 f   libconcrt:SchedulerBase.obj
 0001:000598ff       ?ReleaseInternalContext@SchedulerBase@details@Concurrency@@QAEXPAVInternalContextBase@23@_N@Z 1005a8ff f   libconcrt:SchedulerBase.obj
 0001:00059948       ?ReleaseRealizedChore@SchedulerBase@details@Concurrency@@QAEXPAVRealizedChore@23@@Z 1005a948 f   libconcrt:SchedulerBase.obj
 0001:00059997       ?ReleaseReservedContexts@SchedulerBase@details@Concurrency@@QAEXXZ 1005a997 f   libconcrt:SchedulerBase.obj
 0001:00059a02       ?ReleaseSuspendedVirtualProcessors@SchedulerBase@details@Concurrency@@AAEXJ@Z 1005aa02 f   libconcrt:SchedulerBase.obj
 0001:00059a20       ?Remove@?$List@UBoostedObject@details@Concurrency@@VNoCount@CollectionTypes@23@@details@Concurrency@@QAEXPAUBoostedObject@23@@Z 1005aa20 f i libconcrt:SchedulerBase.obj
 0001:00059a52       ?Remove@?$ListArray@VExternalStatistics@details@Concurrency@@@details@Concurrency@@QAE_NPAVExternalStatistics@23@H_N@Z 1005aa52 f i libconcrt:SchedulerBase.obj
 0001:00059b57       ?Remove@?$ListArray@VScheduleGroupBase@details@Concurrency@@@details@Concurrency@@QAE_NPAVScheduleGroupBase@23@H_N@Z 1005ab57 f i libconcrt:SchedulerBase.obj
 0001:00059c5c       ?RemoveHead@?$List@UBoostedObject@details@Concurrency@@VNoCount@CollectionTypes@23@@details@Concurrency@@QAEPAUBoostedObject@23@XZ 1005ac5c f i libconcrt:SchedulerBase.obj
 0001:00059c84       ?RemoveHead@?$List@VWaitNode@SchedulerBase@details@Concurrency@@VNoCount@CollectionTypes@34@@details@Concurrency@@QAEPAVWaitNode@SchedulerBase@23@XZ 1005ac84 f i libconcrt:SchedulerBase.obj
 0001:00059ca8       ?RemoveHead@?$SafeRWList@VWaitNode@SchedulerBase@details@Concurrency@@VNoCount@CollectionTypes@34@V_ReaderWriterLock@34@@details@Concurrency@@QAEPAVWaitNode@SchedulerBase@23@XZ 1005aca8 f i libconcrt:SchedulerBase.obj
 0001:00059cdc       ?RemovePrioritizedObject@SchedulerBase@details@Concurrency@@QAEXPAUBoostedObject@23@@Z 1005acdc f   libconcrt:SchedulerBase.obj
 0001:00059d18       ?RemoveScheduleGroup@SchedulerBase@details@Concurrency@@QAEXPAVScheduleGroupBase@23@@Z 1005ad18 f   libconcrt:SchedulerBase.obj
 0001:00059d30       ?RemoveSegments@FairScheduleGroup@details@Concurrency@@MAEXXZ 1005ad30 f i libconcrt:SchedulerBase.obj
 0001:00059d3e       ?RemoveVirtualProcessors@SchedulerBase@details@Concurrency@@IAEXPAPAUIVirtualProcessorRoot@3@I@Z 1005ad3e f   libconcrt:SchedulerBase.obj
 0001:00059e3a       ?Resurrect@SchedulerBase@details@Concurrency@@AAEXXZ 1005ae3a f   libconcrt:SchedulerBase.obj
 0001:00059e81       ?ReturnSubAllocator@SchedulerBase@details@Concurrency@@SAXPAVSubAllocator@23@@Z 1005ae81 f   libconcrt:SchedulerBase.obj
 0001:00059ec3       ?SafeFastCurrentContext@SchedulerBase@details@Concurrency@@SAPAVContextBase@23@XZ 1005aec3 f   libconcrt:SchedulerBase.obj
 0001:00059edf       ?SafeReference@SchedulerBase@details@Concurrency@@AAE_NXZ 1005aedf f   libconcrt:SchedulerBase.obj
 0001:00059f01       ?ScheduleTask@SchedulerBase@details@Concurrency@@UAEXP6AXPAX@Z0@Z 1005af01 f   libconcrt:SchedulerBase.obj
 0001:00059f4a       ?ScheduleTask@SchedulerBase@details@Concurrency@@UAEXP6AXPAX@Z0AAVlocation@3@@Z 1005af4a f   libconcrt:SchedulerBase.obj
 0001:00059f80       ?SetNextSchedulingRing@SchedulerBase@details@Concurrency@@QAEXPAVSchedulingRing@23@@Z 1005af80 f   libconcrt:SchedulerBase.obj
 0001:00059fa5       ?SpinUntilBitsReset@details@Concurrency@@YAJPCJJ@Z 1005afa5 f i libconcrt:SchedulerBase.obj
 0001:00059fd8       ?SpinUntilBitsSet@details@Concurrency@@YAJPCJJ@Z 1005afd8 f i libconcrt:SchedulerBase.obj
 0001:0005a014       ?StartupNewVirtualProcessor@SchedulerBase@details@Concurrency@@UAEXPAVScheduleGroupSegmentBase@23@Vlocation@3@@Z 1005b014 f i libconcrt:SchedulerBase.obj
 0001:0005a03c       ?StartupVirtualProcessor@SchedulerBase@details@Concurrency@@QAE_NPAVScheduleGroupSegmentBase@23@Vlocation@3@K@Z 1005b03c f   libconcrt:SchedulerBase.obj
 0001:0005a093       ?StaticConstruction@SchedulerBase@details@Concurrency@@CAXXZ 1005b093 f   libconcrt:SchedulerBase.obj
 0001:0005a0a1       ?StaticDestruction@SchedulerBase@details@Concurrency@@CAXXZ 1005b0a1 f   libconcrt:SchedulerBase.obj
 0001:0005a0f7       ?Statistics@SchedulerBase@details@Concurrency@@IAEXPAI00@Z 1005b0f7 f   libconcrt:SchedulerBase.obj
 0001:0005a235       ?SweepSchedulerForFinalize@SchedulerBase@details@Concurrency@@AAEXXZ 1005b235 f   libconcrt:SchedulerBase.obj
 0001:0005a2cb       ?ThrottlerDispatch@SchedulerBase@details@Concurrency@@AAEXXZ 1005b2cb f   libconcrt:SchedulerBase.obj
 0001:0005a3e2       ?ThrottlerDispatchBridge@SchedulerBase@details@Concurrency@@CGXPAU_TP_CALLBACK_INSTANCE@@PAXPAU_TP_TIMER@@@Z 1005b3e2 f i libconcrt:SchedulerBase.obj
 0001:0005a3f1       ?ThrottlerDispatchBridgeXP@SchedulerBase@details@Concurrency@@CGXPAXE@Z 1005b3f1 f i libconcrt:SchedulerBase.obj
 0001:0005a400       ?ThrottlerTrampoline@SchedulerBase@details@Concurrency@@CGXPAXE@Z 1005b400 f   libconcrt:SchedulerBase.obj
 0001:0005a43d       ?ThrottlingTime@SchedulerBase@details@Concurrency@@QAEKK@Z 1005b43d f   libconcrt:SchedulerBase.obj
 0001:0005a4d4       ?ThrowSchedulerEvent@SchedulerBase@details@Concurrency@@CAXW4ConcRT_EventType@3@EI@Z 1005b4d4 f   libconcrt:SchedulerBase.obj
 0001:0005a541       ?TraceSchedulerEvent@SchedulerBase@details@Concurrency@@AAEXW4ConcRT_EventType@3@EI@Z 1005b541 f i libconcrt:SchedulerBase.obj
 0001:0005a56b       ?TriggerCommitSafePoints@SchedulerBase@details@Concurrency@@QAEXPAVSafePointMarker@23@@Z 1005b56b f   libconcrt:SchedulerBase.obj
 0001:0005a5a0       ?TypeOfWorkPending@SchedulerBase@details@Concurrency@@MAE?AW4PendingWorkType@123@XZ 1005b5a0 f   libconcrt:SchedulerBase.obj
 0001:0005a5ce       ?UpdateCommitVersion@SchedulerBase@details@Concurrency@@AAEKK@Z 1005b5ce f   libconcrt:SchedulerBase.obj
 0001:0005a616       ?UpdatePendingVersion@SchedulerBase@details@Concurrency@@AAEKXZ 1005b616 f   libconcrt:SchedulerBase.obj
 0001:0005a648       ?VirtualProcessorActive@SchedulerBase@details@Concurrency@@QAE_N_N@Z 1005b648 f   libconcrt:SchedulerBase.obj
 0001:0005a6f7       ?VirtualProcessorIdle@SchedulerBase@details@Concurrency@@QAEX_N@Z 1005b6f7 f   libconcrt:SchedulerBase.obj
 0001:0005a756       ?Wipe@?$Hash@PAV_TaskCollection@details@Concurrency@@PAV123@@details@Concurrency@@QAEXXZ 1005b756 f i libconcrt:ContextBase.obj
 0001:0005a756       ?Wipe@?$Hash@II@details@Concurrency@@QAEXXZ 1005b756 f i libconcrt:SchedulerBase.obj
 0001:0005a7a3       ?_Assign@location@Concurrency@@QAEXABV12@@Z 1005b7a3 f i libconcrt:SchedulerBase.obj
 0001:0005a7d8       ??0MultiWaitBlock@details@Concurrency@@QAE@I_N0@Z 1005b7d8 f i libconcrt:event.obj
 0001:0005a818       ??0MultiWaitBlockHolder@details@Concurrency@@QAE@_NI00@Z 1005b818 f   libconcrt:event.obj
 0001:0005a8ce       ??0TimedSingleWaitBlock@details@Concurrency@@QAE@_N@Z 1005b8ce f i libconcrt:event.obj
 0001:0005a8fd       ??0WaitAnyBlock@details@Concurrency@@QAE@I_N0@Z 1005b8fd f i libconcrt:event.obj
 0001:0005a925       ??0WaitBlock@details@Concurrency@@QAE@XZ 1005b925 f i libconcrt:event.obj
 0001:0005a945       ??0_Condition_variable@details@Concurrency@@QAE@XZ 1005b945 f   libconcrt:event.obj
 0001:0005a964       ??0event@Concurrency@@QAE@XZ 1005b964 f   libconcrt:event.obj
 0001:0005a987       ??1?$_MallocaArrayHolder@PAVContext@Concurrency@@@details@Concurrency@@UAE@XZ 1005b987 f i libconcrt:event.obj
 0001:0005a997       ??1MultiWaitBlockHolder@details@Concurrency@@QAE@XZ 1005b997 f   libconcrt:event.obj
 0001:0005a9b1       ??1_Condition_variable@details@Concurrency@@QAE@XZ 1005b9b1 f   libconcrt:event.obj
 0001:0005a9ff       ??1event@Concurrency@@QAE@XZ 1005b9ff f   libconcrt:event.obj
 0001:0005aa83       ??_G?$_MallocaArrayHolder@PAVContext@Concurrency@@@details@Concurrency@@UAEPAXI@Z 1005ba83 f i libconcrt:event.obj
 0001:0005aa83       ??_E?$_MallocaArrayHolder@PAVContext@Concurrency@@@details@Concurrency@@UAEPAXI@Z 1005ba83 f i libconcrt:event.obj
 0001:0005aaaf       ?Destroy@EventWaitNode@details@Concurrency@@QAEXXZ 1005baaf f i libconcrt:event.obj
 0001:0005aac7       ?Reset@SingleWaitBlock@details@Concurrency@@UAE_NXZ 1005bac7 f   libconcrt:event.obj
 0001:0005aac7       ?SweepResetNode@SingleWaitBlock@details@Concurrency@@UAE_NXZ 1005bac7 f   libconcrt:event.obj
 0001:0005aac7       ?SweepResetNode@WaitAnyBlock@details@Concurrency@@UAE_NXZ 1005bac7 f   libconcrt:event.obj
 0001:0005aac7       ?Reset@WaitAnyBlock@details@Concurrency@@UAE_NXZ 1005bac7 f   libconcrt:event.obj
 0001:0005aac7       ?Destroy@SingleWaitBlock@details@Concurrency@@UAEXXZ 1005bac7 f   libconcrt:event.obj
 0001:0005aac8       ?Destroy@TimedSingleWaitBlock@details@Concurrency@@UAEXXZ 1005bac8 f   libconcrt:event.obj
 0001:0005aae1       ?Destroy@WaitAllBlock@details@Concurrency@@UAEXXZ 1005bae1 f   libconcrt:event.obj
 0001:0005aae6       ?DispatchEventTimer@MultiWaitBlock@details@Concurrency@@SGXPAU_TP_CALLBACK_INSTANCE@@PAXPAU_TP_TIMER@@@Z 1005bae6 f   libconcrt:event.obj
 0001:0005ab45       ?DispatchEventTimer@TimedSingleWaitBlock@details@Concurrency@@SGXPAU_TP_CALLBACK_INSTANCE@@PAXPAU_TP_TIMER@@@Z 1005bb45 f   libconcrt:event.obj
 0001:0005ab77       ?DispatchEventTimerXP@MultiWaitBlock@details@Concurrency@@SGXPAXE@Z 1005bb77 f   libconcrt:event.obj
 0001:0005abce       ?DispatchEventTimerXP@TimedSingleWaitBlock@details@Concurrency@@SGXPAXE@Z 1005bbce f   libconcrt:event.obj
 0001:0005abef       ?GetSharedTimerQueue@details@Concurrency@@YAPAXXZ 1005bbef f   libconcrt:event.obj
 0001:0005ac85       ?NotifyCompletedNode@MultiWaitBlock@details@Concurrency@@QAEXXZ 1005bc85 f   libconcrt:event.obj
 0001:0005ac9e       ?Reset@WaitAllBlock@details@Concurrency@@UAE_NXZ 1005bc9e f   libconcrt:event.obj
 0001:0005acd7       ?Satisfy@EventWaitNode@details@Concurrency@@QAE_NPAPAVContext@3@@Z 1005bcd7 f i libconcrt:event.obj
 0001:0005acf8       ?Satisfy@SingleWaitBlock@details@Concurrency@@UAE_NPAPAVContext@3@PAVEventWaitNode@23@@Z 1005bcf8 f   libconcrt:event.obj
 0001:0005ad54       ?Satisfy@TimedSingleWaitBlock@details@Concurrency@@UAE_NPAPAVContext@3@PAVEventWaitNode@23@@Z 1005bd54 f   libconcrt:event.obj
 0001:0005adaf       ?Satisfy@WaitAllBlock@details@Concurrency@@UAE_NPAPAVContext@3@PAVEventWaitNode@23@@Z 1005bdaf f   libconcrt:event.obj
 0001:0005adf5       ?Satisfy@WaitAnyBlock@details@Concurrency@@UAE_NPAPAVContext@3@PAVEventWaitNode@23@@Z 1005bdf5 f   libconcrt:event.obj
 0001:0005ae37       ?Set@StructuredEvent@details@Concurrency@@QAEXXZ 1005be37 f   libconcrt:event.obj
 0001:0005ae7e       ?SingleSatisfy@MultiWaitBlock@details@Concurrency@@MAEXPAPAVContext@3@PAVEventWaitNode@23@@Z 1005be7e f   libconcrt:event.obj
 0001:0005af2d       ?Sweep@details@Concurrency@@YAPAVEventWaitNode@12@PAV312@_N@Z 1005bf2d f   libconcrt:event.obj
 0001:0005af67       ?SweepResetNode@EventWaitNode@details@Concurrency@@QAE_NXZ 1005bf67 f i libconcrt:event.obj
 0001:0005af7f       ?SweepResetNode@WaitAllBlock@details@Concurrency@@UAE_NXZ 1005bf7f f   libconcrt:event.obj
 0001:0005afb1       ?SweepWaitNode@EventWaitNode@details@Concurrency@@QAE_NXZ 1005bfb1 f i libconcrt:event.obj
 0001:0005afc9       ?SweepWaitNode@TimedSingleWaitBlock@details@Concurrency@@UAE_NXZ 1005bfc9 f   libconcrt:event.obj
 0001:0005afec       ?SweepWaitNode@WaitAllBlock@details@Concurrency@@UAE_NXZ 1005bfec f   libconcrt:event.obj
 0001:0005b02f       ?SweepWaitNode@WaitAnyBlock@details@Concurrency@@UAE_NXZ 1005c02f f   libconcrt:event.obj
 0001:0005b066       ?createTimer@TimedSingleWaitBlock@details@Concurrency@@QAE_NI@Z 1005c066 f i libconcrt:event.obj
 0001:0005b0c9       ?destroyTimer@TimedSingleWaitBlock@details@Concurrency@@QAEX_N@Z 1005c0c9 f i libconcrt:event.obj
 0001:0005b116       ?notify_all@_Condition_variable@details@Concurrency@@QAEXXZ 1005c116 f   libconcrt:event.obj
 0001:0005b182       ?notify_one@_Condition_variable@details@Concurrency@@QAEXXZ 1005c182 f   libconcrt:event.obj
 0001:0005b205       ?set@event@Concurrency@@QAEXXZ 1005c205 f   libconcrt:event.obj
 0001:0005b336       ?wait@_Condition_variable@details@Concurrency@@QAEXAAVcritical_section@3@@Z 1005c336 f   libconcrt:event.obj
 0001:0005b39a       ?wait@event@Concurrency@@QAEII@Z 1005c39a f   libconcrt:event.obj
 0001:0005b476       ?wait_for@_Condition_variable@details@Concurrency@@QAE_NAAVcritical_section@3@I@Z 1005c476 f   libconcrt:event.obj
 0001:0005b55c       ?wait_for_multiple@event@Concurrency@@SAIPAPAV12@I_NI@Z 1005c55c f   libconcrt:event.obj
 0001:0005b81a       __freea                    1005c81a f i libconcrt:event.obj
 0001:0005b838       ??0CancellationBeaconStack@ContextBase@details@Concurrency@@QAE@XZ 1005c838 f i libconcrt:ContextBase.obj
 0001:0005b851       ??0ContextBase@details@Concurrency@@QAE@PAVSchedulerBase@12@_N@Z 1005c851 f   libconcrt:ContextBase.obj
 0001:0005b922       ??1?$WorkStealingQueue@V_UnrealizedChore@details@Concurrency@@V_CriticalNonReentrantLock@23@@details@Concurrency@@QAE@XZ 1005c922 f i libconcrt:ContextBase.obj
 0001:0005b939       ??1CancellationBeaconStack@ContextBase@details@Concurrency@@QAE@XZ 1005c939 f i libconcrt:ContextBase.obj
 0001:0005b975       ??1Context@Concurrency@@MAE@XZ 1005c975 f i libconcrt:ContextBase.obj
 0001:0005b97c       ??1ContextBase@details@Concurrency@@UAE@XZ 1005c97c f i libconcrt:ContextBase.obj
 0001:0005b9aa       ??1_Scoped_lock_read@?$SafeRWList@UListEntry@details@Concurrency@@VNoCount@CollectionTypes@23@V_ReaderWriterLock@23@@details@Concurrency@@QAE@XZ 1005c9aa f i libconcrt:ContextBase.obj
 0001:0005b9e5       ??8location@Concurrency@@QBE_NABV01@@Z 1005c9e5 f i libconcrt:ContextBase.obj
 0001:0005ba09       ??ACancellationBeaconStack@ContextBase@details@Concurrency@@QAEPAUCancellationBeacon@123@J@Z 1005ca09 f i libconcrt:ContextBase.obj
 0001:0005ba3f       ??_EContext@Concurrency@@MAEPAXI@Z 1005ca3f f i libconcrt:ContextBase.obj
 0001:0005ba3f       ??_GContext@Concurrency@@MAEPAXI@Z 1005ca3f f i libconcrt:ContextBase.obj
 0001:0005ba62       ??_GContextBase@details@Concurrency@@UAEPAXI@Z 1005ca62 f i libconcrt:ContextBase.obj
 0001:0005ba62       ??_EContextBase@details@Concurrency@@UAEPAXI@Z 1005ca62 f i libconcrt:ContextBase.obj
 0001:0005ba87       ??_GWorkQueue@details@Concurrency@@QAEPAXI@Z 1005ca87 f i libconcrt:ContextBase.obj
 0001:0005bab3       ?Add@?$ListArray@VWorkQueue@details@Concurrency@@@details@Concurrency@@QAEHPAVWorkQueue@23@@Z 1005cab3 f i libconcrt:ContextBase.obj
 0001:0005bc16       ?AddStealer@ContextBase@details@Concurrency@@QAEXPAV123@_N@Z 1005cc16 f   libconcrt:ContextBase.obj
 0001:0005bc40       ?AddTail@?$List@UListEntry@details@Concurrency@@VNoCount@CollectionTypes@23@@details@Concurrency@@QAEXPAUListEntry@23@@Z 1005cc40 f i libconcrt:ContextBase.obj
 0001:0005bc6f       ?AddTail@?$SafeRWList@UListEntry@details@Concurrency@@VNoCount@CollectionTypes@23@V_ReaderWriterLock@23@@details@Concurrency@@QAEXPAUListEntry@23@@Z 1005cc6f f i libconcrt:ContextBase.obj
 0001:0005bca3       ?CancelCollection@ContextBase@details@Concurrency@@QAEXH@Z 1005cca3 f   libconcrt:ContextBase.obj
 0001:0005bd0a       ?CancelCollectionComplete@ContextBase@details@Concurrency@@QAE_NH@Z 1005cd0a f   libconcrt:ContextBase.obj
 0001:0005bd3a       ?CancelStealers@ContextBase@details@Concurrency@@QAEXPAV_TaskCollectionBase@23@@Z 1005cd3a f   libconcrt:ContextBase.obj
 0001:0005be04       ?CheckForDeletion@?$ListArray@VWorkQueue@details@Concurrency@@@details@Concurrency@@AAEXXZ 1005ce04 f i libconcrt:ContextBase.obj
 0001:0005be2a       ?CheckForDeletionBridge@?$ListArray@VWorkQueue@details@Concurrency@@@details@Concurrency@@CAXPAV123@@Z 1005ce2a f i libconcrt:ContextBase.obj
 0001:0005be36       ?Claim@Slot@?$Mailbox@V_UnrealizedChore@details@Concurrency@@@details@Concurrency@@QAE_NPAPAV_UnrealizedChore@34@@Z 1005ce36 f i libconcrt:ContextBase.obj
 0001:0005be7d       ?Cleanup@ContextBase@details@Concurrency@@QAEXXZ 1005ce7d f   libconcrt:ContextBase.obj
 0001:0005bead       ?ClearAliasTable@ContextBase@details@Concurrency@@QAEXXZ 1005cead f   libconcrt:ContextBase.obj
 0001:0005beee       ?ClearContextTls@ContextBase@details@Concurrency@@AAEXXZ 1005ceee f   libconcrt:ContextBase.obj
 0001:0005befe       ?CreateWorkQueue@ContextBase@details@Concurrency@@QAEXXZ 1005cefe f   libconcrt:ContextBase.obj
 0001:0005bf7d       ?DeleteElements@?$ListArray@VWorkQueue@details@Concurrency@@@details@Concurrency@@AAEXPAU_SINGLE_LIST_ENTRY@@@Z 1005cf7d f i libconcrt:ContextBase.obj
 0001:0005bf9f       ?Dereference@Segment@?$Mailbox@V_UnrealizedChore@details@Concurrency@@@details@Concurrency@@QAEXXZ 1005cf9f f i libconcrt:ContextBase.obj
 0001:0005bfba       ?DetachStealers@ContextBase@details@Concurrency@@QAEXXZ 1005cfba f   libconcrt:ContextBase.obj
 0001:0005c0fc       ?GetContextKind@ExternalContextBase@details@Concurrency@@EBE?AW4ContextKind@ContextBase@23@XZ 1005d0fc f   libconcrt:ExternalContextBase.obj
 0001:0005c0fc       ?GetDefaultDestination@VirtualProcessor@details@Concurrency@@UAEPAUIExecutionContext@3@XZ 1005d0fc f   libconcrt:VirtualProcessor.obj
 0001:0005c0fc       ?EnterHyperCriticalRegion@ContextBase@details@Concurrency@@QAEHXZ 1005d0fc f   libconcrt:ContextBase.obj
 0001:0005c0fc       ?EnterCriticalRegion@ContextBase@details@Concurrency@@QAEHXZ 1005d0fc f   libconcrt:ContextBase.obj
 0001:0005c0fc       ?ExitHyperCriticalRegion@ContextBase@details@Concurrency@@QAEHXZ 1005d0fc f   libconcrt:ContextBase.obj
 0001:0005c0fc       ?PreRunnableSearch@VirtualProcessor@details@Concurrency@@UAEPAVInternalContextBase@23@XZ 1005d0fc f   libconcrt:VirtualProcessor.obj
 0001:0005c0fc       ?ExitCriticalRegion@ContextBase@details@Concurrency@@QAEHXZ 1005d0fc f   libconcrt:ContextBase.obj
 0001:0005c0ff       ?EnterCriticalRegionHelper@ContextBase@details@Concurrency@@UAEHXZ 1005d0ff f i libconcrt:ContextBase.obj
 0001:0005c107       ?EnterHyperCriticalRegionHelper@ContextBase@details@Concurrency@@UAEHXZ 1005d107 f i libconcrt:ContextBase.obj
 0001:0005c112       ?ExitCriticalRegionHelper@ContextBase@details@Concurrency@@UAEHXZ 1005d112 f i libconcrt:ContextBase.obj
 0001:0005c11a       ?ExitHyperCriticalRegionHelper@ContextBase@details@Concurrency@@UAEHXZ 1005d11a f i libconcrt:ContextBase.obj
 0001:0005c125       ?FindAndDelete@?$Hash@PAV_TaskCollection@details@Concurrency@@PAV123@@details@Concurrency@@QAE_NABQAV_TaskCollection@23@PAPAV423@@Z 1005d125 f i libconcrt:ContextBase.obj
 0001:0005c167       ?FlagCancellationBeacons@ContextBase@details@Concurrency@@QAEXH@Z 1005d167 f   libconcrt:ContextBase.obj
 0001:0005c1af       ?GetCriticalRegionType@ContextBase@details@Concurrency@@UBE?AW4CriticalRegionType@3@XZ 1005d1af f i libconcrt:ContextBase.obj
 0001:0005c1c3       ?GetIndirectAlias@ContextBase@details@Concurrency@@QBEPAV_TaskCollection@23@XZ 1005d1c3 f   libconcrt:ContextBase.obj
 0001:0005c1c7       ?GetScheduleGroup@ContextBase@details@Concurrency@@QBEPAVScheduleGroupBase@23@XZ 1005d1c7 f   libconcrt:ContextBase.obj
 0001:0005c1d8       ?GetScheduleGroupId@ContextBase@details@Concurrency@@UBEIXZ 1005d1d8 f   libconcrt:ContextBase.obj
 0001:0005c1ff       ?GetScheduleGroupSegment@ContextBase@details@Concurrency@@QBEPAVScheduleGroupSegmentBase@23@XZ 1005d1ff f   libconcrt:ContextBase.obj
 0001:0005c1ff       ?GetAvailableNodeCount@ResourceManager@details@Concurrency@@UBEIXZ 1005d1ff f   libconcrt:ResourceManager.obj
 0001:0005c203       ?HashValue@?$Hash@II@details@Concurrency@@CAIABIH@Z 1005d203 f i libconcrt:SchedulerBase.obj
 0001:0005c203       ?HashValue@?$Hash@PAV_TaskCollection@details@Concurrency@@PAV123@@details@Concurrency@@CAIABQAV_TaskCollection@23@H@Z 1005d203 f i libconcrt:ContextBase.obj
 0001:0005c22f       ?IsCanceledAtDepth@ContextBase@details@Concurrency@@AAE_NPAV_TaskCollectionBase@23@H@Z 1005d22f f   libconcrt:ContextBase.obj
 0001:0005c319       ?LockedSetOwningContext@WorkQueue@details@Concurrency@@QAEXPAVContextBase@23@@Z 1005d319 f i libconcrt:ContextBase.obj
 0001:0005c33c       ?NextList@?$Hash@PAV_TaskCollection@details@Concurrency@@PAV123@@details@Concurrency@@AAEPAUListNode@123@PAH@Z 1005d33c f i libconcrt:ContextBase.obj
 0001:0005c36d       ?Pop@?$WorkStealingQueue@V_UnrealizedChore@details@Concurrency@@V_CriticalNonReentrantLock@23@@details@Concurrency@@QAEPAV_UnrealizedChore@23@XZ 1005d36d f i libconcrt:ContextBase.obj
 0001:0005c3c7       ?PopContextFromTls@ContextBase@details@Concurrency@@AAEPAV123@XZ 1005d3c7 f   libconcrt:ContextBase.obj
 0001:0005c3e5       ?PushContextToTls@ContextBase@details@Concurrency@@AAEXPAV123@@Z 1005d3e5 f   libconcrt:ContextBase.obj
 0001:0005c400       ?RecomputeMaximumCancellationDepth@ContextBase@details@Concurrency@@AAEXXZ 1005d400 f   libconcrt:ContextBase.obj
 0001:0005c489       ?ReferenceForCancellation@ContextBase@details@Concurrency@@QAEXXZ 1005d489 f   libconcrt:ContextBase.obj
 0001:0005c48e       ?ReleaseWorkQueue@ContextBase@details@Concurrency@@IAEXXZ 1005d48e f   libconcrt:ContextBase.obj
 0001:0005c4e5       ?Remove@?$Hash@PAV_TaskCollection@details@Concurrency@@PAV123@@details@Concurrency@@AAEPAUListNode@123@ABQAV_TaskCollection@23@H@Z 1005d4e5 f i libconcrt:ContextBase.obj
 0001:0005c52d       ?Remove@?$List@UListEntry@details@Concurrency@@VNoCount@CollectionTypes@23@@details@Concurrency@@QAEXPAUListEntry@23@@Z 1005d52d f i libconcrt:ContextBase.obj
 0001:0005c55b       ?Remove@?$ListArray@VWorkQueue@details@Concurrency@@@details@Concurrency@@QAE_NPAVWorkQueue@23@H_N@Z 1005d55b f i libconcrt:ContextBase.obj
 0001:0005c658       ?Remove@?$SafeRWList@UListEntry@details@Concurrency@@VNoCount@CollectionTypes@23@V_ReaderWriterLock@23@@details@Concurrency@@QAEXPAUListEntry@23@@Z 1005d658 f i libconcrt:ContextBase.obj
 0001:0005c68c       ?RemoveStealer@ContextBase@details@Concurrency@@QAEXPAV123@@Z 1005d68c f   libconcrt:ContextBase.obj
 0001:0005c6a2       ?SetAsCurrentTls@ContextBase@details@Concurrency@@IAEXXZ 1005d6a2 f   libconcrt:ContextBase.obj
 0001:0005c6b1       ?StaticExitHyperCriticalRegion@ContextBase@details@Concurrency@@SAXXZ 1005d6b1 f   libconcrt:ContextBase.obj
 0001:0005c6b1       ?StaticEnterHyperCriticalRegion@ContextBase@details@Concurrency@@SAXXZ 1005d6b1 f   libconcrt:ContextBase.obj
 0001:0005c6b1       ?StaticExitCriticalRegion@ContextBase@details@Concurrency@@SAXXZ 1005d6b1 f   libconcrt:ContextBase.obj
 0001:0005c6b1       ?StaticEnterCriticalRegion@ContextBase@details@Concurrency@@SAXXZ 1005d6b1 f   libconcrt:ContextBase.obj
 0001:0005c6b6       ?SweepAliasTable@ContextBase@details@Concurrency@@QAEXXZ 1005d6b6 f   libconcrt:ContextBase.obj
 0001:0005c73a       ?SweepUnstructured@ContextBase@details@Concurrency@@QAEXP6A_NPAV_UnrealizedChore@23@PAX@Z12@Z 1005d73a f   libconcrt:ContextBase.obj
 0001:0005c746       ?SyncPop@?$WorkStealingQueue@V_UnrealizedChore@details@Concurrency@@V_CriticalNonReentrantLock@23@@details@Concurrency@@AAEPAV_UnrealizedChore@23@XZ 1005d746 f i libconcrt:ContextBase.obj
 0001:0005c7df       ?ThrowContextEvent@ContextBase@details@Concurrency@@KAXW4ConcRT_EventType@3@EKK@Z 1005d7df f   libconcrt:ContextBase.obj
 0001:0005c852       ?TraceContextEvent@ContextBase@details@Concurrency@@IAEXW4ConcRT_EventType@3@EKK@Z 1005d852 f i libconcrt:ContextBase.obj
 0001:0005c87f       ?TryPop@?$WorkStealingQueue@V_UnrealizedChore@details@Concurrency@@V_CriticalNonReentrantLock@23@@details@Concurrency@@QAEPAV_UnrealizedChore@23@H@Z 1005d87f f i libconcrt:ContextBase.obj
 0001:0005c8e2       ?TryPopUnstructured@ContextBase@details@Concurrency@@QAEPAV_UnrealizedChore@23@H@Z 1005d8e2 f   libconcrt:ContextBase.obj
 0001:0005c8f1       ?_SafeGetParent@_TaskCollectionBase@details@Concurrency@@IAEPAV123@XZ 1005d8f1 f i libconcrt:ContextBase.obj
 0001:0005c905       ??$atomic_compare_exchange@J@details@Concurrency@@YAJAAU?$atomic@J@std@@JJ@Z 1005d905 f i libconcrt:TaskCollection.obj
 0001:0005c92c       ??$wait@V<lambda_cf8f1d893b3a87da856048d6f694e263>@@@condition_variable@std@@QAEXAAV?$unique_lock@Vmutex@std@@@1@V<lambda_cf8f1d893b3a87da856048d6f694e263>@@@Z 1005d92c f i libconcrt:TaskCollection.obj
 0001:0005c958       ??0CancellationTokenRegistration_TaskProc@details@Concurrency@@QAE@P6AXPAX@Z0H@Z 1005d958 f i libconcrt:TaskCollection.obj
 0001:0005c985       ??0_CancellationTokenRegistration@details@Concurrency@@QAE@J@Z 1005d985 f i libconcrt:TaskCollection.obj
 0001:0005c9d0       ??0_Interruption_exception@details@Concurrency@@QAE@ABV012@@Z 1005d9d0 f i libconcrt:TaskCollection.obj
 0001:0005c9eb       ??0_Interruption_exception@details@Concurrency@@QAE@XZ 1005d9eb f i libconcrt:TaskCollection.obj
 0001:0005c9fc       ??0_TaskCollection@details@Concurrency@@AAE@PAV012@_N@Z 1005d9fc f   libconcrt:TaskCollection.obj
 0001:0005caed       ??0missing_wait@Concurrency@@QAE@ABV01@@Z 1005daed f i libconcrt:TaskCollection.obj
 0001:0005cb08       ??1?$_MallocaArrayHolder@PAVevent@Concurrency@@@details@Concurrency@@UAE@XZ 1005db08 f i libconcrt:TaskCollection.obj
 0001:0005cb18       ??1?$unique_lock@Vmutex@std@@@std@@QAE@XZ 1005db18 f i libconcrt:TaskCollection.obj
 0001:0005cb57       ??1TaskStack@details@Concurrency@@QAE@XZ 1005db57 f   libconcrt:TaskCollection.obj
 0001:0005cb67       ??1_CancellationTokenRegistration@details@Concurrency@@MAE@XZ 1005db67 f i libconcrt:TaskCollection.obj
 0001:0005cb8c       ??1_TaskCollection@details@Concurrency@@QAE@XZ 1005db8c f   libconcrt:TaskCollection.obj
 0001:0005cc6a       ??1exception_ptr@std@@QAE@XZ 1005dc6a f i libconcrt:TaskCollection.obj
 0001:0005cc72       ??_G?$_MallocaArrayHolder@PAVevent@Concurrency@@@details@Concurrency@@UAEPAXI@Z 1005dc72 f i libconcrt:TaskCollection.obj
 0001:0005cc72       ??_E?$_MallocaArrayHolder@PAVevent@Concurrency@@@details@Concurrency@@UAEPAXI@Z 1005dc72 f i libconcrt:TaskCollection.obj
 0001:0005cc9e       ??_ECancellationTokenRegistration_TaskProc@details@Concurrency@@UAEPAXI@Z 1005dc9e f i libconcrt:TaskCollection.obj
 0001:0005cc9e       ??_GCancellationTokenRegistration_TaskProc@details@Concurrency@@UAEPAXI@Z 1005dc9e f i libconcrt:TaskCollection.obj
 0001:0005ccc0       ??_G_CancellationTokenRegistration@details@Concurrency@@MAEPAXI@Z 1005dcc0 f i libconcrt:TaskCollection.obj
 0001:0005ccc0       ??_E_CancellationTokenRegistration@details@Concurrency@@MAEPAXI@Z 1005dcc0 f i libconcrt:TaskCollection.obj
 0001:0005cce2       ??_G_RefCounter@details@Concurrency@@UAEPAXI@Z 1005dce2 f i libconcrt:TaskCollection.obj
 0001:0005cce2       ??_E_RefCounter@details@Concurrency@@UAEPAXI@Z 1005dce2 f i libconcrt:TaskCollection.obj
 0001:0005cd05       ?AddArbitraryAlias@ContextBase@details@Concurrency@@QAEXPAV_TaskCollection@23@0@Z 1005dd05 f i libconcrt:TaskCollection.obj
 0001:0005cd28       ?GetArbitraryAlias@ContextBase@details@Concurrency@@QAEPAV_TaskCollection@23@PAV423@@Z 1005dd28 f i libconcrt:TaskCollection.obj
 0001:0005cd8c       ?Insert@?$Hash@PAV_TaskCollection@details@Concurrency@@PAV123@@details@Concurrency@@QAEPAUListNode@123@ABQAV_TaskCollection@23@0@Z 1005dd8c f i libconcrt:TaskCollection.obj
 0001:0005cd8c       ?Insert@?$Hash@II@details@Concurrency@@QAEPAUListNode@123@ABI0@Z 1005dd8c f i libconcrt:SchedulerBase.obj
 0001:0005cdf6       ?_Abort@_TaskCollection@details@Concurrency@@AAEX_N@Z 1005ddf6 f   libconcrt:TaskCollection.obj
 0001:0005cf25       ?_AbortiveSweep@_TaskCollection@details@Concurrency@@AAEXPAX@Z 1005df25 f   libconcrt:TaskCollection.obj
 0001:0005cf6f       ?_Alias@_TaskCollection@details@Concurrency@@AAEPAV123@XZ 1005df6f f   libconcrt:TaskCollection.obj
 0001:0005cffb       ?_Atomic_compare_exchange_strong_4@std@@YAHPCKPAKKW4memory_order@1@2@Z 1005dffb f i libconcrt:TaskCollection.obj
 0001:0005d06a       ?_Cancel@_StructuredTaskCollection@details@Concurrency@@QAEXXZ 1005e06a f   libconcrt:TaskCollection.obj
 0001:0005d0bb       ?_Cancel@_TaskCollection@details@Concurrency@@AAEX_NPAV123@@Z 1005e0bb f   libconcrt:TaskCollection.obj
 0001:0005d15c       ?_CancelDirectAliases@_TaskCollection@details@Concurrency@@AAEX_NPAV123@@Z 1005e15c f   libconcrt:TaskCollection.obj
 0001:0005d17b       ?_CancelFromArbitraryThread@_TaskCollection@details@Concurrency@@AAEX_N@Z 1005e17b f   libconcrt:TaskCollection.obj
 0001:0005d220       ?_CancelStolenContexts@_TaskCollection@details@Concurrency@@AAEX_N0@Z 1005e220 f   libconcrt:TaskCollection.obj
 0001:0005d2ab       ?_Cnd_broadcastX@std@@YAHPAU_Cnd_internal_imp_t@@@Z 1005e2ab f i libconcrt:TaskCollection.obj
 0001:0005d2ca       ?_Cnd_waitX@std@@YAHPAU_Cnd_internal_imp_t@@PAU_Mtx_internal_imp_t@@@Z 1005e2ca f i libconcrt:TaskCollection.obj
 0001:0005d2ed       ?_CollectionMatchPredicate@_TaskCollection@details@Concurrency@@CA_NPAV_UnrealizedChore@23@PAX@Z 1005e2ed f   libconcrt:TaskCollection.obj
 0001:0005d300       ?_Compare_exchange_seq_cst_4@std@@YAHPCKPAKK@Z 1005e300 f i libconcrt:TaskCollection.obj
 0001:0005d300       ?_Compare_exchange_release_4@std@@YAHPCKPAKK@Z 1005e300 f i libconcrt:TaskCollection.obj
 0001:0005d300       ?_Compare_exchange_relaxed_4@std@@YAHPCKPAKK@Z 1005e300 f i libconcrt:TaskCollection.obj
 0001:0005d300       ?_Compare_exchange_acquire_4@std@@YAHPCKPAKK@Z 1005e300 f i libconcrt:TaskCollection.obj
 0001:0005d327       ?_CountUp@_StructuredTaskCollection@details@Concurrency@@AAEXXZ 1005e327 f   libconcrt:TaskCollection.obj
 0001:0005d357       ?_DeregisterCallback@_CancellationTokenState@details@Concurrency@@QAEXPAV_CancellationTokenRegistration@23@@Z 1005e357 f i libconcrt:TaskCollection.obj
 0001:0005d420       ?_Destroy@_RefCounter@details@Concurrency@@MAEXXZ 1005e420 f i libconcrt:TaskCollection.obj
 0001:0005d43c       ?_Exec@CancellationTokenRegistration_TaskProc@details@Concurrency@@MAEXXZ 1005e43c f i libconcrt:TaskCollection.obj
 0001:0005d44f       ?_FullAliasWait@_TaskCollection@details@Concurrency@@AAEXPAV123@@Z 1005e44f f   libconcrt:TaskCollection.obj
 0001:0005d53d       ?_GetStealTrackingList@_TaskCollection@details@Concurrency@@ABEPAXXZ 1005e53d f   libconcrt:TaskCollection.obj
 0001:0005d541       ?_InitOnRawMalloca@?$_MallocaArrayHolder@PAVContext@Concurrency@@@details@Concurrency@@QAEPAPAVContext@3@PAX@Z 1005e541 f i libconcrt:event.obj
 0001:0005d541       ?_InitOnRawMalloca@?$_MallocaArrayHolder@PAVevent@Concurrency@@@details@Concurrency@@QAEPAPAVevent@3@PAX@Z 1005e541 f i libconcrt:TaskCollection.obj
 0001:0005d572       ?_Initialize@_StructuredTaskCollection@details@Concurrency@@AAEXXZ 1005e572 f   libconcrt:TaskCollection.obj
 0001:0005d5c8       ?_Initialize@_TaskCollection@details@Concurrency@@AAEXXZ 1005e5c8 f   libconcrt:TaskCollection.obj
 0001:0005d5fd       ?_Invoke@_CancellationTokenRegistration@details@Concurrency@@AAEXXZ 1005e5fd f i libconcrt:TaskCollection.obj
 0001:0005d684       ?_IsDirectAlias@_TaskCollection@details@Concurrency@@ABE_NXZ 1005e684 f   libconcrt:TaskCollection.obj
 0001:0005d697       ?_IsIndirectAlias@_TaskCollection@details@Concurrency@@ABE_NXZ 1005e697 f   libconcrt:TaskCollection.obj
 0001:0005d6aa       ?_IsMarkedForAbnormalExit@_TaskCollection@details@Concurrency@@QBE_NXZ 1005e6aa f   libconcrt:TaskCollection.obj
 0001:0005d6b8       ?_IsStaleAlias@_TaskCollection@details@Concurrency@@ABE_NXZ 1005e6b8 f   libconcrt:TaskCollection.obj
 0001:0005d6c1       ?_IsValid@_CancellationTokenState@details@Concurrency@@SA_NPAV123@@Z 1005e6c1 f i libconcrt:TaskCollection.obj
 0001:0005d6d9       ?_Memory_order_upper_bound@std@@YA?AW4memory_order@1@W421@0@Z 1005e6d9 f i libconcrt:TaskCollection.obj
 0001:0005d6fe       ?_NotifyCompletedChoreAndFree@_TaskCollection@details@Concurrency@@AAEXPAV_UnrealizedChore@23@@Z 1005e6fe f   libconcrt:TaskCollection.obj
 0001:0005d74f       ?_OriginalCollection@_TaskCollection@details@Concurrency@@QBEPAV123@XZ 1005e74f f   libconcrt:TaskCollection.obj
 0001:0005d753       ?_RegisterCallback@_CancellationTokenState@details@Concurrency@@QAEPAV_CancellationTokenRegistration@23@P6AXPAX@Z0H@Z 1005e753 f i libconcrt:TaskCollection.obj
 0001:0005d792       ?_RegisterCallback@_CancellationTokenState@details@Concurrency@@QAEXPAV_CancellationTokenRegistration@23@@Z 1005e792 f i libconcrt:TaskCollection.obj
 0001:0005d804       ?_Release@_RefCounter@details@Concurrency@@QAEJXZ 1005e804 f i libconcrt:TaskCollection.obj
 0001:0005d82a       ?_ReleaseAlias@_TaskCollection@details@Concurrency@@AAEXXZ 1005e82a f   libconcrt:TaskCollection.obj
 0001:0005d864       ?_Reset@_TaskCollection@details@Concurrency@@AAEXPAV123@@Z 1005e864 f   libconcrt:TaskCollection.obj
 0001:0005d961       ?_SetCancelState@_TaskCollection@details@Concurrency@@AAE_NJ@Z 1005e961 f   libconcrt:TaskCollection.obj
 0001:0005d99b       ?_SweepAbortedChore@_TaskCollection@details@Concurrency@@CA_NPAV_UnrealizedChore@23@PAX@Z 1005e99b f   libconcrt:TaskCollection.obj
 0001:0005d9b4       ?_TaskCleanup@_TaskCollection@details@Concurrency@@AAE_N_N@Z 1005e9b4 f   libconcrt:TaskCollection.obj
 0001:0005da08       ?push_back@TokenRegistrationContainer@_CancellationTokenState@details@Concurrency@@QAEXPAV_CancellationTokenRegistration@34@@Z 1005ea08 f i libconcrt:TaskCollection.obj
 0001:0005da46       ?remove@TokenRegistrationContainer@_CancellationTokenState@details@Concurrency@@QAEXPAV_CancellationTokenRegistration@34@@Z 1005ea46 f i libconcrt:TaskCollection.obj
 0001:0005da8a       ??0SchedulerPolicy@Concurrency@@QAA@IZZ 1005ea8a f   libconcrt:SchedulerPolicyBase.obj
 0001:0005daaa       ??0SchedulerPolicy@Concurrency@@QAE@ABV01@@Z 1005eaaa f   libconcrt:SchedulerPolicyBase.obj
 0001:0005dad0       ??0invalid_scheduler_policy_key@Concurrency@@QAE@ABV01@@Z 1005ead0 f i libconcrt:SchedulerPolicyBase.obj
 0001:0005daeb       ??0invalid_scheduler_policy_thread_specification@Concurrency@@QAE@ABV01@@Z 1005eaeb f i libconcrt:SchedulerPolicyBase.obj
 0001:0005db06       ??0invalid_scheduler_policy_value@Concurrency@@QAE@ABV01@@Z 1005eb06 f i libconcrt:SchedulerPolicyBase.obj
 0001:0005db21       ??1SchedulerPolicy@Concurrency@@QAE@XZ 1005eb21 f   libconcrt:SchedulerPolicyBase.obj
 0001:0005db2d       ??4SchedulerPolicy@Concurrency@@QAEAAV01@ABV01@@Z 1005eb2d f   libconcrt:SchedulerPolicyBase.obj
 0001:0005db4b       ?GetPolicyValue@SchedulerPolicy@Concurrency@@QBEIW4PolicyElementKey@2@@Z 1005eb4b f   libconcrt:SchedulerPolicyBase.obj
 0001:0005db83       ?_AreConcurrencyLimitsValid@SchedulerPolicy@Concurrency@@CA_NII@Z 1005eb83 f   libconcrt:SchedulerPolicyBase.obj
 0001:0005dba1       ?_Initialize@SchedulerPolicy@Concurrency@@AAEXIPAPAD@Z 1005eba1 f   libconcrt:SchedulerPolicyBase.obj
 0001:0005dc8c       ?_ResolvePolicyValues@SchedulerPolicy@Concurrency@@AAEXXZ 1005ec8c f   libconcrt:SchedulerPolicyBase.obj
 0001:0005dcd4       ?_StringFromPolicyKey@SchedulerPolicy@Concurrency@@CAPADI@Z 1005ecd4 f   libconcrt:SchedulerPolicyBase.obj
 0001:0005dceb       ?_ValidPolicyValue@SchedulerPolicy@Concurrency@@CA_NW4PolicyElementKey@2@I@Z 1005eceb f   libconcrt:SchedulerPolicyBase.obj
 0001:0005ddcb       ?_ValidateConcRTPolicy@SchedulerPolicy@Concurrency@@QBEXXZ 1005edcb f   libconcrt:SchedulerPolicyBase.obj
 0001:0005de07       ??0ExecutionResource@details@Concurrency@@QAE@PAVSchedulerProxy@12@PAUSchedulerNode@12@I@Z 1005ee07 f   libconcrt:ExecutionResource.obj
 0001:0005de69       ??0ExecutionResource@details@Concurrency@@QAE@PAVSchedulerProxy@12@PAV012@@Z 1005ee69 f   libconcrt:ExecutionResource.obj
 0001:0005debd       ?CurrentSubscriptionLevel@ExecutionResource@details@Concurrency@@UBEIXZ 1005eebd f   libconcrt:ExecutionResource.obj
 0001:0005decf       ?DecrementUseCounts@ExecutionResource@details@Concurrency@@QAEXXZ 1005eecf f   libconcrt:ExecutionResource.obj
 0001:0005df3b       ?GetExecutionResourceId@ExecutionResource@details@Concurrency@@UBEIXZ 1005ef3b f i libconcrt:ExecutionResource.obj
 0001:0005df3b       ?GetNodeId@VirtualProcessorRoot@details@Concurrency@@UBEIXZ 1005ef3b f i libconcrt:VirtualProcessorRoot.obj
 0001:0005df3f       ?GetNodeId@ExecutionResource@details@Concurrency@@UBEIXZ 1005ef3f f i libconcrt:ExecutionResource.obj
 0001:0005df43       ?IncrementUseCounts@ExecutionResource@details@Concurrency@@QAEXXZ 1005ef43 f   libconcrt:ExecutionResource.obj
 0001:0005e010       ?Remove@ExecutionResource@details@Concurrency@@UAEXPAUIScheduler@3@@Z 1005f010 f   libconcrt:ExecutionResource.obj
 0001:0005e071       ?ResetCurrent@ExecutionResource@details@Concurrency@@QAEXXZ 1005f071 f   libconcrt:ExecutionResource.obj
 0001:0005e08d       ?SetAsCurrent@ExecutionResource@details@Concurrency@@QAEXXZ 1005f08d f   libconcrt:ExecutionResource.obj
 0001:0005e0b0       ??$sign@I@details@Concurrency@@YAII@Z 1005f0b0 f i libconcrt:HillClimbing.obj
 0001:0005e0c8       ??$sign@N@details@Concurrency@@YANN@Z 1005f0c8 f i libconcrt:HillClimbing.obj
 0001:0005e102       ??0HillClimbing@details@Concurrency@@QAE@IIPAVSchedulerProxy@12@@Z 1005f102 f   libconcrt:HillClimbing.obj
 0001:0005e191       ?Add@MeasuredHistory@HillClimbing@details@Concurrency@@QAEXNI@Z 1005f191 f   libconcrt:HillClimbing.obj
 0001:0005e1b4       ?CalculateThroughput@HillClimbing@details@Concurrency@@AAENIIII@Z 1005f1b4 f   libconcrt:HillClimbing.obj
 0001:0005e1f1       ?CalculateThroughputSlope@HillClimbing@details@Concurrency@@AAENHH@Z 1005f1f1 f   libconcrt:HillClimbing.obj
 0001:0005e2af       ?CoefficientOfVariationMean@MeasuredHistory@HillClimbing@details@Concurrency@@QAENXZ 1005f2af f   libconcrt:HillClimbing.obj
 0001:0005e2e8       ?EstablishControlSetting@HillClimbing@details@Concurrency@@AAEXI@Z 1005f2e8 f   libconcrt:HillClimbing.obj
 0001:0005e32d       ?FlushHistories@HillClimbing@details@Concurrency@@AAEXXZ 1005f32d f   libconcrt:HillClimbing.obj
 0001:0005e373       ?GetHistory@HillClimbing@details@Concurrency@@AAEPAVMeasuredHistory@123@I@Z 1005f373 f   libconcrt:HillClimbing.obj
 0001:0005e39e       ?GetRandomMove@HillClimbing@details@Concurrency@@AAEHXZ 1005f39e f   libconcrt:HillClimbing.obj
 0001:0005e3b7       ?IsStableHistory@HillClimbing@details@Concurrency@@AAE_NPAVMeasuredHistory@123@@Z 1005f3b7 f   libconcrt:HillClimbing.obj
 0001:0005e3e7       ?Mean@MeasuredHistory@HillClimbing@details@Concurrency@@QAENXZ 1005f3e7 f   libconcrt:HillClimbing.obj
 0001:0005e409       ?RecommendControlSetting@HillClimbing@details@Concurrency@@AAEII@Z 1005f409 f   libconcrt:HillClimbing.obj
 0001:0005e4db       ?Update@HillClimbing@details@Concurrency@@QAEIIIII@Z 1005f4db f   libconcrt:HillClimbing.obj
 0001:0005e69d       ?Variance@MeasuredHistory@HillClimbing@details@Concurrency@@QAENXZ 1005f69d f   libconcrt:HillClimbing.obj
 0001:0005e6eb       ??0SchedulerProxy@details@Concurrency@@QAE@PAUIScheduler@2@PAVResourceManager@12@ABVSchedulerPolicy@2@@Z 1005f6eb f   libconcrt:SchedulerProxy.obj
 0001:0005e945       ??1SchedulerProxy@details@Concurrency@@IAE@XZ 1005f945 f   libconcrt:SchedulerProxy.obj
 0001:0005e9a4       ??1_Scoped_lock@_NonReentrantBlockingLock@details@Concurrency@@QAE@XZ 1005f9a4 f i libconcrt:ResourceManager.obj
 0001:0005e9a4       ??1_Scoped_lock@_ReentrantBlockingLock@details@Concurrency@@QAE@XZ 1005f9a4 f i libconcrt:SchedulerProxy.obj
 0001:0005e9dc       ?AddCore@SchedulerProxy@details@Concurrency@@QAEXPAUSchedulerNode@23@I_N@Z 1005f9dc f   libconcrt:SchedulerProxy.obj
 0001:0005eaae       ?AddExecutionResource@SchedulerProxy@details@Concurrency@@QAEXPAVExecutionResource@23@@Z 1005faae f   libconcrt:SchedulerProxy.obj
 0001:0005eaf7       ?AddTail@?$List@VExecutionResource@details@Concurrency@@VCount@CollectionTypes@23@@details@Concurrency@@QAEXPAVExecutionResource@23@@Z 1005faf7 f i libconcrt:SchedulerProxy.obj
 0001:0005eb30       ?AddThreadSubscription@SchedulerProxy@details@Concurrency@@QAEXPAVExecutionResource@23@@Z 1005fb30 f   libconcrt:SchedulerProxy.obj
 0001:0005eb3f       ?AddVirtualProcessorRoots@SchedulerProxy@details@Concurrency@@QAEXPAPAUIVirtualProcessorRoot@3@I@Z 1005fb3f f   libconcrt:SchedulerProxy.obj
 0001:0005ebeb       ?AdjustAllocationIncrease@SchedulerProxy@details@Concurrency@@QBEII@Z 1005fbeb f   libconcrt:SchedulerProxy.obj
 0001:0005ec5b       ?BindContext@SchedulerProxy@details@Concurrency@@UAEXPAUIExecutionContext@3@@Z 1005fc5b f   libconcrt:SchedulerProxy.obj
 0001:0005ecb7       ?Cleanup@SchedulerProxy@details@Concurrency@@IAEXXZ 1005fcb7 f   libconcrt:SchedulerProxy.obj
 0001:0005ed85       ?CreateExternalThreadResource@SchedulerProxy@details@Concurrency@@QAEPAVExecutionResource@23@PAUSchedulerNode@23@I@Z 1005fd85 f   libconcrt:SchedulerProxy.obj
 0001:0005edcc       ?CreateOversubscriber@SchedulerProxy@details@Concurrency@@UAEPAUIVirtualProcessorRoot@3@PAUIExecutionResource@3@@Z 1005fdcc f   libconcrt:SchedulerProxy.obj
 0001:0005ee86       ?CreateVirtualProcessorRoot@SchedulerProxy@details@Concurrency@@UAEPAVVirtualProcessorRoot@23@PAUSchedulerNode@23@I@Z 1005fe86 f   libconcrt:SchedulerProxy.obj
 0001:0005eebe       ?DecrementCoreSubscription@SchedulerProxy@details@Concurrency@@QAEXPAVExecutionResource@23@@Z 1005febe f   libconcrt:SchedulerProxy.obj
 0001:0005ef08       ?DecrementFixedCoreCount@SchedulerProxy@details@Concurrency@@QAEXII_N@Z 1005ff08 f   libconcrt:SchedulerProxy.obj
 0001:0005ef83       ?DeleteThis@SchedulerProxy@details@Concurrency@@MAEXXZ 1005ff83 f i libconcrt:SchedulerProxy.obj
 0001:0005ef9e       ?DestroyExecutionResource@SchedulerProxy@details@Concurrency@@QAEXPAVExecutionResource@23@@Z 1005ff9e f   libconcrt:SchedulerProxy.obj
 0001:0005f023       ?DestroyVirtualProcessorRoot@SchedulerProxy@details@Concurrency@@QAEXPAVVirtualProcessorRoot@23@@Z 10060023 f   libconcrt:SchedulerProxy.obj
 0001:0005f0ac       ?FinalShutdown@SchedulerProxy@details@Concurrency@@UAEXXZ 100600ac f   libconcrt:SchedulerProxy.obj
 0001:0005f0c8       ?GetCurrentThreadExecutionResource@SchedulerProxy@details@Concurrency@@QAEPAVExecutionResource@23@XZ 100600c8 f   libconcrt:SchedulerProxy.obj
 0001:0005f0e5       ?GetNewThreadProxy@SchedulerProxy@details@Concurrency@@UAEPAUIThreadProxy@3@PAUIExecutionContext@3@@Z 100600e5 f   libconcrt:SchedulerProxy.obj
 0001:0005f132       ?GetResourceForNewSubscription@SchedulerProxy@details@Concurrency@@QAEPAVExecutionResource@23@PAV423@@Z 10060132 f   libconcrt:SchedulerProxy.obj
 0001:0005f180       ?GrantAllocation@SchedulerProxy@details@Concurrency@@QAEPAVExecutionResource@23@I_N0@Z 10060180 f   libconcrt:SchedulerProxy.obj
 0001:0005f45f       ?IncrementCoreSubscription@SchedulerProxy@details@Concurrency@@QAEXPAVExecutionResource@23@@Z 1006045f f   libconcrt:SchedulerProxy.obj
 0001:0005f4ad       ?IncrementFixedCoreCount@SchedulerProxy@details@Concurrency@@QAEXII_N@Z 100604ad f   libconcrt:SchedulerProxy.obj
 0001:0005f535       ?ReferenceCurrentThreadExecutionResource@SchedulerProxy@details@Concurrency@@QAEPAVExecutionResource@23@XZ 10060535 f   libconcrt:SchedulerProxy.obj
 0001:0005f5e0       ?Remove@?$List@VExecutionResource@details@Concurrency@@VCount@CollectionTypes@23@@details@Concurrency@@QAEXPAVExecutionResource@23@@Z 100605e0 f i libconcrt:SchedulerProxy.obj
 0001:0005f616       ?RemoveCore@SchedulerProxy@details@Concurrency@@QAEXPAUSchedulerNode@23@I@Z 10060616 f   libconcrt:SchedulerProxy.obj
 0001:0005f700       ?RemoveThreadSubscription@SchedulerProxy@details@Concurrency@@QAEXPAVExecutionResource@23@@Z 10060700 f   libconcrt:SchedulerProxy.obj
 0001:0005f72c       ?RequestInitialVirtualProcessors@SchedulerProxy@details@Concurrency@@UAEPAUIExecutionResource@3@_N@Z 1006072c f   libconcrt:SchedulerProxy.obj
 0001:0005f73f       ?SendCoreNotification@SchedulerProxy@details@Concurrency@@QAEXPAUSchedulerCore@23@_N@Z 1006073f f   libconcrt:SchedulerProxy.obj
 0001:0005f823       ?Shutdown@SchedulerProxy@details@Concurrency@@UAEXXZ 10060823 f   libconcrt:SchedulerProxy.obj
 0001:0005f82d       ?SubscribeCurrentThread@SchedulerProxy@details@Concurrency@@UAEPAUIExecutionResource@3@XZ 1006082d f   libconcrt:SchedulerProxy.obj
 0001:0005f837       ?ToggleBorrowedState@SchedulerProxy@details@Concurrency@@QAEXPAUSchedulerNode@23@I@Z 10060837 f   libconcrt:SchedulerProxy.obj
 0001:0005f86a       ?UnbindContext@SchedulerProxy@details@Concurrency@@UAEXPAUIExecutionContext@3@@Z 1006086a f   libconcrt:SchedulerProxy.obj
 0001:0005f8b4       ?Initialize@WinRT@details@Concurrency@@SAXXZ 100608b4 f   libconcrt:WinRTWrapper.obj
 0001:0005f965       ?RoInitialize@WinRT@details@Concurrency@@SAJW4RO_INIT_TYPE@@@Z 10060965 f   libconcrt:WinRTWrapper.obj
 0001:0005f986       ?RoUninitialize@WinRT@details@Concurrency@@SAXXZ 10060986 f   libconcrt:WinRTWrapper.obj
 0001:0005f9a0       ??0?$ThreadProxyFactory@VFreeThreadProxy@details@Concurrency@@@details@Concurrency@@IAE@PAVThreadProxyFactoryManager@12@@Z 100609a0 f i libconcrt:ThreadProxyFactoryManager.obj
 0001:0005f9db       ??0FreeThreadProxy@details@Concurrency@@QAE@PAUIThreadProxyFactory@12@I@Z 100609db f i libconcrt:ThreadProxyFactoryManager.obj
 0001:0005fa12       ??0FreeThreadProxyFactory@details@Concurrency@@IAE@PAVThreadProxyFactoryManager@12@@Z 10060a12 f i libconcrt:ThreadProxyFactoryManager.obj
 0001:0005fa3e       ??0ThreadProxyFactoryManager@details@Concurrency@@QAE@XZ 10060a3e f   libconcrt:ThreadProxyFactoryManager.obj
 0001:0005fa72       ??1ThreadProxyFactoryManager@details@Concurrency@@QAE@XZ 10060a72 f   libconcrt:ThreadProxyFactoryManager.obj
 0001:0005fae9       ??_G?$ThreadProxyFactory@VFreeThreadProxy@details@Concurrency@@@details@Concurrency@@UAEPAXI@Z 10060ae9 f i libconcrt:ThreadProxyFactoryManager.obj
 0001:0005fae9       ??_E?$ThreadProxyFactory@VFreeThreadProxy@details@Concurrency@@@details@Concurrency@@UAEPAXI@Z 10060ae9 f i libconcrt:ThreadProxyFactoryManager.obj
 0001:0005fb0c       ??_EFreeThreadProxy@details@Concurrency@@UAEPAXI@Z 10060b0c f i libconcrt:ThreadProxyFactoryManager.obj
 0001:0005fb0c       ??_GFreeThreadProxy@details@Concurrency@@UAEPAXI@Z 10060b0c f i libconcrt:ThreadProxyFactoryManager.obj
 0001:0005fb34       ??_EFreeThreadProxyFactory@details@Concurrency@@UAEPAXI@Z 10060b34 f i libconcrt:ThreadProxyFactoryManager.obj
 0001:0005fb34       ??_GFreeThreadProxyFactory@details@Concurrency@@UAEPAXI@Z 10060b34 f i libconcrt:ThreadProxyFactoryManager.obj
 0001:0005fb57       ??_GIThreadProxyFactory@details@Concurrency@@UAEPAXI@Z 10060b57 f i libconcrt:ThreadProxyFactoryManager.obj
 0001:0005fb57       ??_EIThreadProxyFactory@details@Concurrency@@UAEPAXI@Z 10060b57 f i libconcrt:ThreadProxyFactoryManager.obj
 0001:0005fb7a       ?Create@FreeThreadProxyFactory@details@Concurrency@@EAEPAVFreeThreadProxy@23@I@Z 10060b7a f i libconcrt:ThreadProxyFactoryManager.obj
 0001:0005fbaf       ?CreateFactory@FreeThreadProxyFactory@details@Concurrency@@SAPAV123@PAVThreadProxyFactoryManager@23@@Z 10060baf f i libconcrt:ThreadProxyFactoryManager.obj
 0001:0005fbd9       ?GetFreeThreadProxyFactory@ThreadProxyFactoryManager@details@Concurrency@@QAEPAVFreeThreadProxyFactory@23@XZ 10060bd9 f   libconcrt:ThreadProxyFactoryManager.obj
 0001:0005fc21       ?Prepare@?$ThreadProxyFactory@VFreeThreadProxy@details@Concurrency@@@details@Concurrency@@MAEXPAVFreeThreadProxy@23@H@Z 10060c21 f i libconcrt:ThreadProxyFactoryManager.obj
 0001:0005fc39       ?ReclaimProxy@?$ThreadProxyFactory@VFreeThreadProxy@details@Concurrency@@@details@Concurrency@@UAEXPAUIThreadProxy@3@@Z 10060c39 f i libconcrt:ThreadProxyFactoryManager.obj
 0001:0005fc9b       ?ReclaimProxy@FreeThreadProxyFactory@details@Concurrency@@UAEXPAUIThreadProxy@3@@Z 10060c9b f i libconcrt:ThreadProxyFactoryManager.obj
 0001:0005fd3e       ?Reference@FreeThreadProxyFactory@details@Concurrency@@UAEJXZ 10060d3e f i libconcrt:ThreadProxyFactoryManager.obj
 0001:0005fd48       ?Release@FreeThreadProxyFactory@details@Concurrency@@UAEJXZ 10060d48 f i libconcrt:ThreadProxyFactoryManager.obj
 0001:0005fd74       ?RequestProxy@?$ThreadProxyFactory@VFreeThreadProxy@details@Concurrency@@@details@Concurrency@@UAEPAUIThreadProxy@3@IH@Z 10060d74 f i libconcrt:ThreadProxyFactoryManager.obj
 0001:0005fdf6       ?Retire@FreeThreadProxyFactory@details@Concurrency@@EAEXPAVFreeThreadProxy@23@@Z 10060df6 f i libconcrt:ThreadProxyFactoryManager.obj
 0001:0005fe05       ?RetireThreadProxies@?$ThreadProxyFactory@VFreeThreadProxy@details@Concurrency@@@details@Concurrency@@QAEXXZ 10060e05 f i libconcrt:ThreadProxyFactoryManager.obj
 0001:0005fe72       ?ShutdownFactory@FreeThreadProxyFactory@details@Concurrency@@UAEXXZ 10060e72 f i libconcrt:ThreadProxyFactoryManager.obj
 0001:0005fe92       ?StaticInitialize@?$ThreadProxyFactory@VFreeThreadProxy@details@Concurrency@@@details@Concurrency@@KAXXZ 10060e92 f i libconcrt:ThreadProxyFactoryManager.obj
 0001:0005fea9       ?YieldToSystem@FreeThreadProxy@details@Concurrency@@UAEXXZ 10060ea9 f i libconcrt:ThreadProxyFactoryManager.obj
 0001:0005feae       ??0Etw@details@Concurrency@@AAE@XZ 10060eae f   libconcrt:Trace.obj
 0001:0005ff7a       ?ControlCallback@details@Concurrency@@YGKW4WMIDPREQUESTCODE@@PAXPAK1@Z 10060f7a f   libconcrt:Trace.obj
 0001:00060041       ?GetEnableFlags@Etw@details@Concurrency@@QAEK_K@Z 10061041 f   libconcrt:Trace.obj
 0001:0006007d       ?GetEnableLevel@Etw@details@Concurrency@@QAEE_K@Z 1006107d f   libconcrt:Trace.obj
 0001:000600b9       ?GetLoggerHandle@Etw@details@Concurrency@@QAE_KPAX@Z 100610b9 f   libconcrt:Trace.obj
 0001:000600f5       ?RegisterGuids@Etw@details@Concurrency@@QAEKP6GKW4WMIDPREQUESTCODE@@PAXPAK1@ZPBU_GUID@@KPAU_TRACE_GUID_REGISTRATION@@PA_K@Z 100610f5 f   libconcrt:Trace.obj
 0001:00060138       ?Trace@Etw@details@Concurrency@@QAEK_KPAU_EVENT_TRACE_HEADER@@@Z 10061138 f   libconcrt:Trace.obj
 0001:00060170       ?UnregisterGuids@Etw@details@Concurrency@@QAEK_K@Z 10061170 f   libconcrt:Trace.obj
 0001:000601a5       ?_RegisterConcRTEventTracing@details@Concurrency@@YAXXZ 100611a5 f   libconcrt:Trace.obj
 0001:00060214       ?_UnregisterConcRTEventTracing@details@Concurrency@@YAXXZ 10061214 f   libconcrt:Trace.obj
 0001:00060257       ??0?$StructuredWorkStealingQueue@V_UnrealizedChore@details@Concurrency@@V_CriticalNonReentrantLock@23@@details@Concurrency@@QAE@PAV_CriticalNonReentrantLock@12@@Z 10061257 f i libconcrt:WorkQueue.obj
 0001:00060257       ??0?$StructuredWorkStealingQueue@VInternalContextBase@details@Concurrency@@V_HyperNonReentrantLock@23@@details@Concurrency@@QAE@PAV_HyperNonReentrantLock@12@@Z 10061257 f i libconcrt:VirtualProcessor.obj
 0001:000602c7       ??0Slot@?$Mailbox@VInternalContextBase@details@Concurrency@@@details@Concurrency@@QAE@XZ 100612c7 f i libconcrt:VirtualProcessor.obj
 0001:000602d1       ??0VirtualProcessor@details@Concurrency@@QAE@XZ 100612d1 f   libconcrt:VirtualProcessor.obj
 0001:00060333       ??1?$StructuredWorkStealingQueue@VInternalContextBase@details@Concurrency@@V_HyperNonReentrantLock@23@@details@Concurrency@@QAE@XZ 10061333 f i libconcrt:VirtualProcessor.obj
 0001:00060333       ??1?$StructuredWorkStealingQueue@V_UnrealizedChore@details@Concurrency@@V_CriticalNonReentrantLock@23@@details@Concurrency@@QAE@XZ 10061333 f i libconcrt:ContextBase.obj
 0001:0006034a       ??1Segment@?$Mailbox@V_UnrealizedChore@details@Concurrency@@@details@Concurrency@@QAE@XZ 1006134a f i libconcrt:ContextBase.obj
 0001:0006034a       ??1Segment@?$Mailbox@VInternalContextBase@details@Concurrency@@@details@Concurrency@@QAE@XZ 1006134a f i libconcrt:VirtualProcessor.obj
 0001:00060361       ??1VirtualProcessor@details@Concurrency@@UAE@XZ 10061361 f   libconcrt:VirtualProcessor.obj
 0001:000603c3       ??_EVirtualProcessor@details@Concurrency@@UAEPAXI@Z 100613c3 f i libconcrt:VirtualProcessor.obj
 0001:000603c3       ??_GVirtualProcessor@details@Concurrency@@UAEPAXI@Z 100613c3 f i libconcrt:VirtualProcessor.obj
 0001:000603e8       ?AcknowledgedAffinityMessage@SchedulerBase@details@Concurrency@@QAE_NI@Z 100613e8 f i libconcrt:VirtualProcessor.obj
 0001:0006041f       ?Affinitize@VirtualProcessor@details@Concurrency@@MAEXPAVInternalContextBase@23@@Z 1006141f f   libconcrt:VirtualProcessor.obj
 0001:00060467       ?CheckAffinityNotification@VirtualProcessor@details@Concurrency@@QAE_NXZ 10061467 f   libconcrt:VirtualProcessor.obj
 0001:00060485       ?CheckForDeletion@?$ListArray@VVirtualProcessor@details@Concurrency@@@details@Concurrency@@AAEXXZ 10061485 f i libconcrt:VirtualProcessor.obj
 0001:000604ab       ?CheckForDeletionBridge@?$ListArray@VVirtualProcessor@details@Concurrency@@@details@Concurrency@@CAXPAV123@@Z 100614ab f i libconcrt:VirtualProcessor.obj
 0001:000604b7       ?Claim@Slot@?$Mailbox@VInternalContextBase@details@Concurrency@@@details@Concurrency@@QAE_NPAPAVInternalContextBase@34@@Z 100614b7 f i libconcrt:VirtualProcessor.obj
 0001:000604fe       ?ClaimExclusiveOwnership@VirtualProcessor@details@Concurrency@@QAE_NAAVClaimTicket@123@K_N@Z 100614fe f   libconcrt:VirtualProcessor.obj
 0001:00060593       ?ClearQuickCacheSlot@SchedulerBase@details@Concurrency@@QAEXI@Z 10061593 f i libconcrt:VirtualProcessor.obj
 0001:000605b8       ?Deactivate@VirtualProcessor@details@Concurrency@@QAE_NPAUIExecutionContext@3@@Z 100615b8 f   libconcrt:VirtualProcessor.obj
 0001:000605d9       ?DeleteElements@?$ListArray@VVirtualProcessor@details@Concurrency@@@details@Concurrency@@AAEXPAU_SINGLE_LIST_ENTRY@@@Z 100615d9 f i libconcrt:VirtualProcessor.obj
 0001:000605fa       ?Dereference@Segment@?$Mailbox@VInternalContextBase@details@Concurrency@@@details@Concurrency@@QAEXXZ 100615fa f i libconcrt:VirtualProcessor.obj
 0001:00060615       ?EnsureAllTasksVisible@VirtualProcessor@details@Concurrency@@QAEXPAUIExecutionContext@3@@Z 10061615 f   libconcrt:VirtualProcessor.obj
 0001:00060636       ?ExerciseClaim@VirtualProcessor@details@Concurrency@@AAE_NW4AvailabilityType@123@PAVScheduleGroupSegmentBase@23@PAVInternalContextBase@23@@Z 10061636 f   libconcrt:VirtualProcessor.obj
 0001:000606c5       ?ExerciseWith@ClaimTicket@VirtualProcessor@details@Concurrency@@QAE_NPAVInternalContextBase@34@@Z 100616c5 f   libconcrt:VirtualProcessor.obj
 0001:000606f0       ?GetCurrentSubAllocator@VirtualProcessor@details@Concurrency@@QAEPAVSubAllocator@23@XZ 100616f0 f   libconcrt:VirtualProcessor.obj
 0001:00060709       ?GetResourceMaskId@SchedulerBase@details@Concurrency@@QAEII@Z 10061709 f i libconcrt:VirtualProcessor.obj
 0001:00060729       ?Initialize@VirtualProcessor@details@Concurrency@@MAEXPAVSchedulingNode@23@PAUIVirtualProcessorRoot@3@@Z 10061729 f   libconcrt:VirtualProcessor.obj
 0001:000608a1       ?InterlockedClear@ReferenceCountedQuickBitSet@details@Concurrency@@QAEII@Z 100618a1 f i libconcrt:VirtualProcessor.obj
 0001:000608e1       ?InterlockedSet@ReferenceCountedQuickBitSet@details@Concurrency@@QAEII@Z 100618e1 f i libconcrt:VirtualProcessor.obj
 0001:00060927       ?MakeAvailable@VirtualProcessor@details@Concurrency@@IAEXW4AvailabilityType@123@_N@Z 10061927 f   libconcrt:VirtualProcessor.obj
 0001:00060997       ?MarkForRetirement@VirtualProcessor@details@Concurrency@@AAEXXZ 10061997 f   libconcrt:VirtualProcessor.obj
 0001:000609f7       ?Oversubscribe@VirtualProcessor@details@Concurrency@@EAEPAV123@XZ 100619f7 f   libconcrt:VirtualProcessor.obj
 0001:00060a29       ?Pop@?$StructuredWorkStealingQueue@VInternalContextBase@details@Concurrency@@V_HyperNonReentrantLock@23@@details@Concurrency@@QAEPAVInternalContextBase@23@XZ 10061a29 f i libconcrt:VirtualProcessor.obj
 0001:00060a77       ?Remove@?$ListArray@VVirtualProcessor@details@Concurrency@@@details@Concurrency@@QAE_NPAVVirtualProcessor@23@H_N@Z 10061a77 f i libconcrt:VirtualProcessor.obj
 0001:00060b79       ?Retire@VirtualProcessor@details@Concurrency@@MAEXXZ 10061b79 f   libconcrt:VirtualProcessor.obj
 0001:00060cd9       ?SafePoint@VirtualProcessor@details@Concurrency@@QAE_NXZ 10061cd9 f   libconcrt:VirtualProcessor.obj
 0001:00060ced       ?SaveRetiredVirtualProcessorStatistics@SchedulerBase@details@Concurrency@@QAEXPAVVirtualProcessor@23@@Z 10061ced f i libconcrt:VirtualProcessor.obj
 0001:00060d27       ?SpinUntilClear@QuickBitSet@details@Concurrency@@QBEXI@Z 10061d27 f i libconcrt:VirtualProcessor.obj
 0001:00060d71       ?SpinUntilSet@QuickBitSet@details@Concurrency@@QBEXI@Z 10061d71 f i libconcrt:VirtualProcessor.obj
 0001:00060dbb       ?StartupWorkerContext@VirtualProcessor@details@Concurrency@@EAE_NPAVScheduleGroupSegmentBase@23@PAVInternalContextBase@23@@Z 10061dbb f   libconcrt:VirtualProcessor.obj
 0001:00060e5a       ?StaticDelete@Segment@?$Mailbox@VInternalContextBase@details@Concurrency@@@details@Concurrency@@SAXPAU1234@@Z 10061e5a f i libconcrt:VirtualProcessor.obj
 0001:00060e5a       ?StaticDelete@Segment@?$Mailbox@V_UnrealizedChore@details@Concurrency@@@details@Concurrency@@SAXPAU1234@@Z 10061e5a f i libconcrt:ContextBase.obj
 0001:00060e79       ?ThrowVirtualProcessorEvent@VirtualProcessor@details@Concurrency@@CAXW4ConcRT_EventType@3@EKK@Z 10061e79 f   libconcrt:VirtualProcessor.obj
 0001:00060eec       ?ToInternalContext@VirtualProcessor@details@Concurrency@@MAEPAVInternalContextBase@23@PAUIExecutionContext@3@@Z 10061eec f   libconcrt:VirtualProcessor.obj
 0001:00060ef6       ?TraceVirtualProcessorEvent@VirtualProcessor@details@Concurrency@@AAEXW4ConcRT_EventType@3@EKK@Z 10061ef6 f i libconcrt:VirtualProcessor.obj
 0001:00060f23       ?UpdateWorkState@VirtualProcessor@details@Concurrency@@QAEX_N0@Z 10061f23 f   libconcrt:VirtualProcessor.obj
 0001:00060f83       ?Wipe@QuickBitSet@details@Concurrency@@QAEXXZ 10061f83 f i libconcrt:VirtualProcessor.obj
 0001:00060fa0       ??0SchedulingNode@details@Concurrency@@QAE@ABVQuickBitSet@12@KPAVSchedulingRing@12@@Z 10061fa0 f   libconcrt:SchedulingNode.obj
 0001:0006101d       ??1?$ListArray@VVirtualProcessor@details@Concurrency@@@details@Concurrency@@QAE@XZ 1006201d f i libconcrt:SchedulingNode.obj
 0001:00061094       ??1SchedulingNode@details@Concurrency@@QAE@XZ 10062094 f   libconcrt:SchedulingNode.obj
 0001:000610bd       ?Add@?$ListArray@VVirtualProcessor@details@Concurrency@@@details@Concurrency@@QAEHPAVVirtualProcessor@23@@Z 100620bd f i libconcrt:SchedulingNode.obj
 0001:00061220       ?AddVirtualProcessor@SchedulingNode@details@Concurrency@@QAEPAVVirtualProcessor@23@PAUIVirtualProcessorRoot@3@_N@Z 10062220 f   libconcrt:SchedulingNode.obj
 0001:00061327       ?DeferToAffineSearchers@Slot@?$Mailbox@VInternalContextBase@details@Concurrency@@@details@Concurrency@@QBE_NXZ 10062327 f i libconcrt:SchedulingNode.obj
 0001:00061327       ?DeferToAffineSearchers@Slot@?$Mailbox@V_UnrealizedChore@details@Concurrency@@@details@Concurrency@@QBE_NXZ 10062327 f i libconcrt:WorkQueue.obj
 0001:0006137d       ?FindMatchingVirtualProcessor@SchedulingNode@details@Concurrency@@QAEPAVVirtualProcessor@23@PAUIVirtualProcessorRoot@3@@Z 1006237d f   libconcrt:SchedulingNode.obj
 0001:000613bc       ?FindVirtualProcessorByLocation@SchedulingNode@details@Concurrency@@QAEPAVVirtualProcessor@23@PBVlocation@3@@Z 100623bc f   libconcrt:SchedulingNode.obj
 0001:00061419       ?FoundAvailableVirtualProcessor@SchedulingNode@details@Concurrency@@AAE_NAAVClaimTicket@VirtualProcessor@23@Vlocation@3@K@Z 10062419 f   libconcrt:SchedulingNode.obj
 0001:00061489       ?GetLocation@SchedulingNode@details@Concurrency@@QAE?AVlocation@3@XZ 10062489 f   libconcrt:SchedulingNode.obj
 0001:000614bc       ?Steal@?$StructuredWorkStealingQueue@VInternalContextBase@details@Concurrency@@V_HyperNonReentrantLock@23@@details@Concurrency@@QAEPAVInternalContextBase@23@_N@Z 100624bc f i libconcrt:SchedulingNode.obj
 0001:000614ff       ?UnlockedSteal@?$StructuredWorkStealingQueue@VInternalContextBase@details@Concurrency@@V_HyperNonReentrantLock@23@@details@Concurrency@@QAEPAVInternalContextBase@23@_N@Z 100624ff f i libconcrt:SchedulingNode.obj
 0001:0006157d       ??0AllocatorBucket@details@Concurrency@@QAE@XZ 1006257d f   libconcrt:SubAllocator.obj
 0001:00061592       ??1AllocatorBucket@details@Concurrency@@QAE@XZ 10062592 f   libconcrt:SubAllocator.obj
 0001:000615e6       ?Alloc@AllocatorBucket@details@Concurrency@@QAEPATAllocationEntry@23@XZ 100625e6 f   libconcrt:SubAllocator.obj
 0001:000615ff       ?Alloc@SubAllocator@details@Concurrency@@QAEPAXI@Z 100625ff f   libconcrt:SubAllocator.obj
 0001:0006164f       ?Free@AllocatorBucket@details@Concurrency@@QAE_NPATAllocationEntry@23@@Z 1006264f f   libconcrt:SubAllocator.obj
 0001:00061679       ?Free@SubAllocator@details@Concurrency@@QAEXPAX@Z 10062679 f   libconcrt:SubAllocator.obj
 0001:000616b0       ?GetBucketIndex@SubAllocator@details@Concurrency@@SAHI@Z 100626b0 f   libconcrt:SubAllocator.obj
 0001:00061705       ?StaticAlloc@SubAllocator@details@Concurrency@@SAPAXI@Z 10062705 f   libconcrt:SubAllocator.obj
 0001:0006173e       ??0InternalContextBase@details@Concurrency@@QAE@PAVSchedulerBase@12@@Z 1006273e f   libconcrt:InternalContextBase.obj
 0001:000617b7       ??0context_self_unblock@Concurrency@@QAE@ABV01@@Z 100627b7 f i libconcrt:InternalContextBase.obj
 0001:000617d2       ??0context_unblock_unbalanced@Concurrency@@QAE@ABV01@@Z 100627d2 f i libconcrt:InternalContextBase.obj
 0001:000617ed       ??0invalid_oversubscribe_operation@Concurrency@@QAE@ABV01@@Z 100627ed f i libconcrt:InternalContextBase.obj
 0001:00061808       ??0nested_scheduler_missing_detach@Concurrency@@QAE@ABV01@@Z 10062808 f i libconcrt:InternalContextBase.obj
 0001:00061823       ??1InternalContextBase@details@Concurrency@@UAE@XZ 10062823 f   libconcrt:InternalContextBase.obj
 0001:00061871       ??1ScopedCriticalRegion@ContextBase@details@Concurrency@@QAE@XZ 10062871 f i libconcrt:InternalContextBase.obj
 0001:000618a9       ??_EInternalContextBase@details@Concurrency@@W3AEPAXI@Z 100628a9 f i libconcrt:InternalContextBase.obj
 0001:000618b1       ??_EInternalContextBase@details@Concurrency@@UAEPAXI@Z 100628b1 f i libconcrt:InternalContextBase.obj
 0001:000618b1       ??_GInternalContextBase@details@Concurrency@@UAEPAXI@Z 100628b1 f i libconcrt:InternalContextBase.obj
 0001:000618d6       ?AddToRunnables@InternalContextBase@details@Concurrency@@MAEXVlocation@3@@Z 100628d6 f   libconcrt:InternalContextBase.obj
 0001:00061a63       ?Alloc@InternalContextBase@details@Concurrency@@UAEPAXI@Z 10062a63 f   libconcrt:InternalContextBase.obj
 0001:00061ab7       ?Block@InternalContextBase@details@Concurrency@@UAEXXZ 10062ab7 f   libconcrt:InternalContextBase.obj
 0001:00061bf1       ?Cancel@InternalContextBase@details@Concurrency@@MAEXXZ 10062bf1 f   libconcrt:InternalContextBase.obj
 0001:00061c65       ?Cleanup@InternalContextBase@details@Concurrency@@IAEXXZ 10062c65 f   libconcrt:InternalContextBase.obj
 0001:00061c7d       ?CleanupDispatchedContextOnCancel@InternalContextBase@details@Concurrency@@IAEXXZ 10062c7d f   libconcrt:InternalContextBase.obj
 0001:00061c98       ?Dispatch@InternalContextBase@details@Concurrency@@UAEXPAUDispatchState@3@@Z 10062c98 f   libconcrt:InternalContextBase.obj
 0001:00061e2d       ?ExecuteChoreInline@InternalContextBase@details@Concurrency@@IAEXPAVWorkItem@23@@Z 10062e2d f   libconcrt:InternalContextBase.obj
 0001:00061e6a       ?ExecutedAssociatedChore@InternalContextBase@details@Concurrency@@IAE_NXZ 10062e6a f   libconcrt:InternalContextBase.obj
 0001:00061edd       ?FindWorkForBlockingOrNesting@InternalContextBase@details@Concurrency@@AAEPAV123@AA_N0@Z 10062edd f   libconcrt:InternalContextBase.obj
 0001:0006200c       ?Free@InternalContextBase@details@Concurrency@@UAEXPAX@Z 1006300c f   libconcrt:InternalContextBase.obj
 0001:00062038       ?GetAndResetOversubscribedVProc@InternalContextBase@details@Concurrency@@QAEPAVVirtualProcessor@23@PAV423@@Z 10063038 f   libconcrt:InternalContextBase.obj
 0001:00062066       ?GetId@InternalContextBase@details@Concurrency@@UBEIXZ 10063066 f   libconcrt:InternalContextBase.obj
 0001:0006206a       ?GetId@InternalContextBase@details@Concurrency@@W3BEIXZ 1006306a f i libconcrt:InternalContextBase.obj
 0001:00062072       ?GetProxy@InternalContextBase@details@Concurrency@@UAEPAUIThreadProxy@3@XZ 10063072 f   libconcrt:InternalContextBase.obj
 0001:00062079       ?GetScheduler@InternalContextBase@details@Concurrency@@UAEPAUIScheduler@3@XZ 10063079 f   libconcrt:InternalContextBase.obj
 0001:00062091       ?GetVirtualProcessorId@InternalContextBase@details@Concurrency@@UBEIXZ 10063091 f   libconcrt:InternalContextBase.obj
 0001:000620c0       ?GrowAndPush@?$StructuredWorkStealingQueue@VInternalContextBase@details@Concurrency@@V_HyperNonReentrantLock@23@@details@Concurrency@@AAEXPAVInternalContextBase@23@VSlot@?$Mailbox@VInternalContextBase@details@Concurrency@@@23@@Z 100630c0 f i libconcrt:InternalContextBase.obj
 0001:00062238       ?IsSynchronouslyBlocked@InternalContextBase@details@Concurrency@@UBE_NXZ 10063238 f i libconcrt:InternalContextBase.obj
 0001:00062244       ?IsVirtualProcessorRetired@InternalContextBase@details@Concurrency@@IAE_NXZ 10063244 f   libconcrt:InternalContextBase.obj
 0001:000622a2       ?LeaveScheduler@InternalContextBase@details@Concurrency@@AAEXXZ 100632a2 f   libconcrt:InternalContextBase.obj
 0001:000623a6       ?Oversubscribe@InternalContextBase@details@Concurrency@@UAEX_N@Z 100633a6 f   libconcrt:InternalContextBase.obj
 0001:0006242d       ?PrepareForUse@InternalContextBase@details@Concurrency@@QAEXPAVScheduleGroupSegmentBase@23@PAU_Chore@23@_N@Z 1006342d f   libconcrt:InternalContextBase.obj
 0001:00062486       ?PrepareToRun@InternalContextBase@details@Concurrency@@MAEXPAVVirtualProcessor@23@@Z 10063486 f i libconcrt:InternalContextBase.obj
 0001:0006249d       ?Push@?$StructuredWorkStealingQueue@VInternalContextBase@details@Concurrency@@V_HyperNonReentrantLock@23@@details@Concurrency@@QAEXPAVInternalContextBase@23@@Z 1006349d f i libconcrt:InternalContextBase.obj
 0001:000624de       ?ReclaimVirtualProcessor@InternalContextBase@details@Concurrency@@IAEXXZ 100634de f   libconcrt:InternalContextBase.obj
 0001:00062548       ?RejoinScheduler@InternalContextBase@details@Concurrency@@AAEXXZ 10063548 f   libconcrt:InternalContextBase.obj
 0001:00062567       ?RemoveFromUse@InternalContextBase@details@Concurrency@@QAEXXZ 10063567 f   libconcrt:InternalContextBase.obj
 0001:0006258a       ?SearchForWork@VirtualProcessor@details@Concurrency@@QAE_NPAVWorkItem@23@PAVScheduleGroupSegmentBase@23@_N@Z 1006358a f i libconcrt:InternalContextBase.obj
 0001:000625b1       ?SetProxy@InternalContextBase@details@Concurrency@@UAEXPAUIThreadProxy@3@@Z 100635b1 f   libconcrt:InternalContextBase.obj
 0001:000625e6       ?SpinUntilBlocked@InternalContextBase@details@Concurrency@@IAEXXZ 100635e6 f   libconcrt:InternalContextBase.obj
 0001:00062613       ?SpinUntilValueEquals@details@Concurrency@@YAXPCJJ@Z 10063613 f i libconcrt:InternalContextBase.obj
 0001:00062642       ?SpinYield@InternalContextBase@details@Concurrency@@UAEXXZ 10063642 f   libconcrt:InternalContextBase.obj
 0001:000626fd       ?SwapScheduleGroupSegment@InternalContextBase@details@Concurrency@@QAEXPAVScheduleGroupSegmentBase@23@_N@Z 100636fd f   libconcrt:InternalContextBase.obj
 0001:00062748       ?SwitchOut@InternalContextBase@details@Concurrency@@IAE_NW4ReasonForSwitch@123@@Z 10063748 f   libconcrt:InternalContextBase.obj
 0001:00062867       ?SwitchTo@InternalContextBase@details@Concurrency@@IAEXPAV123@W4ReasonForSwitch@123@@Z 10063867 f   libconcrt:InternalContextBase.obj
 0001:000629a0       ?Unblock@InternalContextBase@details@Concurrency@@UAEXXZ 100639a0 f   libconcrt:InternalContextBase.obj
 0001:00062a5f       ?WaitForWork@InternalContextBase@details@Concurrency@@IAEXXZ 10063a5f f   libconcrt:InternalContextBase.obj
 0001:00062b5b       ?WorkWasFound@InternalContextBase@details@Concurrency@@IAE_NPAVWorkItem@23@@Z 10063b5b f   libconcrt:InternalContextBase.obj
 0001:00062bb7       ?Yield@InternalContextBase@details@Concurrency@@UAEXXZ 10063bb7 f   libconcrt:InternalContextBase.obj
 0001:00062d3b       ??$_InternalDeleteHelper@VScheduleGroupSegmentBase@details@Concurrency@@@details@Concurrency@@YAXPAVScheduleGroupSegmentBase@01@@Z 10063d3b f i libconcrt:SchedulingRing.obj
 0001:00062d3b       ??$_InternalDeleteHelper@VVirtualProcessor@details@Concurrency@@@details@Concurrency@@YAXPAVVirtualProcessor@01@@Z 10063d3b f i libconcrt:VirtualProcessor.obj
 0001:00062d5c       ??0SchedulingRing@details@Concurrency@@QAE@PAVSchedulerBase@12@H@Z 10063d5c f   libconcrt:SchedulingRing.obj
 0001:00062de5       ??1?$ListArray@VScheduleGroupSegmentBase@details@Concurrency@@@details@Concurrency@@QAE@XZ 10063de5 f i libconcrt:SchedulingRing.obj
 0001:00062e5c       ??1SchedulingRing@details@Concurrency@@QAE@XZ 10063e5c f   libconcrt:SchedulingRing.obj
 0001:00062e74       ?Activate@SchedulingRing@details@Concurrency@@QAEXXZ 10063e74 f   libconcrt:SchedulingRing.obj
 0001:00062e80       ?CheckForDeletion@?$ListArray@VScheduleGroupSegmentBase@details@Concurrency@@@details@Concurrency@@AAEXXZ 10063e80 f i libconcrt:SchedulingRing.obj
 0001:00062ea6       ?CheckForDeletionBridge@?$ListArray@VScheduleGroupSegmentBase@details@Concurrency@@@details@Concurrency@@CAXPAV123@@Z 10063ea6 f i libconcrt:SchedulingRing.obj
 0001:00062eb2       ?DeleteElements@?$ListArray@VScheduleGroupSegmentBase@details@Concurrency@@@details@Concurrency@@AAEXPAU_SINGLE_LIST_ENTRY@@@Z 10063eb2 f i libconcrt:SchedulingRing.obj
 0001:00062ed3       ?Remove@?$ListArray@VScheduleGroupSegmentBase@details@Concurrency@@@details@Concurrency@@QAE_NPAVScheduleGroupSegmentBase@23@H_N@Z 10063ed3 f i libconcrt:SchedulingRing.obj
 0001:00062fd5       ?RemoveScheduleGroupSegment@SchedulingRing@details@Concurrency@@AAEXPAVScheduleGroupSegmentBase@23@@Z 10063fd5 f   libconcrt:SchedulingRing.obj
 0001:00062ffe       ??0?$ListArray@VExternalStatistics@details@Concurrency@@@details@Concurrency@@QAE@PAVSchedulerBase@12@HH@Z 10063ffe f i libconcrt:SchedulerBase.obj
 0001:00062ffe       ??0?$ListArray@VScheduleGroupBase@details@Concurrency@@@details@Concurrency@@QAE@PAVSchedulerBase@12@HH@Z 10063ffe f i libconcrt:SchedulerBase.obj
 0001:00062ffe       ??0?$ListArray@U?$ListArrayInlineLink@VWorkQueue@details@Concurrency@@@details@Concurrency@@@details@Concurrency@@QAE@PAVSchedulerBase@12@HH@Z 10063ffe f i libconcrt:ScheduleGroupBase.obj
 0001:00062ffe       ??0?$ListArray@VWorkQueue@details@Concurrency@@@details@Concurrency@@QAE@PAVSchedulerBase@12@HH@Z 10063ffe f i libconcrt:ScheduleGroupBase.obj
 0001:00062ffe       ??0?$ListArray@VVirtualProcessor@details@Concurrency@@@details@Concurrency@@QAE@PAVSchedulerBase@12@HH@Z 10063ffe f i libconcrt:SchedulingNode.obj
 0001:00062ffe       ??0?$ListArray@VScheduleGroupSegmentBase@details@Concurrency@@@details@Concurrency@@QAE@PAVSchedulerBase@12@HH@Z 10063ffe f i libconcrt:SchedulingRing.obj
 0001:000630f7       ??0?$Mailbox@V_UnrealizedChore@details@Concurrency@@@details@Concurrency@@QAE@PAVSchedulerBase@12@ABVQuickBitSet@12@_NI@Z 100640f7 f i libconcrt:ScheduleGroupBase.obj
 0001:0006316e       ??0ScheduleGroupBase@details@Concurrency@@QAE@PAVSchedulerBase@12@PAVlocation@2@@Z 1006416e f   libconcrt:ScheduleGroupBase.obj
 0001:000631c7       ??0ScheduleGroupSegmentBase@details@Concurrency@@IAE@PAVScheduleGroupBase@12@PAVSchedulingRing@12@PAVlocation@2@@Z 100641c7 f   libconcrt:ScheduleGroupBase.obj
 0001:00063287       ??0Segment@?$Mailbox@V_UnrealizedChore@details@Concurrency@@@details@Concurrency@@QAE@PAVSchedulerBase@23@ABVQuickBitSet@23@II@Z 10064287 f i libconcrt:ScheduleGroupBase.obj
 0001:000632f3       ??1?$ListArray@U?$ListArrayInlineLink@VWorkQueue@details@Concurrency@@@details@Concurrency@@@details@Concurrency@@QAE@XZ 100642f3 f i libconcrt:ScheduleGroupBase.obj
 0001:0006336d       ??1?$ListArray@VWorkQueue@details@Concurrency@@@details@Concurrency@@QAE@XZ 1006436d f i libconcrt:ScheduleGroupBase.obj
 0001:000633e9       ??1?$Mailbox@V_UnrealizedChore@details@Concurrency@@@details@Concurrency@@QAE@XZ 100643e9 f i libconcrt:ScheduleGroupBase.obj
 0001:0006344f       ??1ScheduleGroupSegmentBase@details@Concurrency@@UAE@XZ 1006444f f   libconcrt:ScheduleGroupBase.obj
 0001:0006349d       ??4QuickBitSet@details@Concurrency@@QAEAAV012@$$QAV012@@Z 1006449d f i libconcrt:ScheduleGroupBase.obj
 0001:000634c7       ??_ECacheLocalScheduleGroup@details@Concurrency@@UAEPAXI@Z 100644c7 f i libconcrt:SchedulerBase.obj
 0001:000634c7       ??_EScheduleGroupBase@details@Concurrency@@UAEPAXI@Z 100644c7 f i libconcrt:ScheduleGroupBase.obj
 0001:000634c7       ??_GScheduleGroupBase@details@Concurrency@@UAEPAXI@Z 100644c7 f i libconcrt:ScheduleGroupBase.obj
 0001:000634c7       ??_GCacheLocalScheduleGroup@details@Concurrency@@UAEPAXI@Z 100644c7 f i libconcrt:SchedulerBase.obj
 0001:000634ea       ??_EScheduleGroupSegmentBase@details@Concurrency@@UAEPAXI@Z 100644ea f i libconcrt:ScheduleGroupBase.obj
 0001:000634ea       ??_GScheduleGroupSegmentBase@details@Concurrency@@UAEPAXI@Z 100644ea f i libconcrt:ScheduleGroupBase.obj
 0001:0006350f       ?Add@?$ListArray@U?$ListArrayInlineLink@VWorkQueue@details@Concurrency@@@details@Concurrency@@@details@Concurrency@@QAEHPAU?$ListArrayInlineLink@VWorkQueue@details@Concurrency@@@23@@Z 1006450f f i libconcrt:ScheduleGroupBase.obj
 0001:00063671       ?Add@?$ListArray@VExternalStatistics@details@Concurrency@@@details@Concurrency@@QAEHPAVExternalStatistics@23@@Z 10064671 f i libconcrt:ScheduleGroupBase.obj
 0001:000637d3       ?Add@?$ListArray@VScheduleGroupSegmentBase@details@Concurrency@@@details@Concurrency@@QAEHPAVScheduleGroupSegmentBase@23@@Z 100647d3 f i libconcrt:ScheduleGroupBase.obj
 0001:00063939       ?AddRunnableContext@ScheduleGroupSegmentBase@details@Concurrency@@IAEXPAVInternalContextBase@23@Vlocation@3@@Z 10064939 f   libconcrt:ScheduleGroupBase.obj
 0001:00063a1d       ?CheckForDeletion@?$ListArray@U?$ListArrayInlineLink@VWorkQueue@details@Concurrency@@@details@Concurrency@@@details@Concurrency@@AAEXXZ 10064a1d f i libconcrt:ScheduleGroupBase.obj
 0001:00063a43       ?CheckForDeletionBridge@?$ListArray@U?$ListArrayInlineLink@VWorkQueue@details@Concurrency@@@details@Concurrency@@@details@Concurrency@@CAXPAV123@@Z 10064a43 f i libconcrt:ScheduleGroupBase.obj
 0001:00063a4f       ?ClearQuickCacheSlotIf@SchedulerBase@details@Concurrency@@QAEXIPAVScheduleGroupSegmentBase@23@@Z 10064a4f f i libconcrt:ScheduleGroupBase.obj
 0001:00063a74       ?CreateSegment@ScheduleGroupBase@details@Concurrency@@IAEPAVScheduleGroupSegmentBase@23@PAVlocation@3@PAVSchedulingRing@23@@Z 10064a74 f   libconcrt:ScheduleGroupBase.obj
 0001:00063b23       ?DeleteElements@?$ListArray@U?$ListArrayInlineLink@VWorkQueue@details@Concurrency@@@details@Concurrency@@@details@Concurrency@@AAEXPAU_SINGLE_LIST_ENTRY@@@Z 10064b23 f i libconcrt:ScheduleGroupBase.obj
 0001:00063b44       ?DemandInitialize@?$Mailbox@V_UnrealizedChore@details@Concurrency@@@details@Concurrency@@AAEXXZ 10064b44 f i libconcrt:ScheduleGroupBase.obj
 0001:00063bba       ?Dequeue@?$Mailbox@V_UnrealizedChore@details@Concurrency@@@details@Concurrency@@QAE_NPAPAV_UnrealizedChore@23@@Z 10064bba f i libconcrt:ScheduleGroupBase.obj
 0001:00063c7e       ?Dequeue@?$SafeSQueue@VRealizedChore@details@Concurrency@@V_HyperNonReentrantLock@23@@details@Concurrency@@QAEPAVRealizedChore@23@XZ 10064c7e f i libconcrt:ScheduleGroupBase.obj
 0001:00063cb2       ?DetachActiveWorkQueue@ScheduleGroupSegmentBase@details@Concurrency@@IAEXPAVWorkQueue@23@@Z 10064cb2 f   libconcrt:ScheduleGroupBase.obj
 0001:00063cf1       ?Enqueue@?$SafeSQueue@VRealizedChore@details@Concurrency@@V_HyperNonReentrantLock@23@@details@Concurrency@@QAEXPAVRealizedChore@23@@Z 10064cf1 f i libconcrt:ScheduleGroupBase.obj
 0001:00063d2c       ?FindSegment@ScheduleGroupBase@details@Concurrency@@MAEPAVScheduleGroupSegmentBase@23@PAVlocation@3@PAVSchedulingRing@23@@Z 10064d2c f   libconcrt:ScheduleGroupBase.obj
 0001:00063d82       ?GetDetachedWorkQueue@ScheduleGroupSegmentBase@details@Concurrency@@IAEPAVWorkQueue@23@XZ 10064d82 f   libconcrt:ScheduleGroupBase.obj
 0001:00063de9       ?GetInternalContext@ScheduleGroupSegmentBase@details@Concurrency@@IAEPAVInternalContextBase@23@PAU_Chore@23@_N@Z 10064de9 f   libconcrt:ScheduleGroupBase.obj
 0001:00063e1c       ?GetRealizedChore@ScheduleGroupSegmentBase@details@Concurrency@@IAEPAVRealizedChore@23@XZ 10064e1c f   libconcrt:ScheduleGroupBase.obj
 0001:00063e2c       ?Grow@?$Mailbox@V_UnrealizedChore@details@Concurrency@@@details@Concurrency@@AAEPAUSegment@123@PAU4123@@Z 10064e2c f i libconcrt:ScheduleGroupBase.obj
 0001:00063e76       ?HasRealizedChores@ScheduleGroupSegmentBase@details@Concurrency@@IBE_NXZ 10064e76 f   libconcrt:ScheduleGroupBase.obj
 0001:00063e7e       ?HasUnrealizedChores@ScheduleGroupSegmentBase@details@Concurrency@@IAE_NXZ 10064e7e f   libconcrt:ScheduleGroupBase.obj
 0001:00063e8a       ?Initialize@?$Mailbox@V_UnrealizedChore@details@Concurrency@@@details@Concurrency@@QAEXABVQuickBitSet@23@@Z 10064e8a f i libconcrt:ScheduleGroupBase.obj
 0001:00063eb3       ?Initialize@ScheduleGroupBase@details@Concurrency@@QAEXPAVlocation@3@@Z 10064eb3 f   libconcrt:ScheduleGroupBase.obj
 0001:00063ec6       ?Initialize@ScheduleGroupSegmentBase@details@Concurrency@@IAEXPAVScheduleGroupBase@23@PAVSchedulingRing@23@PAVlocation@3@@Z 10064ec6 f   libconcrt:ScheduleGroupBase.obj
 0001:00063f4a       ?IsEmpty@WorkQueue@details@Concurrency@@QBE_NXZ 10064f4a f i libconcrt:ScheduleGroupBase.obj
 0001:00063f60       ?LocateMailboxSegment@?$Mailbox@V_UnrealizedChore@details@Concurrency@@@details@Concurrency@@AAEPAUSegment@123@I_N@Z 10064f60 f i libconcrt:ScheduleGroupBase.obj
 0001:00063faa       ?LocateSegment@ScheduleGroupBase@details@Concurrency@@UAEPAVScheduleGroupSegmentBase@23@PAVlocation@3@_N@Z 10064faa f   libconcrt:ScheduleGroupBase.obj
 0001:0006408d       ?LocateUnrealizedChores@ScheduleGroupSegmentBase@details@Concurrency@@IAEPAVWorkQueue@23@XZ 1006508d f   libconcrt:ScheduleGroupBase.obj
 0001:000640e6       ?MarkDetachment@?$WorkStealingQueue@V_UnrealizedChore@details@Concurrency@@V_CriticalNonReentrantLock@23@@details@Concurrency@@QAEXXZ 100650e6 f i libconcrt:ScheduleGroupBase.obj
 0001:00064119       ?RedetachQueue@ScheduleGroupSegmentBase@details@Concurrency@@QAEXPAVWorkQueue@23@@Z 10065119 f   libconcrt:ScheduleGroupBase.obj
 0001:00064132       ?ReleaseInternalContext@ScheduleGroupSegmentBase@details@Concurrency@@IAEXPAVInternalContextBase@23@@Z 10065132 f   libconcrt:ScheduleGroupBase.obj
 0001:00064158       ?Remove@?$ListArray@U?$ListArrayInlineLink@VWorkQueue@details@Concurrency@@@details@Concurrency@@@details@Concurrency@@QAE_NPAU?$ListArrayInlineLink@VWorkQueue@details@Concurrency@@@23@H_N@Z 10065158 f i libconcrt:ScheduleGroupBase.obj
 0001:00064255       ?Remove@ScheduleGroupSegmentBase@details@Concurrency@@IAEXXZ 10065255 f   libconcrt:ScheduleGroupBase.obj
 0001:00064278       ?RemoveSegments@ScheduleGroupBase@details@Concurrency@@MAEXXZ 10065278 f   libconcrt:ScheduleGroupBase.obj
 0001:000642b7       ?RetireDetachedQueue@ScheduleGroupSegmentBase@details@Concurrency@@QAEXPAVWorkQueue@23@@Z 100652b7 f   libconcrt:ScheduleGroupBase.obj
 0001:000642de       ?SafelyDeleteDetachedWorkQueue@ScheduleGroupSegmentBase@details@Concurrency@@IAE_NPAVWorkQueue@23@@Z 100652de f   libconcrt:ScheduleGroupBase.obj
 0001:00064320       ?ScheduleTask@ScheduleGroupBase@details@Concurrency@@QAEXP6AXPAX@Z0AAVlocation@3@@Z 10065320 f   libconcrt:ScheduleGroupBase.obj
 0001:0006434f       ?ScheduleTask@ScheduleGroupBase@details@Concurrency@@UAEXP6AXPAX@Z0@Z 1006534f f   libconcrt:ScheduleGroupBase.obj
 0001:00064376       ?ScheduleTask@ScheduleGroupSegmentBase@details@Concurrency@@QAEXP6AXPAX@Z0@Z 10065376 f   libconcrt:ScheduleGroupBase.obj
 0001:000644aa       ?SetDeletionReferences@Segment@?$Mailbox@V_UnrealizedChore@details@Concurrency@@@details@Concurrency@@QAEXI@Z 100654aa f i libconcrt:ScheduleGroupBase.obj
 0001:000644d0       ?StealUnrealizedChore@ScheduleGroupSegmentBase@details@Concurrency@@IAEPAV_UnrealizedChore@23@_N@Z 100654d0 f   libconcrt:ScheduleGroupBase.obj
 0001:00064681       ??IQuickBitSet@details@Concurrency@@QBE?AV012@ABV012@@Z 10065681 f i libconcrt:CacheLocalScheduleGroup.obj
 0001:000646d3       ?AddToRunnablesCollection@FairScheduleGroupSegment@details@Concurrency@@EAEXPAVInternalContextBase@23@@Z 100656d3 f   libconcrt:FairScheduleGroup.obj
 0001:000646d3       ?AddToRunnablesCollection@CacheLocalScheduleGroupSegment@details@Concurrency@@EAEXPAVInternalContextBase@23@@Z 100656d3 f   libconcrt:CacheLocalScheduleGroup.obj
 0001:000646e2       ?Enqueue@?$Mailbox@V_UnrealizedChore@details@Concurrency@@@details@Concurrency@@QAE?AVSlot@123@PAV_UnrealizedChore@23@@Z 100656e2 f i libconcrt:CacheLocalScheduleGroup.obj
 0001:00064733       ?Enqueue@?$SafeSQueue@VInternalContextBase@details@Concurrency@@V_HyperNonReentrantLock@23@@details@Concurrency@@QAEXPAVInternalContextBase@23@@Z 10065733 f i libconcrt:CacheLocalScheduleGroup.obj
 0001:00064771       ?InterlockedSet@QuickBitSet@details@Concurrency@@QAEXABV123@@Z 10065771 f i libconcrt:CacheLocalScheduleGroup.obj
 0001:000647a9       ?MailChore@CacheLocalScheduleGroup@details@Concurrency@@UAE?AVSlot@?$Mailbox@V_UnrealizedChore@details@Concurrency@@@23@PAV_UnrealizedChore@23@PAVlocation@3@PAPAVScheduleGroupSegmentBase@23@@Z 100657a9 f   libconcrt:CacheLocalScheduleGroup.obj
 0001:000647e0       ?MailChore@CacheLocalScheduleGroupSegment@details@Concurrency@@QAE?AVSlot@?$Mailbox@V_UnrealizedChore@details@Concurrency@@@23@PAV_UnrealizedChore@23@@Z 100657e0 f   libconcrt:CacheLocalScheduleGroup.obj
 0001:000647f8       ?NotifyAffinitizedWork@CacheLocalScheduleGroupSegment@details@Concurrency@@UAEXXZ 100657f8 f   libconcrt:CacheLocalScheduleGroup.obj
 0001:0006482b       ?PostAffinityMessage@SchedulerBase@details@Concurrency@@QAEXABVQuickBitSet@23@@Z 1006582b f i libconcrt:CacheLocalScheduleGroup.obj
 0001:0006486b       ?SetQuickCacheSlot@SchedulerBase@details@Concurrency@@QAEXIPAVScheduleGroupSegmentBase@23@@Z 1006586b f i libconcrt:CacheLocalScheduleGroup.obj
 0001:00064891       ?FindSegment@FairScheduleGroup@details@Concurrency@@MAEPAVScheduleGroupSegmentBase@23@PAVlocation@3@PAVSchedulingRing@23@@Z 10065891 f   libconcrt:FairScheduleGroup.obj
 0001:000648c2       ?LocateSegment@FairScheduleGroup@details@Concurrency@@UAEPAVScheduleGroupSegmentBase@23@PAVlocation@3@_N@Z 100658c2 f   libconcrt:FairScheduleGroup.obj
 0001:0006492d       ??0ExternalContextBase@details@Concurrency@@QAE@PAVSchedulerBase@12@_N@Z 1006592d f   libconcrt:ExternalContextBase.obj
 0001:000649c6       ??1ExternalContextBase@details@Concurrency@@UAE@XZ 100659c6 f   libconcrt:ExternalContextBase.obj
 0001:00064a0d       ??_EExternalContextBase@details@Concurrency@@UAEPAXI@Z 10065a0d f i libconcrt:ExternalContextBase.obj
 0001:00064a0d       ??_GExternalContextBase@details@Concurrency@@UAEPAXI@Z 10065a0d f i libconcrt:ExternalContextBase.obj
 0001:00064a32       ?Alloc@ExternalContextBase@details@Concurrency@@UAEPAXI@Z 10065a32 f   libconcrt:ExternalContextBase.obj
 0001:00064a53       ?Block@ExternalContextBase@details@Concurrency@@UAEXXZ 10065a53 f   libconcrt:ExternalContextBase.obj
 0001:00064a9c       ?Cleanup@ExternalContextBase@details@Concurrency@@AAEXXZ 10065a9c f   libconcrt:ExternalContextBase.obj
 0001:00064af4       ?Free@ExternalContextBase@details@Concurrency@@UAEXPAX@Z 10065af4 f   libconcrt:ExternalContextBase.obj
 0001:00064b19       ?GetCurrentSubAllocator@ExternalContextBase@details@Concurrency@@QAEPAVSubAllocator@23@XZ 10065b19 f i libconcrt:ExternalContextBase.obj
 0001:00064b3b       ?GetVirtualProcessorId@ExternalContextBase@details@Concurrency@@UBEIXZ 10065b3b f i libconcrt:ExternalContextBase.obj
 0001:00064b3f       ?ImplicitDetachHandler@ExternalContextBase@details@Concurrency@@CGXPAU_TP_CALLBACK_INSTANCE@@PAXPAU_TP_WAIT@@K@Z 10065b3f f   libconcrt:ExternalContextBase.obj
 0001:00064b61       ?ImplicitDetachHandlerXP@ExternalContextBase@details@Concurrency@@CGXPAXE@Z 10065b61 f   libconcrt:ExternalContextBase.obj
 0001:00064b84       ?IsSynchronouslyBlocked@ExternalContextBase@details@Concurrency@@UBE_NXZ 10065b84 f i libconcrt:ExternalContextBase.obj
 0001:00064b90       ?Oversubscribe@ExternalContextBase@details@Concurrency@@UAEX_N@Z 10065b90 f   libconcrt:ExternalContextBase.obj
 0001:00064bc9       ?PrepareForUse@ExternalContextBase@details@Concurrency@@QAEX_N@Z 10065bc9 f   libconcrt:ExternalContextBase.obj
 0001:00064c90       ?RemoveFromUse@ExternalContextBase@details@Concurrency@@QAEXXZ 10065c90 f   libconcrt:ExternalContextBase.obj
 0001:00064cb2       ?SpinYield@ExternalContextBase@details@Concurrency@@UAEXXZ 10065cb2 f i libconcrt:ExternalContextBase.obj
 0001:00064cc9       ?Unblock@ExternalContextBase@details@Concurrency@@UAEXXZ 10065cc9 f   libconcrt:ExternalContextBase.obj
 0001:00064d4b       ?Yield@ExternalContextBase@details@Concurrency@@UAEXXZ 10065d4b f   libconcrt:ExternalContextBase.obj
 0001:00064d7a       ??0ThreadInternalContext@details@Concurrency@@QAE@PAVSchedulerBase@12@@Z 10065d7a f i libconcrt:ThreadScheduler.obj
 0001:00064da2       ??0ThreadScheduler@details@Concurrency@@QAE@ABVSchedulerPolicy@2@@Z 10065da2 f   libconcrt:ThreadScheduler.obj
 0001:00064dd5       ??1ThreadScheduler@details@Concurrency@@UAE@XZ 10065dd5 f   libconcrt:ThreadScheduler.obj
 0001:00064de9       ??_EThreadInternalContext@details@Concurrency@@W3AEPAXI@Z 10065de9 f i libconcrt:ThreadScheduler.obj
 0001:00064df1       ??_EThreadScheduler@details@Concurrency@@W7AEPAXI@Z 10065df1 f i libconcrt:ThreadScheduler.obj
 0001:00064df9       ??_EThreadInternalContext@details@Concurrency@@UAEPAXI@Z 10065df9 f i libconcrt:ThreadScheduler.obj
 0001:00064df9       ??_GThreadInternalContext@details@Concurrency@@UAEPAXI@Z 10065df9 f i libconcrt:ThreadScheduler.obj
 0001:00064e2b       ??_EThreadScheduler@details@Concurrency@@UAEPAXI@Z 10065e2b f i libconcrt:ThreadScheduler.obj
 0001:00064e2b       ??_GThreadScheduler@details@Concurrency@@UAEPAXI@Z 10065e2b f i libconcrt:ThreadScheduler.obj
 0001:00064e50       ?AddVirtualProcessors@ThreadScheduler@details@Concurrency@@UAEXPAPAUIVirtualProcessorRoot@3@I@Z 10065e50 f i libconcrt:ThreadScheduler.obj
 0001:00064e5c       ?Create@ThreadScheduler@details@Concurrency@@SAPAV123@ABVSchedulerPolicy@3@@Z 10065e5c f   libconcrt:ThreadScheduler.obj
 0001:00064e8f       ?CreateInternalContext@ThreadScheduler@details@Concurrency@@MAEPAVInternalContextBase@23@XZ 10065e8f f   libconcrt:ThreadScheduler.obj
 0001:00064ecd       ?CreateVirtualProcessor@ThreadScheduler@details@Concurrency@@UAEPAVVirtualProcessor@23@PAVSchedulingNode@23@PAUIVirtualProcessorRoot@3@@Z 10065ecd f   libconcrt:ThreadScheduler.obj
 0001:00064f05       ?GetContextKind@ThreadInternalContext@details@Concurrency@@UBE?AW4ContextKind@ContextBase@23@XZ 10065f05 f i libconcrt:ThreadScheduler.obj
 0001:00064f05       __get_startup_argv_mode    10065f05 f i LIBCMT:argv_mode.obj
 0001:00064f09       ?GetIScheduler@ThreadScheduler@details@Concurrency@@UAEPAUIScheduler@3@XZ 10065f09 f i libconcrt:ThreadScheduler.obj
 0001:00064f0d       ?GetId@ThreadScheduler@details@Concurrency@@UBEIXZ 10065f0d f i libconcrt:ThreadScheduler.obj
 0001:00064f25       ?GetPolicy@ThreadScheduler@details@Concurrency@@UBE?AVSchedulerPolicy@3@XZ 10065f25 f i libconcrt:ThreadScheduler.obj
 0001:00064f41       ?GetPolicy@ThreadScheduler@details@Concurrency@@W7BE?AVSchedulerPolicy@3@XZ 10065f41 f i libconcrt:ThreadScheduler.obj
 0001:00064f49       ?RemoveVirtualProcessors@ThreadScheduler@details@Concurrency@@UAEXPAPAUIVirtualProcessorRoot@3@I@Z 10065f49 f i libconcrt:ThreadScheduler.obj
 0001:00064f55       ?Statistics@ThreadScheduler@details@Concurrency@@UAEXPAI00@Z 10065f55 f i libconcrt:ThreadScheduler.obj
 0001:00064f61       ?OneShotStaticConstruction@UMSThreadScheduler@details@Concurrency@@SAXXZ 10065f61 f   libconcrt:UMSThreadScheduler.obj
 0001:00064fa7       ?OneShotStaticDestruction@UMSThreadScheduler@details@Concurrency@@SAXXZ 10065fa7 f   libconcrt:UMSThreadScheduler.obj
 0001:00064fbb       ??0exception_ptr@std@@QAE@ABV01@@Z 10065fbb f i libconcrt:TaskCollectionBase.obj
 0001:00064fd3       ?_Current_exception@exception_ptr@std@@SA?AV12@XZ 10065fd3 f i libconcrt:TaskCollectionBase.obj
 0001:00064fed       ?_FinishCancelState@_TaskCollectionBase@details@Concurrency@@IAEXI@Z 10065fed f   libconcrt:TaskCollectionBase.obj
 0001:00065013       ?_GetTokenState@_TaskCollectionBase@details@Concurrency@@QAEPAV_CancellationTokenState@23@PAPAV_CancellationTokenRegistration@23@@Z 10066013 f   libconcrt:TaskCollectionBase.obj
 0001:0006503b       ?_MarkCancellation@_TaskCollectionBase@details@Concurrency@@IAE_NXZ 1006603b f   libconcrt:TaskCollectionBase.obj
 0001:00065063       ?_RaisedException@_TaskCollectionBase@details@Concurrency@@IAEXXZ 10066063 f   libconcrt:TaskCollectionBase.obj
 0001:000650c1       ?_RethrowException@_TaskCollectionBase@details@Concurrency@@IAEXXZ 100660c1 f   libconcrt:TaskCollectionBase.obj
 0001:0006512b       ?_RethrowException@exception_ptr@std@@QBEXXZ 1006612b f i libconcrt:TaskCollectionBase.obj
 0001:00065132       ?current_exception@std@@YA?AVexception_ptr@1@XZ 10066132 f i libconcrt:TaskCollectionBase.obj
 0001:00065143       ?rethrow_exception@std@@YAXVexception_ptr@1@@Z 10066143 f i libconcrt:TaskCollectionBase.obj
 0001:0006515c       ??0?$WorkStealingQueue@V_UnrealizedChore@details@Concurrency@@V_CriticalNonReentrantLock@23@@details@Concurrency@@QAE@PAV_CriticalNonReentrantLock@12@@Z 1006615c f i libconcrt:WorkQueue.obj
 0001:000651c5       ??0WorkQueue@details@Concurrency@@QAE@XZ 100661c5 f   libconcrt:WorkQueue.obj
 0001:0006520f       ?RedetachFromScheduleGroupAtSafePoint@WorkQueue@details@Concurrency@@QAEXPAVScheduleGroupSegmentBase@23@@Z 1006620f f   libconcrt:WorkQueue.obj
 0001:00065233       ?Reinitialize@WorkQueue@details@Concurrency@@AAEXXZ 10066233 f   libconcrt:WorkQueue.obj
 0001:0006526d       ?RetireAtSafePoint@WorkQueue@details@Concurrency@@QAEXPAVScheduleGroupSegmentBase@23@@Z 1006626d f   libconcrt:WorkQueue.obj
 0001:00065291       ?StaticRedetachFromScheduleGroup@WorkQueue@details@Concurrency@@CAXPAV123@@Z 10066291 f   libconcrt:WorkQueue.obj
 0001:000652a2       ?StaticRetire@WorkQueue@details@Concurrency@@CAXPAV123@@Z 100662a2 f   libconcrt:WorkQueue.obj
 0001:000652b3       ?Steal@WorkQueue@details@Concurrency@@QAEPAV_UnrealizedChore@23@_N@Z 100662b3 f   libconcrt:WorkQueue.obj
 0001:000652f6       ?Sweep@?$WorkStealingQueue@V_UnrealizedChore@details@Concurrency@@V_CriticalNonReentrantLock@23@@details@Concurrency@@QAEXP6A_NPAV_UnrealizedChore@23@PAX@Z12@Z 100662f6 f i libconcrt:WorkQueue.obj
 0001:000653a8       ?SweepUnstructured@WorkQueue@details@Concurrency@@QAEXP6A_NPAV_UnrealizedChore@23@PAX@Z12@Z 100663a8 f   libconcrt:WorkQueue.obj
 0001:000653b4       ?TryToSteal@WorkQueue@details@Concurrency@@QAEPAV_UnrealizedChore@23@_NAA_N@Z 100663b4 f   libconcrt:WorkQueue.obj
 0001:0006541a       ?UnlockedSteal@?$StructuredWorkStealingQueue@V_UnrealizedChore@details@Concurrency@@V_CriticalNonReentrantLock@23@@details@Concurrency@@QAEPAV_UnrealizedChore@23@_N@Z 1006641a f i libconcrt:WorkQueue.obj
 0001:00065498       ?UnlockedSteal@?$WorkStealingQueue@V_UnrealizedChore@details@Concurrency@@V_CriticalNonReentrantLock@23@@details@Concurrency@@QAEPAV_UnrealizedChore@23@_N0@Z 10066498 f i libconcrt:WorkQueue.obj
 0001:00065526       ?UnlockedSteal@WorkQueue@details@Concurrency@@AAEPAV_UnrealizedChore@23@_N@Z 10066526 f   libconcrt:WorkQueue.obj
 0001:000655e9       ?_CancelViaToken@_UnrealizedChore@details@Concurrency@@CAXPAVContextBase@23@@Z 100665e9 f   libconcrt:Chores.obj
 0001:00065610       ?_InternalFree@_UnrealizedChore@details@Concurrency@@CAXPAV123@@Z 10066610 f   libconcrt:Chores.obj
 0001:0006562d       ?_PrepareSteal@_UnrealizedChore@details@Concurrency@@QAEXPAVContextBase@23@@Z 1006662d f   libconcrt:Chores.obj
 0001:00065645       ?_PrepareStealStructured@_UnrealizedChore@details@Concurrency@@AAEXPAVContextBase@23@@Z 10066645 f   libconcrt:Chores.obj
 0001:0006567d       ?_PrepareStealUnstructured@_UnrealizedChore@details@Concurrency@@AAEXPAVContextBase@23@@Z 1006667d f   libconcrt:Chores.obj
 0001:000656e9       ?_SetDetached@_UnrealizedChore@details@Concurrency@@QAEX_N@Z 100666e9 f   libconcrt:Chores.obj
 0001:000656f6       ?_StructuredChoreWrapper@_UnrealizedChore@details@Concurrency@@CAXPAV123@@Z 100666f6 f   libconcrt:Chores.obj
 0001:00065840       ??0VirtualProcessorRoot@details@Concurrency@@QAE@PAVSchedulerProxy@12@PAUSchedulerNode@12@I@Z 10066840 f   libconcrt:VirtualProcessorRoot.obj
 0001:0006588c       ??_GVirtualProcessorRoot@details@Concurrency@@UAEPAXI@Z 1006688c f i libconcrt:VirtualProcessorRoot.obj
 0001:0006588c       ??_EVirtualProcessorRoot@details@Concurrency@@UAEPAXI@Z 1006688c f i libconcrt:VirtualProcessorRoot.obj
 0001:000658b6       ?CurrentSubscriptionLevel@VirtualProcessorRoot@details@Concurrency@@UBEIXZ 100668b6 f i libconcrt:VirtualProcessorRoot.obj
 0001:000658be       ?GetExecutionResourceId@VirtualProcessorRoot@details@Concurrency@@UBEIXZ 100668be f i libconcrt:VirtualProcessorRoot.obj
 0001:000658c2       ?GetId@VirtualProcessorRoot@details@Concurrency@@UBEIXZ 100668c2 f i libconcrt:VirtualProcessorRoot.obj
 0001:000658c6       ?Remove@VirtualProcessorRoot@details@Concurrency@@UAEXPAUIScheduler@3@@Z 100668c6 f   libconcrt:VirtualProcessorRoot.obj
 0001:00065920       ?ResetSubscriptionLevel@VirtualProcessorRoot@details@Concurrency@@QAEXXZ 10066920 f   libconcrt:VirtualProcessorRoot.obj
 0001:00065938       ?Subscribe@VirtualProcessorRoot@details@Concurrency@@QAEXXZ 10066938 f   libconcrt:VirtualProcessorRoot.obj
 0001:00065945       ?Unsubscribe@VirtualProcessorRoot@details@Concurrency@@QAEXXZ 10066945 f   libconcrt:VirtualProcessorRoot.obj
 0001:00065952       ??0FreeVirtualProcessorRoot@details@Concurrency@@QAE@PAVSchedulerProxy@12@PAUSchedulerNode@12@I@Z 10066952 f   libconcrt:FreeVirtualProcessorRoot.obj
 0001:00065987       ??8HardwareAffinity@details@Concurrency@@QAE_NABU012@@Z 10066987 f i libconcrt:FreeVirtualProcessorRoot.obj
 0001:000659a8       ??_EFreeVirtualProcessorRoot@details@Concurrency@@UAEPAXI@Z 100669a8 f i libconcrt:FreeVirtualProcessorRoot.obj
 0001:000659a8       ??_GFreeVirtualProcessorRoot@details@Concurrency@@UAEPAXI@Z 100669a8 f i libconcrt:FreeVirtualProcessorRoot.obj
 0001:000659d2       ?AcquireActivatedContext@VirtualProcessorRoot@details@Concurrency@@QAEPAUIExecutionContext@3@XZ 100669d2 f i libconcrt:FreeVirtualProcessorRoot.obj
 0001:00065a03       ?Activate@FreeVirtualProcessorRoot@details@Concurrency@@UAEXPAUIExecutionContext@3@@Z 10066a03 f   libconcrt:FreeVirtualProcessorRoot.obj
 0001:00065ac5       ?Affinitize@FreeVirtualProcessorRoot@details@Concurrency@@QAEXPAVFreeThreadProxy@23@@Z 10066ac5 f   libconcrt:FreeVirtualProcessorRoot.obj
 0001:00065b2d       ?Deactivate@FreeVirtualProcessorRoot@details@Concurrency@@UAE_NPAUIExecutionContext@3@@Z 10066b2d f   libconcrt:FreeVirtualProcessorRoot.obj
 0001:00065bd1       ?DeleteThis@FreeVirtualProcessorRoot@details@Concurrency@@UAEXXZ 10066bd1 f   libconcrt:FreeVirtualProcessorRoot.obj
 0001:00065c1e       ?EnsureAllTasksVisible@FreeVirtualProcessorRoot@details@Concurrency@@UAEXPAUIExecutionContext@3@@Z 10066c1e f   libconcrt:FreeVirtualProcessorRoot.obj
 0001:00065c9f       ?ResetOnIdle@FreeVirtualProcessorRoot@details@Concurrency@@QAEXW4SwitchingProxyState@3@@Z 10066c9f f   libconcrt:FreeVirtualProcessorRoot.obj
 0001:00065d0a       ?SetAffinity@FreeThreadProxy@details@Concurrency@@QAEXUHardwareAffinity@23@@Z 10066d0a f i libconcrt:FreeVirtualProcessorRoot.obj
 0001:00065d40       ?SpinUntilIdle@FreeVirtualProcessorRoot@details@Concurrency@@IAEXXZ 10066d40 f i libconcrt:FreeVirtualProcessorRoot.obj
 0001:00065d70       ?AssociateExecutionContext@FreeThreadProxy@details@Concurrency@@QAEXPAUIExecutionContext@3@@Z 10066d70 f   libconcrt:FreeThreadProxy.obj
 0001:00065d92       ?Dispatch@FreeThreadProxy@details@Concurrency@@EAEXXZ 10066d92 f   libconcrt:FreeThreadProxy.obj
 0001:00065e33       ?ReturnIdleProxy@FreeThreadProxy@details@Concurrency@@QAEXXZ 10066e33 f   libconcrt:FreeThreadProxy.obj
 0001:00065e50       ?SwitchOut@FreeThreadProxy@details@Concurrency@@UAEXW4SwitchingProxyState@3@@Z 10066e50 f   libconcrt:FreeThreadProxy.obj
 0001:00065ea7       ?SwitchTo@FreeThreadProxy@details@Concurrency@@UAEXPAUIExecutionContext@3@W4SwitchingProxyState@3@@Z 10066ea7 f   libconcrt:FreeThreadProxy.obj
 0001:00065f5c       ??0ThreadProxy@details@Concurrency@@QAE@PAUIThreadProxyFactory@12@I@Z 10066f5c f   libconcrt:ThreadProxy.obj
 0001:00066031       ??0scheduler_worker_creation_error@Concurrency@@QAE@ABV01@@Z 10067031 f i libconcrt:ThreadProxy.obj
 0001:0006604c       ??1ThreadProxy@details@Concurrency@@UAE@XZ 1006704c f   libconcrt:ThreadProxy.obj
 0001:000660ae       ??_GThreadProxy@details@Concurrency@@UAEPAXI@Z 100670ae f i libconcrt:ThreadProxy.obj
 0001:000660ae       ??_EThreadProxy@details@Concurrency@@UAEPAXI@Z 100670ae f i libconcrt:ThreadProxy.obj
 0001:000660d0       ?Cancel@ThreadProxy@details@Concurrency@@QAEXXZ 100670d0 f   libconcrt:ThreadProxy.obj
 0001:000660e1       ?GetId@ThreadProxy@details@Concurrency@@UBEIXZ 100670e1 f   libconcrt:ThreadProxy.obj
 0001:000660e5       ?ResumeExecution@ThreadProxy@details@Concurrency@@QAEXXZ 100670e5 f   libconcrt:ThreadProxy.obj
 0001:000660ef       ?SetPriority@ThreadProxy@details@Concurrency@@QAEXH@Z 100670ef f   libconcrt:ThreadProxy.obj
 0001:00066107       ?SpinUntilBlocked@ThreadProxy@details@Concurrency@@QAEXXZ 10067107 f   libconcrt:ThreadProxy.obj
 0001:00066134       ?SuspendExecution@ThreadProxy@details@Concurrency@@QAEXXZ 10067134 f   libconcrt:ThreadProxy.obj
 0001:00066150       ?ThreadProxyMain@ThreadProxy@details@Concurrency@@CGKPAX@Z 10067150 f   libconcrt:ThreadProxy.obj
 0001:0006619e       ??0location@Concurrency@@QAE@W4_Type@01@IIPAX@Z 1006719e f   libconcrt:location.obj
 0001:000661c3       ?ContainsResourceId@SchedulingNode@details@Concurrency@@QAE_NI@Z 100671c3 f i libconcrt:location.obj
 0001:000661ee       ?_FastNodeIntersects@location@Concurrency@@QBE_NABV12@@Z 100671ee f   libconcrt:location.obj
 0001:00066239       ?_FastVPIntersects@location@Concurrency@@QBE_NABV12@@Z 10067239 f   libconcrt:location.obj
 0001:00066285       ??0WorkItem@details@Concurrency@@QAE@PAVInternalContextBase@12@@Z 10067285 f   libconcrt:SearchAlgorithms.obj
 0001:000662ab       ?AcquireQuickCacheSlot@SchedulerBase@details@Concurrency@@QAEPAVScheduleGroupSegmentBase@23@I@Z 100672ab f i libconcrt:SearchAlgorithms.obj
 0001:000662c9       ?ActualGetQuickCacheSlot@SchedulerBase@details@Concurrency@@AAEPAVScheduleGroupSegmentBase@23@I@Z 100672c9 f i libconcrt:SearchAlgorithms.obj
 0001:000662fc       ?Bind@WorkItem@details@Concurrency@@QAEPAVInternalContextBase@23@XZ 100672fc f   libconcrt:SearchAlgorithms.obj
 0001:00066349       ?BindTo@WorkItem@details@Concurrency@@QAEXPAVInternalContextBase@23@@Z 10067349 f   libconcrt:SearchAlgorithms.obj
 0001:00066383       ?CheckPriorityList@WorkSearchContext@details@Concurrency@@AAE_N_K@Z 10067383 f i libconcrt:SearchAlgorithms.obj
 0001:000663bb       ?GetLocalRunnable@WorkSearchContext@details@Concurrency@@AAE_NPAVWorkItem@23@PAVVirtualProcessor@23@_N@Z 100673bb f   libconcrt:SearchAlgorithms.obj
 0001:00066454       ?GetNextSchedulingNode@SchedulerBase@details@Concurrency@@QAEPAVSchedulingNode@23@PAHH@Z 10067454 f i libconcrt:SearchAlgorithms.obj
 0001:000664a3       ?GetPseudoRRAffineScheduleGroupSegment@SchedulingRing@details@Concurrency@@QAEPAVScheduleGroupSegmentBase@23@PAH@Z 100674a3 f i libconcrt:SearchAlgorithms.obj
 0001:000664de       ?GetPseudoRRNonAffineScheduleGroupSegment@SchedulingRing@details@Concurrency@@QAEPAVScheduleGroupSegmentBase@23@PAH@Z 100674de f i libconcrt:SearchAlgorithms.obj
 0001:0006651c       ?GetRealizedChore@WorkSearchContext@details@Concurrency@@AAE_NPAVWorkItem@23@PAVScheduleGroupSegmentBase@23@_N@Z 1006751c f   libconcrt:SearchAlgorithms.obj
 0001:0006656e       ?GetRealizedChoreWithinGroup@WorkSearchContext@details@Concurrency@@AAE_NPAVWorkItem@23@PAVScheduleGroupSegmentBase@23@_NW4SearchAffinity@123@2@Z 1006756e f   libconcrt:SearchAlgorithms.obj
 0001:000665ef       ?GetRunnableContext@WorkSearchContext@details@Concurrency@@AAE_NPAVWorkItem@23@PAVScheduleGroupSegmentBase@23@@Z 100675ef f   libconcrt:SearchAlgorithms.obj
 0001:0006662d       ?GetRunnableContextWithinGroup@WorkSearchContext@details@Concurrency@@AAE_NPAVWorkItem@23@PAVScheduleGroupSegmentBase@23@W4SearchAffinity@123@_N@Z 1006762d f   libconcrt:SearchAlgorithms.obj
 0001:000666a8       ?GetUnrealizedChore@WorkSearchContext@details@Concurrency@@AAE_NPAVWorkItem@23@PAVScheduleGroupSegmentBase@23@_N2@Z 100676a8 f   libconcrt:SearchAlgorithms.obj
 0001:000666fd       ?GetUnrealizedChoreWithinGroup@WorkSearchContext@details@Concurrency@@AAE_NPAVWorkItem@23@PAVScheduleGroupSegmentBase@23@_NW4SearchAffinity@123@2@Z 100676fd f   libconcrt:SearchAlgorithms.obj
 0001:0006678d       ?Invoke@WorkItem@details@Concurrency@@QAEXXZ 1006778d f   libconcrt:SearchAlgorithms.obj
 0001:000667cf       ?PeriodicScan@SchedulerBase@details@Concurrency@@QAEX_K@Z 100677cf f i libconcrt:SearchAlgorithms.obj
 0001:0006680a       ?PreSearch@WorkSearchContext@details@Concurrency@@AAE_NPAVWorkItem@23@@Z 1006780a f   libconcrt:SearchAlgorithms.obj
 0001:00066847       ?QuickSearch@WorkSearchContext@details@Concurrency@@AAE_NPAVScheduleGroupSegmentBase@23@PAVWorkItem@23@_NK@Z 10067847 f   libconcrt:SearchAlgorithms.obj
 0001:000668b4       ?QuickSearchYield@WorkSearchContext@details@Concurrency@@AAE_NPAVScheduleGroupSegmentBase@23@PAVWorkItem@23@_NK@Z 100678b4 f   libconcrt:SearchAlgorithms.obj
 0001:00066922       ?Reset@WorkSearchContext@details@Concurrency@@QAEXPAVVirtualProcessor@23@W4Algorithm@123@@Z 10067922 f   libconcrt:SearchAlgorithms.obj
 0001:0006697c       ?ResolveToken@WorkItem@details@Concurrency@@QAE_NXZ 1006797c f   libconcrt:SearchAlgorithms.obj
 0001:000669fc       ?SearchCacheLocal@WorkSearchContext@details@Concurrency@@AAE_NPAVWorkItem@23@PAVScheduleGroupSegmentBase@23@_NK@Z 100679fc f   libconcrt:SearchAlgorithms.obj
 0001:00066cc8       ?SearchCacheLocalYield@WorkSearchContext@details@Concurrency@@AAE_NPAVWorkItem@23@PAVScheduleGroupSegmentBase@23@_NK@Z 10067cc8 f   libconcrt:SearchAlgorithms.obj
 0001:00066f4b       ?SearchCacheLocal_Realized@WorkSearchContext@details@Concurrency@@AAE_NPAVWorkItem@23@PAVSchedulingRing@23@PAVScheduleGroupSegmentBase@23@_NW4SearchAffinity@123@K3@Z 10067f4b f   libconcrt:SearchAlgorithms.obj
 0001:00067048       ?SearchCacheLocal_Runnables@WorkSearchContext@details@Concurrency@@AAE_NPAVWorkItem@23@PAVSchedulingRing@23@PAVScheduleGroupSegmentBase@23@_NW4SearchAffinity@123@K3@Z 10068048 f   libconcrt:SearchAlgorithms.obj
 0001:00067153       ?SearchCacheLocal_Unrealized@WorkSearchContext@details@Concurrency@@AAE_NPAVWorkItem@23@PAVSchedulingRing@23@PAVScheduleGroupSegmentBase@23@_NW4SearchAffinity@123@K3@Z 10068153 f   libconcrt:SearchAlgorithms.obj
 0001:00067253       ?SearchFair@WorkSearchContext@details@Concurrency@@AAE_NPAVWorkItem@23@PAVScheduleGroupSegmentBase@23@_NK@Z 10068253 f   libconcrt:SearchAlgorithms.obj
 0001:00067368       ?SearchFairYield@WorkSearchContext@details@Concurrency@@AAE_NPAVWorkItem@23@PAVScheduleGroupSegmentBase@23@_NK@Z 10068368 f   libconcrt:SearchAlgorithms.obj
 0001:00067478       ?SearchFair_Realized@WorkSearchContext@details@Concurrency@@AAE_NPAVWorkItem@23@PAVSchedulingRing@23@_N@Z 10068478 f   libconcrt:SearchAlgorithms.obj
 0001:0006750e       ?SearchFair_Runnables@WorkSearchContext@details@Concurrency@@AAE_NPAVWorkItem@23@PAVSchedulingRing@23@@Z 1006850e f   libconcrt:SearchAlgorithms.obj
 0001:00067590       ?SearchFair_Unrealized@WorkSearchContext@details@Concurrency@@AAE_NPAVWorkItem@23@PAVSchedulingRing@23@_N@Z 10068590 f   libconcrt:SearchAlgorithms.obj
 0001:0006762a       ?ServiceMark@ScheduleGroupSegmentBase@details@Concurrency@@QAEX_K@Z 1006862a f i libconcrt:SearchAlgorithms.obj
 0001:00067650       ?ServiceMark@VirtualProcessor@details@Concurrency@@QAEX_K@Z 10068650 f i libconcrt:SearchAlgorithms.obj
 0001:00067676       ?SkipSegmentSearch@WorkSearchContext@details@Concurrency@@AAE_NPAVScheduleGroupSegmentBase@23@0W4SearchAffinity@123@_N@Z 10068676 f   libconcrt:SearchAlgorithms.obj
 0001:00067702       ?StealForeignLocalRunnable@WorkSearchContext@details@Concurrency@@AAE_NPAVWorkItem@23@PAVSchedulingNode@23@@Z 10068702 f   libconcrt:SearchAlgorithms.obj
 0001:00067746       ?StealLocalRunnable@WorkSearchContext@details@Concurrency@@AAE_NPAVWorkItem@23@PAVSchedulingNode@23@PAVVirtualProcessor@23@@Z 10068746 f   libconcrt:SearchAlgorithms.obj
 0001:000677b7       ?StealLocalRunnableContext@VirtualProcessor@details@Concurrency@@AAEPAVInternalContextBase@23@XZ 100687b7 f i libconcrt:SearchAlgorithms.obj
 0001:000677ce       ?TransferReferences@WorkItem@details@Concurrency@@QAEXPAVInternalContextBase@23@@Z 100687ce f   libconcrt:SearchAlgorithms.obj
 0001:00067823       ?Invoke@RealizedChore@details@Concurrency@@QAEXXZ 10068823 f   libconcrt:RealizedChore.obj
 0001:00067836       ??0ThreadVirtualProcessor@details@Concurrency@@QAE@PAVSchedulingNode@12@PAUIVirtualProcessorRoot@2@@Z 10068836 f   libconcrt:ThreadVirtualProcessor.obj
 0001:0006786d       ??_GThreadVirtualProcessor@details@Concurrency@@UAEPAXI@Z 1006886d f i libconcrt:ThreadVirtualProcessor.obj
 0001:0006786d       ??_EThreadVirtualProcessor@details@Concurrency@@UAEPAXI@Z 1006886d f i libconcrt:ThreadVirtualProcessor.obj
 0001:000678a0       _memmove                   100688a0 f   libvcruntime:memmove.obj
 0001:00067e14       __get_purecall_handler     10068e14 f   libvcruntime:purevirt.obj
 0001:00067e33       __purecall                 10068e33 f   libvcruntime:purevirt.obj
 0001:00067e4e       ___std_exception_copy      10068e4e f   libvcruntime:std_exception.obj
 0001:00067eb1       ___std_exception_destroy   10068eb1 f   libvcruntime:std_exception.obj
 0001:00067ed0       __CxxThrowException@8      10068ed0 f   libvcruntime:throw.obj
 0001:00067f3e       ?_CallCatchBlock2@@YAPAXPAUEHRegistrationNode@@PBU_s_FuncInfo@@PAXHK@Z 10068f3e f   libvcruntime:trnsctrl.obj
 0001:00067f9e       ?_CallSETranslator@@YAHPAUEHExceptionRecord@@PAUEHRegistrationNode@@PAX2PBU_s_FuncInfo@@H1@Z 10068f9e f   libvcruntime:trnsctrl.obj
 0001:0006807b       ?_GetRangeOfTrysToCheck@@YAPBU_s_TryBlockMapEntry@@PBU_s_FuncInfo@@HHPAI1@Z 1006907b f   libvcruntime:trnsctrl.obj
 0001:000680f3       ?_JumpToContinuation@@YGXPAXPAUEHRegistrationNode@@@Z 100690f3 f   libvcruntime:trnsctrl.obj
 0001:00068125       ?_UnwindNestedFrames@@YGXPAUEHRegistrationNode@@PAUEHExceptionRecord@@@Z 10069125 f   libvcruntime:trnsctrl.obj
 0001:0006817a       __CatchGuardHandler        1006917a f   libvcruntime:trnsctrl.obj
 0001:000681ab       __CreateFrameInfo          100691ab f   libvcruntime:trnsctrl.obj
 0001:000681cf       __FindAndUnlinkFrame       100691cf f   libvcruntime:trnsctrl.obj
 0001:00068219       __IsExceptionObjectToBeDestroyed 10069219 f   libvcruntime:trnsctrl.obj
 0001:0006823f       __TranslatorGuardHandler   1006923f f   libvcruntime:trnsctrl.obj
 0001:000682de       ___CxxFrameHandler3        100692de f   libvcruntime:trnsctrl.obj
 0001:00068320       _memcpy                    10069320 f   libvcruntime:memcpy.obj
 0001:000689b5       ___vcrt_FlsAlloc           100699b5 f   libvcruntime:winapi_downlevel.obj
 0001:000689ef       ___vcrt_FlsFree            100699ef f   libvcruntime:winapi_downlevel.obj
 0001:00068a29       ___vcrt_FlsGetValue        10069a29 f   libvcruntime:winapi_downlevel.obj
 0001:00068a63       ___vcrt_FlsSetValue        10069a63 f   libvcruntime:winapi_downlevel.obj
 0001:00068aa0       ___vcrt_InitializeCriticalSectionEx 10069aa0 f   libvcruntime:winapi_downlevel.obj
 0001:00068ae6       ___vcrt_initialize_winapi_thunks 10069ae6 f   libvcruntime:winapi_downlevel.obj
 0001:00068b20       ___vcrt_uninitialize_winapi_thunks 10069b20 f   libvcruntime:winapi_downlevel.obj
 0001:00068b52       ___vcrt_initialize         10069b52 f   libvcruntime:initialization.obj
 0001:00068b7b       ___vcrt_thread_attach      10069b7b f   libvcruntime:initialization.obj
 0001:00068b86       ___vcrt_thread_detach      10069b86 f   libvcruntime:initialization.obj
 0001:00068b91       ___vcrt_uninitialize       10069b91 f   libvcruntime:initialization.obj
 0001:00068bb0       ___vcrt_uninitialize_critical 10069bb0 f   libvcruntime:initialization.obj
 0001:00068c00       __except_handler4          10069c00 f   libvcruntime:_chandler4_.obj
 0001:00068d70       _memset                    10069d70 f   libvcruntime:memset.obj
 0001:00068eca       ___std_type_info_compare   10069eca f   libvcruntime:std_type_info.obj
 0001:00068f06       ___std_type_info_destroy_list 10069f06 f   libvcruntime:std_type_info.obj
 0001:00068f29       ___DestructExceptionObject 10069f29 f   libvcruntime:frame.obj
 0001:00068fbd       ??0bad_exception@std@@QAE@ABV01@@Z 10069fbd f i libvcruntime:frame.obj
 0001:00068fd8       ??0bad_exception@std@@QAE@XZ 10069fd8 f i libvcruntime:frame.obj
 0001:00069809       ?_CallMemberFunction2@@YGXQAX00H@Z 1006a809 f i libvcruntime:frame.obj
 0001:00069809       ?_CallMemberFunction1@@YGXQAX00@Z 1006a809 f i libvcruntime:frame.obj
 0001:00069809       ?_CallMemberFunction0@@YGXQAX0@Z 1006a809 f i libvcruntime:frame.obj
 0001:00069810       ___AdjustPointer           1006a810 f   libvcruntime:frame.obj
 0001:00069835       ___BuildCatchObject        1006a835 f   libvcruntime:frame.obj
 0001:000698c4       ___BuildCatchObjectHelper  1006a8c4 f   libvcruntime:frame.obj
 0001:000699f2       ___FrameUnwindFilter       1006a9f2 f   libvcruntime:frame.obj
 0001:00069a37       ___FrameUnwindToState      1006aa37 f   libvcruntime:frame.obj
 0001:00069aff       ___InternalCxxFrameHandler 1006aaff f   libvcruntime:frame.obj
 0001:00069bfb       ___TypeMatch               1006abfb f   libvcruntime:frame.obj
 0001:00069c89       ___current_exception       1006ac89 f   libvcruntime:frame.obj
 0001:00069c92       ___processing_throw        1006ac92 f   libvcruntime:frame.obj
 0001:00069c9b       ___std_terminate           1006ac9b f   libvcruntime:frame.obj
 0001:00069ca0       ___uncaught_exception      1006aca0 f   libvcruntime:frame.obj
 0001:00069cad       ??0__non_rtti_object@std@@QAE@ABV01@@Z 1006acad f i libvcruntime:rtti.obj
 0001:00069cc8       ??0bad_cast@std@@QAE@ABV01@@Z 1006acc8 f i libvcruntime:rtti.obj
 0001:00069ce3       ??0bad_typeid@std@@QAE@ABV01@@Z 1006ace3 f i libvcruntime:rtti.obj
 0001:0006a106       ?__construct_from_string_literal@__non_rtti_object@std@@SA?AV12@QBD@Z 1006b106 f i libvcruntime:rtti.obj
 0001:0006a122       ?__construct_from_string_literal@bad_cast@std@@SA?AV12@QBD@Z 1006b122 f i libvcruntime:rtti.obj
 0001:0006a13e       ___RTDynamicCast           1006b13e f   libvcruntime:rtti.obj
 0001:0006a220       ___vcrt_initialize_pure_virtual_call_handler 1006b220 f   libvcruntime:purevirt_data.obj
 0001:0006a23d       ___vcrt_freefls@4          1006b23d f   libvcruntime:per_thread_data.obj
 0001:0006a259       ___vcrt_freeptd            1006b259 f   libvcruntime:per_thread_data.obj
 0001:0006a28f       ___vcrt_getptd             1006b28f f   libvcruntime:per_thread_data.obj
 0001:0006a29d       ___vcrt_getptd_noexit      1006b29d f   libvcruntime:per_thread_data.obj
 0001:0006a32f       ___vcrt_initialize_ptd     1006b32f f   libvcruntime:per_thread_data.obj
 0001:0006a362       ___vcrt_uninitialize_ptd   1006b362 f   libvcruntime:per_thread_data.obj
 0001:0006a380       __CallSettingFrame@12      1006b380 f   libvcruntime:lowhelpr.obj
 0001:0006a3a7       __NLG_Return               1006b3a7     libvcruntime:lowhelpr.obj
 0001:0006a3cc       ___vcrt_initialize_locks   1006b3cc f   libvcruntime:locks.obj
 0001:0006a408       ___vcrt_uninitialize_locks 1006b408 f   libvcruntime:locks.obj
 0001:0006a440       __local_unwind4            1006b440 f   libvcruntime:_exsup4_.obj
 0001:0006a516       __seh_longjmp_unwind4@4    1006b516 f   libvcruntime:_exsup4_.obj
 0001:0006a53e       @_EH4_CallFilterFunc@8     1006b53e f   libvcruntime:_exsup4_.obj
 0001:0006a555       @_EH4_TransferToHandler@8  1006b555 f   libvcruntime:_exsup4_.obj
 0001:0006a56e       @_EH4_GlobalUnwind2@8      1006b56e f   libvcruntime:_exsup4_.obj
 0001:0006a587       @_EH4_LocalUnwind@16       1006b587 f   libvcruntime:_exsup4_.obj
 0001:0006a59e       _unexpected                1006b59e f   libvcruntime:unexpected.obj
 0001:0006a5c0       __global_unwind2           1006b5c0 f   libvcruntime:_exsup_.obj
 0001:0006a625       __local_unwind2            1006b625 f   libvcruntime:_exsup_.obj
 0001:0006a6a9       __abnormal_termination     1006b6a9 f   libvcruntime:_exsup_.obj
 0001:0006a6cc       __NLG_Notify1              1006b6cc f   libvcruntime:_exsup_.obj
 0001:0006a6d5       __NLG_Notify               1006b6d5 f   libvcruntime:_exsup_.obj
 0001:0006a6ec       __NLG_Dispatch             1006b6ec     libvcruntime:_exsup_.obj
 0001:0006a6ec       __NLG_Dispatch2            1006b6ec     libvcruntime:_exsup_.obj
 0001:0006a6f4       __NLG_Call                 1006b6f4 f   libvcruntime:_exsup_.obj
 0001:0006a6f6       __NLG_Return2              1006b6f6     libvcruntime:_exsup_.obj
 0001:0006a6f7       ___acrt_initialize_stdio   1006b6f7 f   libucrt:_file.obj
 0001:0006a7bf       ___acrt_iob_func           1006b7bf f   libucrt:_file.obj
 0001:0006a7cf       ___acrt_uninitialize_stdio 1006b7cf f   libucrt:_file.obj
 0001:0006a81b       __lock_file                1006b81b f   libucrt:_file.obj
 0001:0006a82f       __unlock_file              1006b82f f   libucrt:_file.obj
 0001:0006a9c3       __wmakepath_s              1006b9c3 f   libucrt:makepath.obj
 0001:0006ac01       __wsplitpath_s             1006bc01 f   libucrt:splitpath.obj
 0001:0006ac52       _wcscat_s                  1006bc52 f   libucrt:wcscat_s.obj
 0001:0006acc7       ??$?RV<lambda_ab9923ffb5d694ec0d78876dd103e44f>@@AAV<lambda_481dd5778c961fbcd3b60b650e9b9dc4>@@V<lambda_7923d86c9e3f319b415918ec4b39749c>@@@?$__crt_seh_guarded_call@H@@QAEH$$QAV<lambda_ab9923ffb5d694ec0d78876dd103e44f>@@AAV<lambda_481dd5778c961fbcd3b60b650e9b9dc4>@@$$QAV<lambda_7923d86c9e3f319b415918ec4b39749c>@@@Z 1006bcc7 f i libucrt:output.obj
 0001:0006ad18       ??$?RV<lambda_db08b09ef7aa9d4f8620ce68402612bc>@@AAV<lambda_4f2c1eaeead2a5fc776db5b62ea0fb9b>@@V<lambda_3ae262bc35d4ba6a3825c4f6bcaaf95c>@@@?$__crt_seh_guarded_call@H@@QAEH$$QAV<lambda_db08b09ef7aa9d4f8620ce68402612bc>@@AAV<lambda_4f2c1eaeead2a5fc776db5b62ea0fb9b>@@$$QAV<lambda_3ae262bc35d4ba6a3825c4f6bcaaf95c>@@@Z 1006bd18 f i libucrt:output.obj
 0001:0006ad69       ??$__acrt_lock_stream_and_call@V<lambda_481dd5778c961fbcd3b60b650e9b9dc4>@@@@YAHQAU_iobuf@@$$QAV<lambda_481dd5778c961fbcd3b60b650e9b9dc4>@@@Z 1006bd69 f i libucrt:output.obj
 0001:0006ad91       ??$__acrt_lock_stream_and_call@V<lambda_4f2c1eaeead2a5fc776db5b62ea0fb9b>@@@@YAHQAU_iobuf@@$$QAV<lambda_4f2c1eaeead2a5fc776db5b62ea0fb9b>@@@Z 1006bd91 f i libucrt:output.obj
 0001:0006b347       ??$count@D@formatting_buffer@__crt_stdio_output@@QBEIXZ 1006c347 f i libucrt:output.obj
 0001:0006b35f       ??$ensure_buffer_is_big_enough@D@formatting_buffer@__crt_stdio_output@@QAE_NI@Z 1006c35f f i libucrt:output.obj
 0001:0006b3e5       ??$is_wide_character_specifier@D@__crt_stdio_output@@YA_N_KDW4length_modifier@0@@Z 1006c3e5 f i libucrt:output.obj
 0001:0006b425       ??$is_wide_character_specifier@_W@__crt_stdio_output@@YA_N_K_WW4length_modifier@0@@Z 1006c425 f i libucrt:output.obj
 0001:0006b474       ??$scratch_data@D@formatting_buffer@__crt_stdio_output@@QAEPADXZ 1006c474 f i libucrt:output.obj
 0001:0006b492       ??$type_case_integer_parse_into_buffer@I@?$output_processor@DV?$string_output_adapter@D@__crt_stdio_output@@V?$standard_base@DV?$string_output_adapter@D@__crt_stdio_output@@@2@@__crt_stdio_output@@AAEXII_N@Z 1006c492 f i libucrt:output.obj
 0001:0006b492       ??$type_case_integer_parse_into_buffer@I@?$output_processor@_WV?$string_output_adapter@_W@__crt_stdio_output@@V?$format_validation_base@_WV?$string_output_adapter@_W@__crt_stdio_output@@@2@@__crt_stdio_output@@AAEXII_N@Z 1006c492 f i libucrt:output.obj
 0001:0006b492       ??$type_case_integer_parse_into_buffer@I@?$output_processor@_WV?$stream_output_adapter@_W@__crt_stdio_output@@V?$standard_base@_WV?$stream_output_adapter@_W@__crt_stdio_output@@@2@@__crt_stdio_output@@AAEXII_N@Z 1006c492 f i libucrt:output.obj
 0001:0006b492       ??$type_case_integer_parse_into_buffer@I@?$output_processor@DV?$stream_output_adapter@D@__crt_stdio_output@@V?$standard_base@DV?$stream_output_adapter@D@__crt_stdio_output@@@2@@__crt_stdio_output@@AAEXII_N@Z 1006c492 f i libucrt:output.obj
 0001:0006b492       ??$type_case_integer_parse_into_buffer@I@?$output_processor@_WV?$string_output_adapter@_W@__crt_stdio_output@@V?$standard_base@_WV?$string_output_adapter@_W@__crt_stdio_output@@@2@@__crt_stdio_output@@AAEXII_N@Z 1006c492 f i libucrt:output.obj
 0001:0006b507       ??$type_case_integer_parse_into_buffer@_K@?$output_processor@_WV?$string_output_adapter@_W@__crt_stdio_output@@V?$format_validation_base@_WV?$string_output_adapter@_W@__crt_stdio_output@@@2@@__crt_stdio_output@@AAEX_KI_N@Z 1006c507 f i libucrt:output.obj
 0001:0006b507       ??$type_case_integer_parse_into_buffer@_K@?$output_processor@DV?$string_output_adapter@D@__crt_stdio_output@@V?$standard_base@DV?$string_output_adapter@D@__crt_stdio_output@@@2@@__crt_stdio_output@@AAEX_KI_N@Z 1006c507 f i libucrt:output.obj
 0001:0006b507       ??$type_case_integer_parse_into_buffer@_K@?$output_processor@_WV?$string_output_adapter@_W@__crt_stdio_output@@V?$standard_base@_WV?$string_output_adapter@_W@__crt_stdio_output@@@2@@__crt_stdio_output@@AAEX_KI_N@Z 1006c507 f i libucrt:output.obj
 0001:0006b507       ??$type_case_integer_parse_into_buffer@_K@?$output_processor@DV?$stream_output_adapter@D@__crt_stdio_output@@V?$standard_base@DV?$stream_output_adapter@D@__crt_stdio_output@@@2@@__crt_stdio_output@@AAEX_KI_N@Z 1006c507 f i libucrt:output.obj
 0001:0006b507       ??$type_case_integer_parse_into_buffer@_K@?$output_processor@_WV?$stream_output_adapter@_W@__crt_stdio_output@@V?$standard_base@_WV?$stream_output_adapter@_W@__crt_stdio_output@@@2@@__crt_stdio_output@@AAEX_KI_N@Z 1006c507 f i libucrt:output.obj
 0001:0006b58f       ??$write_multiple_characters@V?$stream_output_adapter@D@__crt_stdio_output@@D@__crt_stdio_output@@YAXABV?$stream_output_adapter@D@0@DHQAH@Z 1006c58f f i libucrt:output.obj
 0001:0006b5bb       ??$write_multiple_characters@V?$stream_output_adapter@_W@__crt_stdio_output@@D@__crt_stdio_output@@YAXABV?$stream_output_adapter@_W@0@DHQAH@Z 1006c5bb f i libucrt:output.obj
 0001:0006b5ec       ??$write_multiple_characters@V?$string_output_adapter@D@__crt_stdio_output@@D@__crt_stdio_output@@YAXABV?$string_output_adapter@D@0@DHQAH@Z 1006c5ec f i libucrt:output.obj
 0001:0006b618       ??$write_multiple_characters@V?$string_output_adapter@_W@__crt_stdio_output@@D@__crt_stdio_output@@YAXABV?$string_output_adapter@_W@0@DHQAH@Z 1006c618 f i libucrt:output.obj
 0001:0006b649       ??0?$common_data@D@__crt_stdio_output@@IAE@XZ 1006c649 f i libucrt:output.obj
 0001:0006b690       ??0?$common_data@_W@__crt_stdio_output@@IAE@XZ 1006c690 f i libucrt:output.obj
 0001:0006b6dc       ??0?$output_adapter_data@DV?$string_output_adapter@D@__crt_stdio_output@@@__crt_stdio_output@@IAE@ABV?$string_output_adapter@D@1@_KQBDQAU__crt_locale_pointers@@QAD@Z 1006c6dc f i libucrt:output.obj
 0001:0006b6dc       ??0?$output_adapter_data@DV?$stream_output_adapter@D@__crt_stdio_output@@@__crt_stdio_output@@IAE@ABV?$stream_output_adapter@D@1@_KQBDQAU__crt_locale_pointers@@QAD@Z 1006c6dc f i libucrt:output.obj
 0001:0006b718       ??0?$output_adapter_data@_WV?$string_output_adapter@_W@__crt_stdio_output@@@__crt_stdio_output@@IAE@ABV?$string_output_adapter@_W@1@_KQB_WQAU__crt_locale_pointers@@QAD@Z 1006c718 f i libucrt:output.obj
 0001:0006b718       ??0?$output_adapter_data@_WV?$stream_output_adapter@_W@__crt_stdio_output@@@__crt_stdio_output@@IAE@ABV?$stream_output_adapter@_W@1@_KQB_WQAU__crt_locale_pointers@@QAD@Z 1006c718 f i libucrt:output.obj
 0001:0006b754       ??0?$output_processor@DV?$stream_output_adapter@D@__crt_stdio_output@@V?$standard_base@DV?$stream_output_adapter@D@__crt_stdio_output@@@2@@__crt_stdio_output@@QAE@ABV?$stream_output_adapter@D@1@_KQBDQAU__crt_locale_pointers@@QAD@Z 1006c754 f i libucrt:output.obj
 0001:0006b754       ??0?$output_processor@DV?$string_output_adapter@D@__crt_stdio_output@@V?$standard_base@DV?$string_output_adapter@D@__crt_stdio_output@@@2@@__crt_stdio_output@@QAE@ABV?$string_output_adapter@D@1@_KQBDQAU__crt_locale_pointers@@QAD@Z 1006c754 f i libucrt:output.obj
 0001:0006b789       ??0?$output_processor@_WV?$stream_output_adapter@_W@__crt_stdio_output@@V?$standard_base@_WV?$stream_output_adapter@_W@__crt_stdio_output@@@2@@__crt_stdio_output@@QAE@ABV?$stream_output_adapter@_W@1@_KQB_WQAU__crt_locale_pointers@@QAD@Z 1006c789 f i libucrt:output.obj
 0001:0006b789       ??0?$output_processor@_WV?$string_output_adapter@_W@__crt_stdio_output@@V?$standard_base@_WV?$string_output_adapter@_W@__crt_stdio_output@@@2@@__crt_stdio_output@@QAE@ABV?$string_output_adapter@_W@1@_KQB_WQAU__crt_locale_pointers@@QAD@Z 1006c789 f i libucrt:output.obj
 0001:0006b789       ??0?$output_processor@_WV?$string_output_adapter@_W@__crt_stdio_output@@V?$format_validation_base@_WV?$string_output_adapter@_W@__crt_stdio_output@@@2@@__crt_stdio_output@@QAE@ABV?$string_output_adapter@_W@1@_KQB_WQAU__crt_locale_pointers@@QAD@Z 1006c789 f i libucrt:output.obj
 0001:0006b7be       ??0_LocaleUpdate@@QAE@QAU__crt_locale_pointers@@@Z 1006c7be f i libucrt:output.obj
 0001:0006b841       ??1formatting_buffer@__crt_stdio_output@@QAE@XZ 1006c841 f i libucrt:output.obj
 0001:0006b85b       ??4?$__crt_unique_heap_ptr@DU__crt_internal_free_policy@@@@QAEAAV0@$$QAV0@@Z 1006c85b f i libucrt:output.obj
 0001:0006b85b       ??4?$__crt_unique_heap_ptr@EU__crt_internal_free_policy@@@@QAEAAV0@$$QAV0@@Z 1006c85b f i libucrt:input.obj
 0001:0006b9f9       ?crop_zeroes@__crt_stdio_output@@YAXPADQAU__crt_locale_pointers@@@Z 1006c9f9 f i libucrt:output.obj
 0001:0006ba50       ?find_next_state@?$output_processor@DV?$string_output_adapter@D@__crt_stdio_output@@V?$standard_base@DV?$string_output_adapter@D@__crt_stdio_output@@@2@@__crt_stdio_output@@ABE?AW4state@2@DW432@@Z 1006ca50 f i libucrt:output.obj
 0001:0006ba50       ?find_next_state@?$output_processor@DV?$stream_output_adapter@D@__crt_stdio_output@@V?$standard_base@DV?$stream_output_adapter@D@__crt_stdio_output@@@2@@__crt_stdio_output@@ABE?AW4state@2@DW432@@Z 1006ca50 f i libucrt:output.obj
 0001:0006ba82       ?find_next_state@?$output_processor@_WV?$string_output_adapter@_W@__crt_stdio_output@@V?$format_validation_base@_WV?$string_output_adapter@_W@__crt_stdio_output@@@2@@__crt_stdio_output@@ABE?AW4state@2@_WW432@@Z 1006ca82 f i libucrt:output.obj
 0001:0006bab9       ?find_next_state@?$output_processor@_WV?$string_output_adapter@_W@__crt_stdio_output@@V?$standard_base@_WV?$string_output_adapter@_W@__crt_stdio_output@@@2@@__crt_stdio_output@@ABE?AW4state@2@_WW432@@Z 1006cab9 f i libucrt:output.obj
 0001:0006bab9       ?find_next_state@?$output_processor@_WV?$stream_output_adapter@_W@__crt_stdio_output@@V?$standard_base@_WV?$stream_output_adapter@_W@__crt_stdio_output@@@2@@__crt_stdio_output@@ABE?AW4state@2@_WW432@@Z 1006cab9 f i libucrt:output.obj
 0001:0006baed       ?force_decimal_point@__crt_stdio_output@@YAXPADQAU__crt_locale_pointers@@@Z 1006caed f i libucrt:output.obj
 0001:0006bb49       ?parse_int_from_format_string@?$output_processor@DV?$stream_output_adapter@D@__crt_stdio_output@@V?$standard_base@DV?$stream_output_adapter@D@__crt_stdio_output@@@2@@__crt_stdio_output@@AAE_NQAH@Z 1006cb49 f i libucrt:output.obj
 0001:0006bb49       ?parse_int_from_format_string@?$output_processor@DV?$string_output_adapter@D@__crt_stdio_output@@V?$standard_base@DV?$string_output_adapter@D@__crt_stdio_output@@@2@@__crt_stdio_output@@AAE_NQAH@Z 1006cb49 f i libucrt:output.obj
 0001:0006bba5       ?parse_int_from_format_string@?$output_processor@_WV?$string_output_adapter@_W@__crt_stdio_output@@V?$format_validation_base@_WV?$string_output_adapter@_W@__crt_stdio_output@@@2@@__crt_stdio_output@@AAE_NQAH@Z 1006cba5 f i libucrt:output.obj
 0001:0006bba5       ?parse_int_from_format_string@?$output_processor@_WV?$string_output_adapter@_W@__crt_stdio_output@@V?$standard_base@_WV?$string_output_adapter@_W@__crt_stdio_output@@@2@@__crt_stdio_output@@AAE_NQAH@Z 1006cba5 f i libucrt:output.obj
 0001:0006bba5       ?parse_int_from_format_string@?$output_processor@_WV?$stream_output_adapter@_W@__crt_stdio_output@@V?$standard_base@_WV?$stream_output_adapter@_W@__crt_stdio_output@@@2@@__crt_stdio_output@@AAE_NQAH@Z 1006cba5 f i libucrt:output.obj
 0001:0006bc03       ?process@?$output_processor@DV?$stream_output_adapter@D@__crt_stdio_output@@V?$standard_base@DV?$stream_output_adapter@D@__crt_stdio_output@@@2@@__crt_stdio_output@@QAEHXZ 1006cc03 f i libucrt:output.obj
 0001:0006bd1f       ?process@?$output_processor@DV?$string_output_adapter@D@__crt_stdio_output@@V?$standard_base@DV?$string_output_adapter@D@__crt_stdio_output@@@2@@__crt_stdio_output@@QAEHXZ 1006cd1f f i libucrt:output.obj
 0001:0006be3b       ?process@?$output_processor@_WV?$stream_output_adapter@_W@__crt_stdio_output@@V?$standard_base@_WV?$stream_output_adapter@_W@__crt_stdio_output@@@2@@__crt_stdio_output@@QAEHXZ 1006ce3b f i libucrt:output.obj
 0001:0006bf5b       ?process@?$output_processor@_WV?$string_output_adapter@_W@__crt_stdio_output@@V?$format_validation_base@_WV?$string_output_adapter@_W@__crt_stdio_output@@@2@@__crt_stdio_output@@QAEHXZ 1006cf5b f i libucrt:output.obj
 0001:0006c08b       ?process@?$output_processor@_WV?$string_output_adapter@_W@__crt_stdio_output@@V?$standard_base@_WV?$string_output_adapter@_W@__crt_stdio_output@@@2@@__crt_stdio_output@@QAEHXZ 1006d08b f i libucrt:output.obj
 0001:0006c1ab       ?state_case_flag@?$output_processor@DV?$string_output_adapter@D@__crt_stdio_output@@V?$standard_base@DV?$string_output_adapter@D@__crt_stdio_output@@@2@@__crt_stdio_output@@AAE_NXZ 1006d1ab f i libucrt:output.obj
 0001:0006c1ab       ?state_case_flag@?$output_processor@DV?$stream_output_adapter@D@__crt_stdio_output@@V?$standard_base@DV?$stream_output_adapter@D@__crt_stdio_output@@@2@@__crt_stdio_output@@AAE_NXZ 1006d1ab f i libucrt:output.obj
 0001:0006c1e8       ?state_case_flag@?$output_processor@_WV?$string_output_adapter@_W@__crt_stdio_output@@V?$standard_base@_WV?$string_output_adapter@_W@__crt_stdio_output@@@2@@__crt_stdio_output@@AAE_NXZ 1006d1e8 f i libucrt:output.obj
 0001:0006c1e8       ?state_case_flag@?$output_processor@_WV?$stream_output_adapter@_W@__crt_stdio_output@@V?$standard_base@_WV?$stream_output_adapter@_W@__crt_stdio_output@@@2@@__crt_stdio_output@@AAE_NXZ 1006d1e8 f i libucrt:output.obj
 0001:0006c1e8       ?state_case_flag@?$output_processor@_WV?$string_output_adapter@_W@__crt_stdio_output@@V?$format_validation_base@_WV?$string_output_adapter@_W@__crt_stdio_output@@@2@@__crt_stdio_output@@AAE_NXZ 1006d1e8 f i libucrt:output.obj
 0001:0006c225       ?state_case_normal@?$output_processor@DV?$stream_output_adapter@D@__crt_stdio_output@@V?$standard_base@DV?$stream_output_adapter@D@__crt_stdio_output@@@2@@__crt_stdio_output@@AAE_NXZ 1006d225 f i libucrt:output.obj
 0001:0006c244       ?state_case_normal@?$output_processor@DV?$string_output_adapter@D@__crt_stdio_output@@V?$standard_base@DV?$string_output_adapter@D@__crt_stdio_output@@@2@@__crt_stdio_output@@AAE_NXZ 1006d244 f i libucrt:output.obj
 0001:0006c263       ?state_case_normal@?$output_processor@_WV?$stream_output_adapter@_W@__crt_stdio_output@@V?$standard_base@_WV?$stream_output_adapter@_W@__crt_stdio_output@@@2@@__crt_stdio_output@@AAE_NXZ 1006d263 f i libucrt:output.obj
 0001:0006c282       ?state_case_normal@?$output_processor@_WV?$string_output_adapter@_W@__crt_stdio_output@@V?$format_validation_base@_WV?$string_output_adapter@_W@__crt_stdio_output@@@2@@__crt_stdio_output@@AAE_NXZ 1006d282 f i libucrt:output.obj
 0001:0006c282       ?state_case_normal@?$output_processor@_WV?$string_output_adapter@_W@__crt_stdio_output@@V?$standard_base@_WV?$string_output_adapter@_W@__crt_stdio_output@@@2@@__crt_stdio_output@@AAE_NXZ 1006d282 f i libucrt:output.obj
 0001:0006c2a1       ?state_case_normal_common@?$output_processor@DV?$stream_output_adapter@D@__crt_stdio_output@@V?$standard_base@DV?$stream_output_adapter@D@__crt_stdio_output@@@2@@__crt_stdio_output@@AAE_NXZ 1006d2a1 f i libucrt:output.obj
 0001:0006c2cb       ?state_case_normal_common@?$output_processor@DV?$string_output_adapter@D@__crt_stdio_output@@V?$standard_base@DV?$string_output_adapter@D@__crt_stdio_output@@@2@@__crt_stdio_output@@AAE_NXZ 1006d2cb f i libucrt:output.obj
 0001:0006c2f5       ?state_case_normal_common@?$output_processor@_WV?$stream_output_adapter@_W@__crt_stdio_output@@V?$standard_base@_WV?$stream_output_adapter@_W@__crt_stdio_output@@@2@@__crt_stdio_output@@AAE_NXZ 1006d2f5 f i libucrt:output.obj
 0001:0006c310       ?state_case_normal_common@?$output_processor@_WV?$string_output_adapter@_W@__crt_stdio_output@@V?$standard_base@_WV?$string_output_adapter@_W@__crt_stdio_output@@@2@@__crt_stdio_output@@AAE_NXZ 1006d310 f i libucrt:output.obj
 0001:0006c310       ?state_case_normal_common@?$output_processor@_WV?$string_output_adapter@_W@__crt_stdio_output@@V?$format_validation_base@_WV?$string_output_adapter@_W@__crt_stdio_output@@@2@@__crt_stdio_output@@AAE_NXZ 1006d310 f i libucrt:output.obj
 0001:0006c32b       ?state_case_normal_tchar@?$output_processor@DV?$stream_output_adapter@D@__crt_stdio_output@@V?$standard_base@DV?$stream_output_adapter@D@__crt_stdio_output@@@2@@__crt_stdio_output@@AAE_ND@Z 1006d32b f i libucrt:output.obj
 0001:0006c38c       ?state_case_normal_tchar@?$output_processor@DV?$string_output_adapter@D@__crt_stdio_output@@V?$standard_base@DV?$string_output_adapter@D@__crt_stdio_output@@@2@@__crt_stdio_output@@AAE_ND@Z 1006d38c f i libucrt:output.obj
 0001:0006c3ed       ?state_case_precision@?$output_processor@DV?$stream_output_adapter@D@__crt_stdio_output@@V?$standard_base@DV?$stream_output_adapter@D@__crt_stdio_output@@@2@@__crt_stdio_output@@AAE_NXZ 1006d3ed f i libucrt:output.obj
 0001:0006c3ed       ?state_case_precision@?$output_processor@DV?$string_output_adapter@D@__crt_stdio_output@@V?$standard_base@DV?$string_output_adapter@D@__crt_stdio_output@@@2@@__crt_stdio_output@@AAE_NXZ 1006d3ed f i libucrt:output.obj
 0001:0006c415       ?state_case_precision@?$output_processor@_WV?$stream_output_adapter@_W@__crt_stdio_output@@V?$standard_base@_WV?$stream_output_adapter@_W@__crt_stdio_output@@@2@@__crt_stdio_output@@AAE_NXZ 1006d415 f i libucrt:output.obj
 0001:0006c415       ?state_case_precision@?$output_processor@_WV?$string_output_adapter@_W@__crt_stdio_output@@V?$format_validation_base@_WV?$string_output_adapter@_W@__crt_stdio_output@@@2@@__crt_stdio_output@@AAE_NXZ 1006d415 f i libucrt:output.obj
 0001:0006c415       ?state_case_precision@?$output_processor@_WV?$string_output_adapter@_W@__crt_stdio_output@@V?$standard_base@_WV?$string_output_adapter@_W@__crt_stdio_output@@@2@@__crt_stdio_output@@AAE_NXZ 1006d415 f i libucrt:output.obj
 0001:0006c43e       ?state_case_size@?$output_processor@DV?$stream_output_adapter@D@__crt_stdio_output@@V?$standard_base@DV?$stream_output_adapter@D@__crt_stdio_output@@@2@@__crt_stdio_output@@AAE_NXZ 1006d43e f i libucrt:output.obj
 0001:0006c5a7       ?state_case_size@?$output_processor@DV?$string_output_adapter@D@__crt_stdio_output@@V?$standard_base@DV?$string_output_adapter@D@__crt_stdio_output@@@2@@__crt_stdio_output@@AAE_NXZ 1006d5a7 f i libucrt:output.obj
 0001:0006c710       ?state_case_size@?$output_processor@_WV?$stream_output_adapter@_W@__crt_stdio_output@@V?$standard_base@_WV?$stream_output_adapter@_W@__crt_stdio_output@@@2@@__crt_stdio_output@@AAE_NXZ 1006d710 f i libucrt:output.obj
 0001:0006c88c       ?state_case_size@?$output_processor@_WV?$string_output_adapter@_W@__crt_stdio_output@@V?$standard_base@_WV?$string_output_adapter@_W@__crt_stdio_output@@@2@@__crt_stdio_output@@AAE_NXZ 1006d88c f i libucrt:output.obj
 0001:0006c88c       ?state_case_size@?$output_processor@_WV?$string_output_adapter@_W@__crt_stdio_output@@V?$format_validation_base@_WV?$string_output_adapter@_W@__crt_stdio_output@@@2@@__crt_stdio_output@@AAE_NXZ 1006d88c f i libucrt:output.obj
 0001:0006ca08       ?state_case_type@?$output_processor@DV?$stream_output_adapter@D@__crt_stdio_output@@V?$standard_base@DV?$stream_output_adapter@D@__crt_stdio_output@@@2@@__crt_stdio_output@@AAE_NXZ 1006da08 f i libucrt:output.obj
 0001:0006cc37       ?state_case_type@?$output_processor@DV?$string_output_adapter@D@__crt_stdio_output@@V?$standard_base@DV?$string_output_adapter@D@__crt_stdio_output@@@2@@__crt_stdio_output@@AAE_NXZ 1006dc37 f i libucrt:output.obj
 0001:0006ce66       ?state_case_type@?$output_processor@_WV?$stream_output_adapter@_W@__crt_stdio_output@@V?$standard_base@_WV?$stream_output_adapter@_W@__crt_stdio_output@@@2@@__crt_stdio_output@@AAE_NXZ 1006de66 f i libucrt:output.obj
 0001:0006d0c3       ?state_case_type@?$output_processor@_WV?$string_output_adapter@_W@__crt_stdio_output@@V?$format_validation_base@_WV?$string_output_adapter@_W@__crt_stdio_output@@@2@@__crt_stdio_output@@AAE_NXZ 1006e0c3 f i libucrt:output.obj
 0001:0006d0c3       ?state_case_type@?$output_processor@_WV?$string_output_adapter@_W@__crt_stdio_output@@V?$standard_base@_WV?$string_output_adapter@_W@__crt_stdio_output@@@2@@__crt_stdio_output@@AAE_NXZ 1006e0c3 f i libucrt:output.obj
 0001:0006d320       ?state_case_width@?$output_processor@DV?$stream_output_adapter@D@__crt_stdio_output@@V?$standard_base@DV?$stream_output_adapter@D@__crt_stdio_output@@@2@@__crt_stdio_output@@AAE_NXZ 1006e320 f i libucrt:output.obj
 0001:0006d320       ?state_case_width@?$output_processor@DV?$string_output_adapter@D@__crt_stdio_output@@V?$standard_base@DV?$string_output_adapter@D@__crt_stdio_output@@@2@@__crt_stdio_output@@AAE_NXZ 1006e320 f i libucrt:output.obj
 0001:0006d34b       ?state_case_width@?$output_processor@_WV?$string_output_adapter@_W@__crt_stdio_output@@V?$format_validation_base@_WV?$string_output_adapter@_W@__crt_stdio_output@@@2@@__crt_stdio_output@@AAE_NXZ 1006e34b f i libucrt:output.obj
 0001:0006d34b       ?state_case_width@?$output_processor@_WV?$string_output_adapter@_W@__crt_stdio_output@@V?$standard_base@_WV?$string_output_adapter@_W@__crt_stdio_output@@@2@@__crt_stdio_output@@AAE_NXZ 1006e34b f i libucrt:output.obj
 0001:0006d34b       ?state_case_width@?$output_processor@_WV?$stream_output_adapter@_W@__crt_stdio_output@@V?$standard_base@_WV?$stream_output_adapter@_W@__crt_stdio_output@@@2@@__crt_stdio_output@@AAE_NXZ 1006e34b f i libucrt:output.obj
 0001:0006d377       ?to_integer_size@__crt_stdio_output@@YAIW4length_modifier@1@@Z 1006e377 f i libucrt:output.obj
 0001:0006d3d3       ?type_case_Z@?$output_processor@DV?$stream_output_adapter@D@__crt_stdio_output@@V?$standard_base@DV?$stream_output_adapter@D@__crt_stdio_output@@@2@@__crt_stdio_output@@AAE_NXZ 1006e3d3 f i libucrt:output.obj
 0001:0006d3d3       ?type_case_Z@?$output_processor@DV?$string_output_adapter@D@__crt_stdio_output@@V?$standard_base@DV?$string_output_adapter@D@__crt_stdio_output@@@2@@__crt_stdio_output@@AAE_NXZ 1006e3d3 f i libucrt:output.obj
 0001:0006d436       ?type_case_Z@?$output_processor@_WV?$string_output_adapter@_W@__crt_stdio_output@@V?$standard_base@_WV?$string_output_adapter@_W@__crt_stdio_output@@@2@@__crt_stdio_output@@AAE_NXZ 1006e436 f i libucrt:output.obj
 0001:0006d436       ?type_case_Z@?$output_processor@_WV?$string_output_adapter@_W@__crt_stdio_output@@V?$format_validation_base@_WV?$string_output_adapter@_W@__crt_stdio_output@@@2@@__crt_stdio_output@@AAE_NXZ 1006e436 f i libucrt:output.obj
 0001:0006d436       ?type_case_Z@?$output_processor@_WV?$stream_output_adapter@_W@__crt_stdio_output@@V?$standard_base@_WV?$stream_output_adapter@_W@__crt_stdio_output@@@2@@__crt_stdio_output@@AAE_NXZ 1006e436 f i libucrt:output.obj
 0001:0006d499       ?type_case_a@?$output_processor@DV?$stream_output_adapter@D@__crt_stdio_output@@V?$standard_base@DV?$stream_output_adapter@D@__crt_stdio_output@@@2@@__crt_stdio_output@@AAE_NXZ 1006e499 f i libucrt:output.obj
 0001:0006d499       ?type_case_a@?$output_processor@DV?$string_output_adapter@D@__crt_stdio_output@@V?$standard_base@DV?$string_output_adapter@D@__crt_stdio_output@@@2@@__crt_stdio_output@@AAE_NXZ 1006e499 f i libucrt:output.obj
 0001:0006d5f3       ?type_case_a@?$output_processor@_WV?$stream_output_adapter@_W@__crt_stdio_output@@V?$standard_base@_WV?$stream_output_adapter@_W@__crt_stdio_output@@@2@@__crt_stdio_output@@AAE_NXZ 1006e5f3 f i libucrt:output.obj
 0001:0006d5f3       ?type_case_a@?$output_processor@_WV?$string_output_adapter@_W@__crt_stdio_output@@V?$format_validation_base@_WV?$string_output_adapter@_W@__crt_stdio_output@@@2@@__crt_stdio_output@@AAE_NXZ 1006e5f3 f i libucrt:output.obj
 0001:0006d5f3       ?type_case_a@?$output_processor@_WV?$string_output_adapter@_W@__crt_stdio_output@@V?$standard_base@_WV?$string_output_adapter@_W@__crt_stdio_output@@@2@@__crt_stdio_output@@AAE_NXZ 1006e5f3 f i libucrt:output.obj
 0001:0006d765       ?type_case_c_tchar@?$output_processor@DV?$stream_output_adapter@D@__crt_stdio_output@@V?$standard_base@DV?$stream_output_adapter@D@__crt_stdio_output@@@2@@__crt_stdio_output@@AAE_ND@Z 1006e765 f i libucrt:output.obj
 0001:0006d765       ?type_case_c_tchar@?$output_processor@DV?$string_output_adapter@D@__crt_stdio_output@@V?$standard_base@DV?$string_output_adapter@D@__crt_stdio_output@@@2@@__crt_stdio_output@@AAE_ND@Z 1006e765 f i libucrt:output.obj
 0001:0006d7f5       ?type_case_c_tchar@?$output_processor@_WV?$string_output_adapter@_W@__crt_stdio_output@@V?$standard_base@_WV?$string_output_adapter@_W@__crt_stdio_output@@@2@@__crt_stdio_output@@AAE_N_W@Z 1006e7f5 f i libucrt:output.obj
 0001:0006d7f5       ?type_case_c_tchar@?$output_processor@_WV?$string_output_adapter@_W@__crt_stdio_output@@V?$format_validation_base@_WV?$string_output_adapter@_W@__crt_stdio_output@@@2@@__crt_stdio_output@@AAE_N_W@Z 1006e7f5 f i libucrt:output.obj
 0001:0006d7f5       ?type_case_c_tchar@?$output_processor@_WV?$stream_output_adapter@_W@__crt_stdio_output@@V?$standard_base@_WV?$stream_output_adapter@_W@__crt_stdio_output@@@2@@__crt_stdio_output@@AAE_N_W@Z 1006e7f5 f i libucrt:output.obj
 0001:0006d88d       ?type_case_integer@?$output_processor@DV?$string_output_adapter@D@__crt_stdio_output@@V?$standard_base@DV?$string_output_adapter@D@__crt_stdio_output@@@2@@__crt_stdio_output@@AAE_NI_N@Z 1006e88d f i libucrt:output.obj
 0001:0006d88d       ?type_case_integer@?$output_processor@_WV?$stream_output_adapter@_W@__crt_stdio_output@@V?$standard_base@_WV?$stream_output_adapter@_W@__crt_stdio_output@@@2@@__crt_stdio_output@@AAE_NI_N@Z 1006e88d f i libucrt:output.obj
 0001:0006d88d       ?type_case_integer@?$output_processor@_WV?$string_output_adapter@_W@__crt_stdio_output@@V?$format_validation_base@_WV?$string_output_adapter@_W@__crt_stdio_output@@@2@@__crt_stdio_output@@AAE_NI_N@Z 1006e88d f i libucrt:output.obj
 0001:0006d88d       ?type_case_integer@?$output_processor@_WV?$string_output_adapter@_W@__crt_stdio_output@@V?$standard_base@_WV?$string_output_adapter@_W@__crt_stdio_output@@@2@@__crt_stdio_output@@AAE_NI_N@Z 1006e88d f i libucrt:output.obj
 0001:0006d88d       ?type_case_integer@?$output_processor@DV?$stream_output_adapter@D@__crt_stdio_output@@V?$standard_base@DV?$stream_output_adapter@D@__crt_stdio_output@@@2@@__crt_stdio_output@@AAE_NI_N@Z 1006e88d f i libucrt:output.obj
 0001:0006d9d7       ?type_case_n@?$output_processor@DV?$string_output_adapter@D@__crt_stdio_output@@V?$standard_base@DV?$string_output_adapter@D@__crt_stdio_output@@@2@@__crt_stdio_output@@AAE_NXZ 1006e9d7 f i libucrt:output.obj
 0001:0006d9d7       ?type_case_n@?$output_processor@_WV?$stream_output_adapter@_W@__crt_stdio_output@@V?$standard_base@_WV?$stream_output_adapter@_W@__crt_stdio_output@@@2@@__crt_stdio_output@@AAE_NXZ 1006e9d7 f i libucrt:output.obj
 0001:0006d9d7       ?type_case_n@?$output_processor@_WV?$string_output_adapter@_W@__crt_stdio_output@@V?$standard_base@_WV?$string_output_adapter@_W@__crt_stdio_output@@@2@@__crt_stdio_output@@AAE_NXZ 1006e9d7 f i libucrt:output.obj
 0001:0006d9d7       ?type_case_n@?$output_processor@DV?$stream_output_adapter@D@__crt_stdio_output@@V?$standard_base@DV?$stream_output_adapter@D@__crt_stdio_output@@@2@@__crt_stdio_output@@AAE_NXZ 1006e9d7 f i libucrt:output.obj
 0001:0006d9d7       ?type_case_n@?$output_processor@_WV?$string_output_adapter@_W@__crt_stdio_output@@V?$format_validation_base@_WV?$string_output_adapter@_W@__crt_stdio_output@@@2@@__crt_stdio_output@@AAE_NXZ 1006e9d7 f i libucrt:output.obj
 0001:0006da4b       ?type_case_o@?$output_processor@DV?$string_output_adapter@D@__crt_stdio_output@@V?$standard_base@DV?$string_output_adapter@D@__crt_stdio_output@@@2@@__crt_stdio_output@@AAE_NXZ 1006ea4b f i libucrt:output.obj
 0001:0006da4b       ?type_case_o@?$output_processor@DV?$stream_output_adapter@D@__crt_stdio_output@@V?$standard_base@DV?$stream_output_adapter@D@__crt_stdio_output@@@2@@__crt_stdio_output@@AAE_NXZ 1006ea4b f i libucrt:output.obj
 0001:0006da4b       ?type_case_o@?$output_processor@_WV?$string_output_adapter@_W@__crt_stdio_output@@V?$standard_base@_WV?$string_output_adapter@_W@__crt_stdio_output@@@2@@__crt_stdio_output@@AAE_NXZ 1006ea4b f i libucrt:output.obj
 0001:0006da4b       ?type_case_o@?$output_processor@_WV?$stream_output_adapter@_W@__crt_stdio_output@@V?$standard_base@_WV?$stream_output_adapter@_W@__crt_stdio_output@@@2@@__crt_stdio_output@@AAE_NXZ 1006ea4b f i libucrt:output.obj
 0001:0006da4b       ?type_case_o@?$output_processor@_WV?$string_output_adapter@_W@__crt_stdio_output@@V?$format_validation_base@_WV?$string_output_adapter@_W@__crt_stdio_output@@@2@@__crt_stdio_output@@AAE_NXZ 1006ea4b f i libucrt:output.obj
 0001:0006da6a       ?type_case_p@?$output_processor@DV?$stream_output_adapter@D@__crt_stdio_output@@V?$standard_base@DV?$stream_output_adapter@D@__crt_stdio_output@@@2@@__crt_stdio_output@@AAE_NXZ 1006ea6a f i libucrt:output.obj
 0001:0006da6a       ?type_case_p@?$output_processor@_WV?$stream_output_adapter@_W@__crt_stdio_output@@V?$standard_base@_WV?$stream_output_adapter@_W@__crt_stdio_output@@@2@@__crt_stdio_output@@AAE_NXZ 1006ea6a f i libucrt:output.obj
 0001:0006da6a       ?type_case_p@?$output_processor@_WV?$string_output_adapter@_W@__crt_stdio_output@@V?$format_validation_base@_WV?$string_output_adapter@_W@__crt_stdio_output@@@2@@__crt_stdio_output@@AAE_NXZ 1006ea6a f i libucrt:output.obj
 0001:0006da6a       ?type_case_p@?$output_processor@_WV?$string_output_adapter@_W@__crt_stdio_output@@V?$standard_base@_WV?$string_output_adapter@_W@__crt_stdio_output@@@2@@__crt_stdio_output@@AAE_NXZ 1006ea6a f i libucrt:output.obj
 0001:0006da6a       ?type_case_p@?$output_processor@DV?$string_output_adapter@D@__crt_stdio_output@@V?$standard_base@DV?$string_output_adapter@D@__crt_stdio_output@@@2@@__crt_stdio_output@@AAE_NXZ 1006ea6a f i libucrt:output.obj
 0001:0006da82       ?type_case_s@?$output_processor@DV?$string_output_adapter@D@__crt_stdio_output@@V?$standard_base@DV?$string_output_adapter@D@__crt_stdio_output@@@2@@__crt_stdio_output@@AAE_NXZ 1006ea82 f i libucrt:output.obj
 0001:0006da82       ?type_case_s@?$output_processor@DV?$stream_output_adapter@D@__crt_stdio_output@@V?$standard_base@DV?$stream_output_adapter@D@__crt_stdio_output@@@2@@__crt_stdio_output@@AAE_NXZ 1006ea82 f i libucrt:output.obj
 0001:0006daf5       ?type_case_s@?$output_processor@_WV?$string_output_adapter@_W@__crt_stdio_output@@V?$format_validation_base@_WV?$string_output_adapter@_W@__crt_stdio_output@@@2@@__crt_stdio_output@@AAE_NXZ 1006eaf5 f i libucrt:output.obj
 0001:0006daf5       ?type_case_s@?$output_processor@_WV?$stream_output_adapter@_W@__crt_stdio_output@@V?$standard_base@_WV?$stream_output_adapter@_W@__crt_stdio_output@@@2@@__crt_stdio_output@@AAE_NXZ 1006eaf5 f i libucrt:output.obj
 0001:0006daf5       ?type_case_s@?$output_processor@_WV?$string_output_adapter@_W@__crt_stdio_output@@V?$standard_base@_WV?$string_output_adapter@_W@__crt_stdio_output@@@2@@__crt_stdio_output@@AAE_NXZ 1006eaf5 f i libucrt:output.obj
 0001:0006db69       ?type_case_s_compute_narrow_string_length@?$output_processor@_WV?$string_output_adapter@_W@__crt_stdio_output@@V?$standard_base@_WV?$string_output_adapter@_W@__crt_stdio_output@@@2@@__crt_stdio_output@@ABEHH_W@Z 1006eb69 f i libucrt:output.obj
 0001:0006db69       ?type_case_s_compute_narrow_string_length@?$output_processor@_WV?$stream_output_adapter@_W@__crt_stdio_output@@V?$standard_base@_WV?$stream_output_adapter@_W@__crt_stdio_output@@@2@@__crt_stdio_output@@ABEHH_W@Z 1006eb69 f i libucrt:output.obj
 0001:0006db69       ?type_case_s_compute_narrow_string_length@?$output_processor@_WV?$string_output_adapter@_W@__crt_stdio_output@@V?$format_validation_base@_WV?$string_output_adapter@_W@__crt_stdio_output@@@2@@__crt_stdio_output@@ABEHH_W@Z 1006eb69 f i libucrt:output.obj
 0001:0006dba9       ?validate@?$stream_output_adapter@D@__crt_stdio_output@@QBE_NXZ 1006eba9 f i libucrt:output.obj
 0001:0006dbca       ?validate_and_update_state_at_end_of_format_string@?$format_validation_base@_WV?$string_output_adapter@_W@__crt_stdio_output@@@__crt_stdio_output@@IBE_NXZ 1006ebca f i libucrt:output.obj
 0001:0006dbec       ?validate_stream_is_ansi_if_required@?$__acrt_stdio_char_traits@D@@SA_NQAU_iobuf@@@Z 1006ebec f i libucrt:output.obj
 0001:0006dc6e       ?write_character@?$stream_output_adapter@D@__crt_stdio_output@@QBEXDQAH@Z 1006ec6e f i libucrt:output.obj
 0001:0006dcab       ?write_character@?$stream_output_adapter@_W@__crt_stdio_output@@QBEX_WQAH@Z 1006ecab f i libucrt:output.obj
 0001:0006dceb       ?write_character@?$string_output_adapter@D@__crt_stdio_output@@QBE_NDQAH@Z 1006eceb f i libucrt:output.obj
 0001:0006dd2d       ?write_character@?$string_output_adapter@_W@__crt_stdio_output@@QBE_N_WQAH@Z 1006ed2d f i libucrt:output.obj
 0001:0006dd72       ?write_stored_string_tchar@?$output_processor@DV?$stream_output_adapter@D@__crt_stdio_output@@V?$standard_base@DV?$stream_output_adapter@D@__crt_stdio_output@@@2@@__crt_stdio_output@@AAE_ND@Z 1006ed72 f i libucrt:output.obj
 0001:0006de19       ?write_stored_string_tchar@?$output_processor@DV?$string_output_adapter@D@__crt_stdio_output@@V?$standard_base@DV?$string_output_adapter@D@__crt_stdio_output@@@2@@__crt_stdio_output@@AAE_ND@Z 1006ee19 f i libucrt:output.obj
 0001:0006dec0       ?write_stored_string_tchar@?$output_processor@_WV?$stream_output_adapter@_W@__crt_stdio_output@@V?$standard_base@_WV?$stream_output_adapter@_W@__crt_stdio_output@@@2@@__crt_stdio_output@@AAE_N_W@Z 1006eec0 f i libucrt:output.obj
 0001:0006df4b       ?write_stored_string_tchar@?$output_processor@_WV?$string_output_adapter@_W@__crt_stdio_output@@V?$standard_base@_WV?$string_output_adapter@_W@__crt_stdio_output@@@2@@__crt_stdio_output@@AAE_N_W@Z 1006ef4b f i libucrt:output.obj
 0001:0006df4b       ?write_stored_string_tchar@?$output_processor@_WV?$string_output_adapter@_W@__crt_stdio_output@@V?$format_validation_base@_WV?$string_output_adapter@_W@__crt_stdio_output@@@2@@__crt_stdio_output@@AAE_N_W@Z 1006ef4b f i libucrt:output.obj
 0001:0006dfd6       ?write_string@?$stream_output_adapter@D@__crt_stdio_output@@QBEXQBDHQAH1@Z 1006efd6 f i libucrt:output.obj
 0001:0006e060       ?write_string@?$stream_output_adapter@_W@__crt_stdio_output@@QBEXQB_WHQAH1@Z 1006f060 f i libucrt:output.obj
 0001:0006e0ed       ?write_string@?$string_output_adapter@D@__crt_stdio_output@@QBEXQBDHQAH1@Z 1006f0ed f i libucrt:output.obj
 0001:0006e180       ?write_string@?$string_output_adapter@_W@__crt_stdio_output@@QBEXQB_WHQAH1@Z 1006f180 f i libucrt:output.obj
 0001:0006e21a       ___stdio_common_vfprintf   1006f21a f   libucrt:output.obj
 0001:0006e291       ___stdio_common_vfwprintf  1006f291 f   libucrt:output.obj
 0001:0006e308       ___stdio_common_vsnwprintf_s 1006f308 f   libucrt:output.obj
 0001:0006e32f       ___stdio_common_vsprintf   1006f32f f   libucrt:output.obj
 0001:0006e353       ___stdio_common_vswprintf  1006f353 f   libucrt:output.obj
 0001:0006e377       ___acrt_call_reportfault   1006f377 f   libucrt:invalid_parameter.obj
 0001:0006e4b2       ___acrt_initialize_invalid_parameter_handler 1006f4b2 f   libucrt:invalid_parameter.obj
 0001:0006e4c6       __invalid_parameter        1006f4c6 f   libucrt:invalid_parameter.obj
 0001:0006e541       __invalid_parameter_noinfo 1006f541 f   libucrt:invalid_parameter.obj
 0001:0006e551       __invalid_parameter_noinfo_noreturn 1006f551 f   libucrt:invalid_parameter.obj
 0001:0006e56e       __invoke_watson            1006f56e f   libucrt:invalid_parameter.obj
 0001:0006e74c       __i64tow                   1006f74c f   libucrt:xtoa.obj
 0001:0006e78f       __itow                     1006f78f f   libucrt:xtoa.obj
 0001:0006e7c6       __itow_s                   1006f7c6 f   libucrt:xtoa.obj
 0001:0006e7fb       ??$assemble_floating_point_ind@N@__crt_strtox@@YAXAAN@Z 1006f7fb f i libucrt:input.obj
 0001:0006e82a       ??$assemble_floating_point_infinity@N@__crt_strtox@@YAX_NAAN@Z 1006f82a f i libucrt:input.obj
 0001:0006e869       ??$assemble_floating_point_qnan@N@__crt_strtox@@YAX_NAAN@Z 1006f869 f i libucrt:input.obj
 0001:0006e8a8       ??$assemble_floating_point_snan@N@__crt_strtox@@YAX_NAAN@Z 1006f8a8 f i libucrt:input.obj
 0001:0006e8ec       ??$assemble_floating_point_value_t@M@__crt_strtox@@YA?AW4SLD_STATUS@@_NH_KAAM@Z 1006f8ec f i libucrt:input.obj
 0001:0006e91c       ??$assemble_floating_point_value_t@N@__crt_strtox@@YA?AW4SLD_STATUS@@_NH_KAAN@Z 1006f91c f i libucrt:input.obj
 0001:0006e97b       ??$assemble_floating_point_zero@N@__crt_strtox@@YAX_NAAN@Z 1006f97b f i libucrt:input.obj
 0001:0006ea69       ??$convert_decimal_string_to_floating_type@M@__crt_strtox@@YA?AW4SLD_STATUS@@ABUfloating_point_string@0@AAM@Z 1006fa69 f i libucrt:input.obj
 0001:0006ea8c       ??$convert_decimal_string_to_floating_type@N@__crt_strtox@@YA?AW4SLD_STATUS@@ABUfloating_point_string@0@AAN@Z 1006fa8c f i libucrt:input.obj
 0001:0006eaaf       ??$convert_hexadecimal_string_to_floating_type@M@__crt_strtox@@YA?AW4SLD_STATUS@@ABUfloating_point_string@0@AAM@Z 1006faaf f i libucrt:input.obj
 0001:0006ead2       ??$convert_hexadecimal_string_to_floating_type@N@__crt_strtox@@YA?AW4SLD_STATUS@@ABUfloating_point_string@0@AAN@Z 1006fad2 f i libucrt:input.obj
 0001:0006eaf5       ??$is_overflow_condition@_K@__crt_strtox@@YA_NI_K@Z 1006faf5 f i libucrt:input.obj
 0001:0006eb38       ??$make_input_adapter_character_source@V?$string_input_adapter@_W@__crt_stdio_input@@@__crt_strtox@@YA?AV?$input_adapter_character_source@V?$string_input_adapter@_W@__crt_stdio_input@@@0@QAV?$string_input_adapter@_W@__crt_stdio_input@@_KQA_N@Z 1006fb38 f i libucrt:input.obj
 0001:0006eb56       ??$parse_floating_point@V?$input_adapter_character_source@V?$string_input_adapter@_W@__crt_stdio_input@@@__crt_strtox@@M@__crt_strtox@@YA?AW4SLD_STATUS@@QAU__crt_locale_pointers@@V?$input_adapter_character_source@V?$string_input_adapter@_W@__crt_stdio_input@@@0@QAM@Z 1006fb56 f i libucrt:input.obj
 0001:0006ebd1       ??$parse_floating_point@V?$input_adapter_character_source@V?$string_input_adapter@_W@__crt_stdio_input@@@__crt_strtox@@N@__crt_strtox@@YA?AW4SLD_STATUS@@QAU__crt_locale_pointers@@V?$input_adapter_character_source@V?$string_input_adapter@_W@__crt_stdio_input@@@0@QAN@Z 1006fbd1 f i libucrt:input.obj
 0001:0006ec4c       ??$parse_floating_point_from_source@V?$input_adapter_character_source@V?$string_input_adapter@_W@__crt_stdio_input@@@__crt_strtox@@@__crt_strtox@@YA?AW4floating_point_parse_result@0@QAU__crt_locale_pointers@@AAV?$input_adapter_character_source@V?$string_input_adapter@_W@__crt_stdio_input@@@0@AAUfloating_point_string@0@@Z 1006fc4c f i libucrt:input.obj
 0001:0006fa7a       ??$parse_floating_point_possible_infinity@_WV?$input_adapter_character_source@V?$string_input_adapter@_W@__crt_stdio_input@@@__crt_strtox@@_K@__crt_strtox@@YA?AW4floating_point_parse_result@0@AA_WAAV?$input_adapter_character_source@V?$string_input_adapter@_W@__crt_stdio_input@@@0@_K@Z 10070a7a f i libucrt:input.obj
 0001:0006fb49       ??$parse_floating_point_possible_nan@_WV?$input_adapter_character_source@V?$string_input_adapter@_W@__crt_stdio_input@@@__crt_strtox@@_K@__crt_strtox@@YA?AW4floating_point_parse_result@0@AA_WAAV?$input_adapter_character_source@V?$string_input_adapter@_W@__crt_stdio_input@@@0@_K@Z 10070b49 f i libucrt:input.obj
 0001:0006fc75       ??$parse_floating_point_possible_nan_is_ind@_WV?$input_adapter_character_source@V?$string_input_adapter@_W@__crt_stdio_input@@@__crt_strtox@@@__crt_strtox@@YA_NAA_WAAV?$input_adapter_character_source@V?$string_input_adapter@_W@__crt_stdio_input@@@0@@Z 10070c75 f i libucrt:input.obj
 0001:0006fcb5       ??$parse_floating_point_possible_nan_is_snan@_WV?$input_adapter_character_source@V?$string_input_adapter@_W@__crt_stdio_input@@@__crt_strtox@@@__crt_strtox@@YA_NAA_WAAV?$input_adapter_character_source@V?$string_input_adapter@_W@__crt_stdio_input@@@0@@Z 10070cb5 f i libucrt:input.obj
 0001:0006fcf5       ??$parse_floating_point_write_result@M@__crt_strtox@@YA?AW4SLD_STATUS@@W4floating_point_parse_result@0@ABUfloating_point_string@0@QAM@Z 10070cf5 f i libucrt:input.obj
 0001:0006fe05       ??$parse_floating_point_write_result@N@__crt_strtox@@YA?AW4SLD_STATUS@@W4floating_point_parse_result@0@ABUfloating_point_string@0@QAN@Z 10070e05 f i libucrt:input.obj
 0001:0006ff09       ??$parse_integer@_KV?$input_adapter_character_source@V?$string_input_adapter@_W@__crt_stdio_input@@@__crt_strtox@@@__crt_strtox@@YA_KQAU__crt_locale_pointers@@V?$input_adapter_character_source@V?$string_input_adapter@_W@__crt_stdio_input@@@0@H_N@Z 10070f09 f i libucrt:input.obj
 0001:00070508       ??$process_floating_point_specifier_t@M@?$input_processor@_WV?$string_input_adapter@_W@__crt_stdio_input@@@__crt_stdio_input@@AAE_NXZ 10071508 f i libucrt:input.obj
 0001:00070570       ??$process_floating_point_specifier_t@N@?$input_processor@_WV?$string_input_adapter@_W@__crt_stdio_input@@@__crt_stdio_input@@AAE_NXZ 10071570 f i libucrt:input.obj
 0001:000705d8       ??$process_string_specifier_tchar@D@?$input_processor@_WV?$string_input_adapter@_W@__crt_stdio_input@@@__crt_stdio_input@@AAE_NW4conversion_mode@1@D@Z 100715d8 f i libucrt:input.obj
 0001:00070743       ??$process_string_specifier_tchar@_W@?$input_processor@_WV?$string_input_adapter@_W@__crt_stdio_input@@@__crt_stdio_input@@AAE_NW4conversion_mode@1@_W@Z 10071743 f i libucrt:input.obj
 0001:000708af       ??$skip_whitespace@Vstring_input_adapter@__crt_stdio_input@@_W@__crt_stdio_input@@YAGAAV?$string_input_adapter@_W@0@QAU__crt_locale_pointers@@@Z 100718af f i libucrt:input.obj
 0001:000708de       ??$write_floating_point@M@?$input_processor@_WV?$string_input_adapter@_W@__crt_stdio_input@@@__crt_stdio_input@@AAE_NABM@Z 100718de f i libucrt:input.obj
 0001:00070915       ??$write_floating_point@N@?$input_processor@_WV?$string_input_adapter@_W@__crt_stdio_input@@@__crt_stdio_input@@AAE_NABN@Z 10071915 f i libucrt:input.obj
